TN:KeyLimePieTest
SF:/home/jihwan/KeyLimePie/ossavltree/find.cc
FN:34,_ZN11Int_AVLtree4FindEi
FNDA:132,_ZN11Int_AVLtree4FindEi
DA:34,132
DA:36,132
DA:37,132
DA:38,132
end_of_record
SF:/home/jihwan/KeyLimePie/ossavltree/data_structure.h
FN:69,_ZN11Int_AVLtree7getRootEv
FNDA:0,_ZN11Int_AVLtree7getRootEv
DA:69,0
end_of_record
SF:/usr/include/c++/11/iostream
end_of_record
TN:KeyLimePieTest
SF:/home/jihwan/KeyLimePie/ossavltree/insert.cc
FN:34,_ZN11Int_AVLtree6InsertEi
FNDA:17691,_ZN11Int_AVLtree6InsertEi
DA:34,17691
DA:36,17691
DA:37,17691
DA:38,17691
DA:40,519
DA:41,519
DA:42,519
DA:45,17172
DA:46,17172
DA:47,17172
DA:49,93219
DA:51,76050
DA:52,76050
DA:54,159
DA:55,159
DA:57,75891
DA:59,75888
DA:60,75888
DA:62,3
DA:64,3
DA:68,17169
DA:70,17169
DA:72,96
DA:74,17073
DA:76,17073
DA:80,0
DA:82,17169
DA:83,17169
DA:84,17169
DA:85,17169
DA:86,17169
end_of_record
SF:/usr/include/c++/11/iostream
end_of_record
SF:/home/jihwan/KeyLimePie/ossavltree/node.h
FN:47,_ZN8Int_Node7getKey_Ev
FNDA:0,_ZN8Int_Node7getKey_Ev
FN:58,_ZN16Int_AVLtree_Node13setLeft_childEPS_
FNDA:0,_ZN16Int_AVLtree_Node13setLeft_childEPS_
FN:59,_ZN16Int_AVLtree_Node13getLeft_childEv
FNDA:0,_ZN16Int_AVLtree_Node13getLeft_childEv
FN:60,_ZN16Int_AVLtree_Node14setRight_childEPS_
FNDA:0,_ZN16Int_AVLtree_Node14setRight_childEPS_
FN:61,_ZN16Int_AVLtree_Node14getRight_childEv
FNDA:0,_ZN16Int_AVLtree_Node14getRight_childEv
FN:62,_ZN16Int_AVLtree_Node14setParent_nodeEPS_
FNDA:0,_ZN16Int_AVLtree_Node14setParent_nodeEPS_
DA:47,0
DA:58,0
DA:59,0
DA:60,0
DA:61,0
DA:62,0
end_of_record
SF:/home/jihwan/KeyLimePie/ossavltree/data_structure.h
FN:69,_ZN11Int_AVLtree7getRootEv
FNDA:0,_ZN11Int_AVLtree7getRootEv
FN:70,_ZN11Int_AVLtree7setRootEP16Int_AVLtree_Node
FNDA:0,_ZN11Int_AVLtree7setRootEP16Int_AVLtree_Node
FN:71,_ZN11Int_AVLtree11getNode_numEv
FNDA:0,_ZN11Int_AVLtree11getNode_numEv
FN:72,_ZN11Int_AVLtree11setNode_numEi
FNDA:17805,_ZN11Int_AVLtree11setNode_numEi
DA:69,0
DA:70,0
DA:71,0
DA:72,17805
end_of_record
TN:KeyLimePieTest
SF:/home/jihwan/KeyLimePie/ossavltree/data_structure.h
FN:69,_ZN11Int_AVLtree7getRootEv
FNDA:269748,_ZN11Int_AVLtree7getRootEv
FN:70,_ZN11Int_AVLtree7setRootEP16Int_AVLtree_Node
FNDA:2382,_ZN11Int_AVLtree7setRootEP16Int_AVLtree_Node
FN:71,_ZN11Int_AVLtree11getNode_numEv
FNDA:35514,_ZN11Int_AVLtree11getNode_numEv
DA:69,269748
DA:70,2382
DA:71,35514
end_of_record
SF:/home/jihwan/KeyLimePie/ossavltree/data_structure.cc
FN:34,_ZN11Int_AVLtreeC2Ev
FNDA:531,_ZN11Int_AVLtreeC2Ev
FN:36,_ZN11Int_AVLtree16getBalanceFactorEP16Int_AVLtree_Node
FNDA:78021,_ZN11Int_AVLtree16getBalanceFactorEP16Int_AVLtree_Node
FN:55,_ZN11Int_AVLtree8getDepthEP16Int_AVLtree_Node
FNDA:18303,_ZN11Int_AVLtree8getDepthEP16Int_AVLtree_Node
FN:72,_ZN11Int_AVLtree7getRankEP16Int_AVLtree_Nodei
FNDA:540,_ZN11Int_AVLtree7getRankEP16Int_AVLtree_Nodei
FN:104,_ZN11Int_AVLtree21UpdateLeftSubtreeSizeEP16Int_AVLtree_Nodei
FNDA:93687,_ZN11Int_AVLtree21UpdateLeftSubtreeSizeEP16Int_AVLtree_Nodei
FN:120,_ZN11Int_AVLtree6SearchEP16Int_AVLtree_Nodei
FNDA:618,_ZN11Int_AVLtree6SearchEP16Int_AVLtree_Nodei
FN:140,_ZN11Int_AVLtree9setHeightEP16Int_AVLtree_Node
FNDA:185484,_ZN11Int_AVLtree9setHeightEP16Int_AVLtree_Node
FN:166,_ZN11Int_AVLtree7BalanceEP16Int_AVLtree_Nodeb
FNDA:65880,_ZN11Int_AVLtree7BalanceEP16Int_AVLtree_Nodeb
FN:213,_ZN11Int_AVLtree11RightRotateEP16Int_AVLtree_Node
FNDA:30,_ZN11Int_AVLtree11RightRotateEP16Int_AVLtree_Node
FN:246,_ZN11Int_AVLtree10LeftRotateEP16Int_AVLtree_Node
FNDA:14721,_ZN11Int_AVLtree10LeftRotateEP16Int_AVLtree_Node
FN:278,_ZN11Int_AVLtree7MinimumEi
FNDA:117,_ZN11Int_AVLtree7MinimumEi
FN:290,_ZN11Int_AVLtree7MaximumEi
FNDA:123,_ZN11Int_AVLtree7MaximumEi
FN:303,_ZN11Int_AVLtree5EmptyEv
FNDA:6,_ZN11Int_AVLtree5EmptyEv
FN:315,_ZN11Int_AVLtree4SizeEv
FNDA:12,_ZN11Int_AVLtree4SizeEv
FN:320,_ZN10ds_creator9Create_DsEv
FNDA:531,_ZN10ds_creator9Create_DsEv
FN:325,_ZN22AVLtree_Int_ds_creator6Get_DsEv
FNDA:531,_ZN22AVLtree_Int_ds_creator6Get_DsEv
DA:34,531
DA:36,78021
DA:38,78021
DA:40,0
DA:42,78021
DA:43,78021
DA:45,27246
DA:47,78021
DA:49,60681
DA:51,78021
DA:52,78021
DA:55,18303
DA:57,18303
DA:59,3
DA:62,18300
DA:63,81744
DA:65,63444
DA:66,63444
DA:69,18300
DA:72,540
DA:74,540
DA:76,126
DA:78,414
DA:80,189
DA:82,0
DA:85,189
DA:89,225
DA:91,0
DA:95,225
DA:96,225
DA:97,0
DA:99,225
DA:104,93687
DA:106,93687
DA:108,17286
DA:112,76401
DA:114,336
DA:116,76401
DA:120,618
DA:122,2529
DA:124,2523
DA:126,612
DA:128,1911
DA:130,876
DA:134,1035
DA:137,6
DA:140,185484
DA:142,185484
DA:144,32037
DA:146,153447
DA:148,25509
DA:152,127938
DA:153,127938
DA:155,102597
DA:157,127938
DA:159,127779
DA:161,127938
DA:163,153447
DA:166,65880
DA:168,65880
DA:170,2583
DA:172,63297
DA:174,63297
DA:176,48573
DA:178,14724
DA:180,15
DA:182,3
DA:186,12
DA:187,12
DA:189,15
DA:191,6
DA:194,14709
DA:196,14709
DA:198,15
DA:199,15
DA:203,14694
DA:205,14709
DA:207,14697
DA:210,21
DA:213,30
DA:215,30
DA:216,30
DA:218,30
DA:219,30
DA:221,30
DA:223,9
DA:224,9
DA:226,21
DA:228,6
DA:232,15
DA:234,30
DA:235,30
DA:236,30
DA:238,0
DA:241,30
DA:242,30
DA:243,30
DA:246,14721
DA:248,14721
DA:249,14721
DA:251,14721
DA:252,14721
DA:254,14721
DA:256,1848
DA:257,1848
DA:259,12873
DA:261,18
DA:265,12855
DA:267,14721
DA:268,14721
DA:269,14721
DA:271,6429
DA:273,14721
DA:274,14721
DA:275,14721
DA:278,117
DA:280,117
DA:281,213
DA:283,96
DA:285,117
DA:287,117
DA:290,123
DA:292,123
DA:293,123
DA:294,228
DA:296,105
DA:298,123
DA:300,123
DA:303,6
DA:305,6
DA:307,3
DA:311,3
DA:315,12
DA:317,12
DA:320,531
DA:322,531
DA:325,531
DA:327,531
end_of_record
SF:/usr/include/c++/11/bits/stl_pair.h
FN:352,_ZNSt4pairIiiEC2IiRiLb1EEEOT_OT0_
FNDA:240,_ZNSt4pairIiiEC2IiRiLb1EEEOT_OT0_
FN:567,_ZSt9make_pairIiRiESt4pairINSt25__strip_reference_wrapperINSt5decayIT_E4typeEE6__typeENS2_INS3_IT0_E4typeEE6__typeEEOS4_OS9_
FNDA:240,_ZSt9make_pairIiRiESt4pairINSt25__strip_reference_wrapperINSt5decayIT_E4typeEE6__typeENS2_INS3_IT0_E4typeEE6__typeEEOS4_OS9_
DA:352,240
DA:353,240
DA:567,240
DA:572,240
end_of_record
SF:/usr/include/c++/11/iostream
end_of_record
SF:/usr/include/c++/11/bits/move.h
FN:77,_ZSt7forwardIRiEOT_RNSt16remove_referenceIS1_E4typeE
FNDA:732,_ZSt7forwardIRiEOT_RNSt16remove_referenceIS1_E4typeE
FN:77,_ZSt7forwardIiEOT_RNSt16remove_referenceIS0_E4typeE
FNDA:6756,_ZSt7forwardIiEOT_RNSt16remove_referenceIS0_E4typeE
DA:77,732
DA:78,732
DA:77,6756
DA:78,6756
end_of_record
SF:/usr/include/c++/11/bits/stl_algobase.h
FN:254,_ZSt3maxIiERKT_S2_S2_
FNDA:127938,_ZSt3maxIiERKT_S2_S2_
DA:254,127938
DA:259,127938
DA:260,94338
DA:261,33600
end_of_record
SF:/home/jihwan/KeyLimePie/ossavltree/node.h
FN:47,_ZN8Int_Node7getKey_Ev
FNDA:157611,_ZN8Int_Node7getKey_Ev
FN:58,_ZN16Int_AVLtree_Node13setLeft_childEPS_
FNDA:14937,_ZN16Int_AVLtree_Node13setLeft_childEPS_
FN:59,_ZN16Int_AVLtree_Node13getLeft_childEv
FNDA:595509,_ZN16Int_AVLtree_Node13getLeft_childEv
FN:60,_ZN16Int_AVLtree_Node14setRight_childEPS_
FNDA:44739,_ZN16Int_AVLtree_Node14setRight_childEPS_
FN:61,_ZN16Int_AVLtree_Node14getRight_childEv
FNDA:552663,_ZN16Int_AVLtree_Node14getRight_childEv
FN:62,_ZN16Int_AVLtree_Node14setParent_nodeEPS_
FNDA:54978,_ZN16Int_AVLtree_Node14setParent_nodeEPS_
FN:63,_ZN16Int_AVLtree_Node14getParent_nodeEv
FNDA:474522,_ZN16Int_AVLtree_Node14getParent_nodeEv
FN:64,_ZN16Int_AVLtree_Node20setLeft_subtree_sizeEi
FNDA:15087,_ZN16Int_AVLtree_Node20setLeft_subtree_sizeEi
FN:65,_ZN16Int_AVLtree_Node20getLeft_subtree_sizeEv
FNDA:30189,_ZN16Int_AVLtree_Node20getLeft_subtree_sizeEv
FN:66,_ZN16Int_AVLtree_Node9setHeightEi
FNDA:153447,_ZN16Int_AVLtree_Node9setHeightEi
FN:67,_ZN16Int_AVLtree_Node9getHeightEv
FNDA:318303,_ZN16Int_AVLtree_Node9getHeightEv
DA:47,157611
DA:58,14937
DA:59,595509
DA:60,44739
DA:61,552663
DA:62,54978
DA:63,474522
DA:64,15087
DA:65,30189
DA:66,153447
DA:67,318303
end_of_record
TN:KeyLimePieTest
SF:/usr/include/c++/11/bits/unique_ptr.h
FN:79,_ZNKSt14default_deleteIN7testing8internal22ParamIteratorInterfaceISt5tupleIJiiiEEEEEclEPS5_
FNDA:360,_ZNKSt14default_deleteIN7testing8internal22ParamIteratorInterfaceISt5tupleIJiiiEEEEEclEPS5_
FN:79,_ZNKSt14default_deleteIN7testing8internal22ParamIteratorInterfaceISt5tupleIJiiEEEEEclEPS5_
FNDA:144,_ZNKSt14default_deleteIN7testing8internal22ParamIteratorInterfaceISt5tupleIJiiEEEEEclEPS5_
FN:79,_ZNKSt14default_deleteIN7testing8internal19TestMetaFactoryBaseISt5tupleIJiiiEEEEEclEPS5_
FNDA:9,_ZNKSt14default_deleteIN7testing8internal19TestMetaFactoryBaseISt5tupleIJiiiEEEEEclEPS5_
FN:79,_ZNKSt14default_deleteIKSt5tupleIJiiiEEEclEPS2_
FNDA:342,_ZNKSt14default_deleteIKSt5tupleIJiiiEEEclEPS2_
FN:79,_ZNKSt14default_deleteIKSt5tupleIJiiEEEclEPS2_
FNDA:126,_ZNKSt14default_deleteIKSt5tupleIJiiEEEclEPS2_
FN:79,_ZNKSt14default_deleteIN7testing8internal19TestMetaFactoryBaseISt5tupleIJiiEEEEEclEPS5_
FNDA:9,_ZNKSt14default_deleteIN7testing8internal19TestMetaFactoryBaseISt5tupleIJiiEEEEEclEPS5_
FN:79,_ZNKSt14default_deleteINSt7__cxx1118basic_stringstreamIcSt11char_traitsIcESaIcEEEEclEPS5_
FNDA:936,_ZNKSt14default_deleteINSt7__cxx1118basic_stringstreamIcSt11char_traitsIcESaIcEEEEclEPS5_
FN:79,_ZNKSt14default_deleteINSt7__cxx1112basic_stringIcSt11char_traitsIcESaIcEEEEclEPS5_
FNDA:0,_ZNKSt14default_deleteINSt7__cxx1112basic_stringIcSt11char_traitsIcESaIcEEEEclEPS5_
FN:154,_ZNSt15__uniq_ptr_implIKSt5tupleIJiiEESt14default_deleteIS2_EEC2Ev
FNDA:144,_ZNSt15__uniq_ptr_implIKSt5tupleIJiiEESt14default_deleteIS2_EEC2Ev
FN:154,_ZNSt15__uniq_ptr_implIKSt5tupleIJiiiEESt14default_deleteIS2_EEC2Ev
FNDA:360,_ZNSt15__uniq_ptr_implIKSt5tupleIJiiiEESt14default_deleteIS2_EEC2Ev
FN:155,_ZNSt15__uniq_ptr_implIN7testing8internal19TestMetaFactoryBaseISt5tupleIJiiiEEEESt14default_deleteIS5_EEC2EPS5_
FNDA:9,_ZNSt15__uniq_ptr_implIN7testing8internal19TestMetaFactoryBaseISt5tupleIJiiiEEEESt14default_deleteIS5_EEC2EPS5_
FN:155,_ZNSt15__uniq_ptr_implIN7testing8internal19TestMetaFactoryBaseISt5tupleIJiiEEEESt14default_deleteIS5_EEC2EPS5_
FNDA:9,_ZNSt15__uniq_ptr_implIN7testing8internal19TestMetaFactoryBaseISt5tupleIJiiEEEESt14default_deleteIS5_EEC2EPS5_
FN:155,_ZNSt15__uniq_ptr_implIN7testing8internal22ParamIteratorInterfaceISt5tupleIJiiiEEEESt14default_deleteIS5_EEC2EPS5_
FNDA:360,_ZNSt15__uniq_ptr_implIN7testing8internal22ParamIteratorInterfaceISt5tupleIJiiiEEEESt14default_deleteIS5_EEC2EPS5_
FN:155,_ZNSt15__uniq_ptr_implIN7testing8internal22ParamIteratorInterfaceISt5tupleIJiiEEEESt14default_deleteIS5_EEC2EPS5_
FNDA:144,_ZNSt15__uniq_ptr_implIN7testing8internal22ParamIteratorInterfaceISt5tupleIJiiEEEESt14default_deleteIS5_EEC2EPS5_
FN:172,_ZNSt15__uniq_ptr_implIN7testing8internal22ParamIteratorInterfaceISt5tupleIJiiEEEESt14default_deleteIS5_EE6_M_ptrEv
FNDA:288,_ZNSt15__uniq_ptr_implIN7testing8internal22ParamIteratorInterfaceISt5tupleIJiiEEEESt14default_deleteIS5_EE6_M_ptrEv
FN:172,_ZNSt15__uniq_ptr_implIN7testing8internal22ParamIteratorInterfaceISt5tupleIJiiiEEEESt14default_deleteIS5_EE6_M_ptrEv
FNDA:720,_ZNSt15__uniq_ptr_implIN7testing8internal22ParamIteratorInterfaceISt5tupleIJiiiEEEESt14default_deleteIS5_EE6_M_ptrEv
FN:172,_ZNSt15__uniq_ptr_implIKSt5tupleIJiiiEESt14default_deleteIS2_EE6_M_ptrEv
FNDA:1728,_ZNSt15__uniq_ptr_implIKSt5tupleIJiiiEESt14default_deleteIS2_EE6_M_ptrEv
FN:172,_ZNSt15__uniq_ptr_implIN7testing8internal19TestMetaFactoryBaseISt5tupleIJiiEEEESt14default_deleteIS5_EE6_M_ptrEv
FNDA:18,_ZNSt15__uniq_ptr_implIN7testing8internal19TestMetaFactoryBaseISt5tupleIJiiEEEESt14default_deleteIS5_EE6_M_ptrEv
FN:172,_ZNSt15__uniq_ptr_implIKSt5tupleIJiiEESt14default_deleteIS2_EE6_M_ptrEv
FNDA:648,_ZNSt15__uniq_ptr_implIKSt5tupleIJiiEESt14default_deleteIS2_EE6_M_ptrEv
FN:172,_ZNSt15__uniq_ptr_implIN7testing8internal19TestMetaFactoryBaseISt5tupleIJiiiEEEESt14default_deleteIS5_EE6_M_ptrEv
FNDA:18,_ZNSt15__uniq_ptr_implIN7testing8internal19TestMetaFactoryBaseISt5tupleIJiiiEEEESt14default_deleteIS5_EE6_M_ptrEv
FN:172,_ZNSt15__uniq_ptr_implINSt7__cxx1118basic_stringstreamIcSt11char_traitsIcESaIcEEESt14default_deleteIS5_EE6_M_ptrEv
FNDA:936,_ZNSt15__uniq_ptr_implINSt7__cxx1118basic_stringstreamIcSt11char_traitsIcESaIcEEESt14default_deleteIS5_EE6_M_ptrEv
FN:172,_ZNSt15__uniq_ptr_implINSt7__cxx1112basic_stringIcSt11char_traitsIcESaIcEEESt14default_deleteIS5_EE6_M_ptrEv
FNDA:1140,_ZNSt15__uniq_ptr_implINSt7__cxx1112basic_stringIcSt11char_traitsIcESaIcEEESt14default_deleteIS5_EE6_M_ptrEv
FN:173,_ZNKSt15__uniq_ptr_implIN7testing8internal22ParamIteratorInterfaceISt5tupleIJiiEEEESt14default_deleteIS5_EE6_M_ptrEv
FNDA:1044,_ZNKSt15__uniq_ptr_implIN7testing8internal22ParamIteratorInterfaceISt5tupleIJiiEEEESt14default_deleteIS5_EE6_M_ptrEv
FN:173,_ZNKSt15__uniq_ptr_implIN7testing8internal22ParamIteratorInterfaceISt5tupleIJiiiEEEESt14default_deleteIS5_EE6_M_ptrEv
FNDA:2772,_ZNKSt15__uniq_ptr_implIN7testing8internal22ParamIteratorInterfaceISt5tupleIJiiiEEEESt14default_deleteIS5_EE6_M_ptrEv
FN:173,_ZNKSt15__uniq_ptr_implINSt7__cxx1118basic_stringstreamIcSt11char_traitsIcESaIcEEESt14default_deleteIS5_EE6_M_ptrEv
FNDA:1872,_ZNKSt15__uniq_ptr_implINSt7__cxx1118basic_stringstreamIcSt11char_traitsIcESaIcEEESt14default_deleteIS5_EE6_M_ptrEv
FN:173,_ZNKSt15__uniq_ptr_implIN7testing8internal19TestMetaFactoryBaseISt5tupleIJiiEEEESt14default_deleteIS5_EE6_M_ptrEv
FNDA:126,_ZNKSt15__uniq_ptr_implIN7testing8internal19TestMetaFactoryBaseISt5tupleIJiiEEEESt14default_deleteIS5_EE6_M_ptrEv
FN:173,_ZNKSt15__uniq_ptr_implIKSt5tupleIJiiiEESt14default_deleteIS2_EE6_M_ptrEv
FNDA:2052,_ZNKSt15__uniq_ptr_implIKSt5tupleIJiiiEESt14default_deleteIS2_EE6_M_ptrEv
FN:173,_ZNKSt15__uniq_ptr_implIKSt5tupleIJiiEESt14default_deleteIS2_EE6_M_ptrEv
FNDA:756,_ZNKSt15__uniq_ptr_implIKSt5tupleIJiiEESt14default_deleteIS2_EE6_M_ptrEv
FN:173,_ZNKSt15__uniq_ptr_implINSt7__cxx1112basic_stringIcSt11char_traitsIcESaIcEEESt14default_deleteIS5_EE6_M_ptrEv
FNDA:0,_ZNKSt15__uniq_ptr_implINSt7__cxx1112basic_stringIcSt11char_traitsIcESaIcEEESt14default_deleteIS5_EE6_M_ptrEv
FN:173,_ZNKSt15__uniq_ptr_implIN7testing8internal19TestMetaFactoryBaseISt5tupleIJiiiEEEESt14default_deleteIS5_EE6_M_ptrEv
FNDA:342,_ZNKSt15__uniq_ptr_implIN7testing8internal19TestMetaFactoryBaseISt5tupleIJiiiEEEESt14default_deleteIS5_EE6_M_ptrEv
FN:174,_ZNSt15__uniq_ptr_implIN7testing8internal19TestMetaFactoryBaseISt5tupleIJiiiEEEESt14default_deleteIS5_EE10_M_deleterEv
FNDA:9,_ZNSt15__uniq_ptr_implIN7testing8internal19TestMetaFactoryBaseISt5tupleIJiiiEEEESt14default_deleteIS5_EE10_M_deleterEv
FN:174,_ZNSt15__uniq_ptr_implIN7testing8internal19TestMetaFactoryBaseISt5tupleIJiiEEEESt14default_deleteIS5_EE10_M_deleterEv
FNDA:9,_ZNSt15__uniq_ptr_implIN7testing8internal19TestMetaFactoryBaseISt5tupleIJiiEEEESt14default_deleteIS5_EE10_M_deleterEv
FN:174,_ZNSt15__uniq_ptr_implINSt7__cxx1112basic_stringIcSt11char_traitsIcESaIcEEESt14default_deleteIS5_EE10_M_deleterEv
FNDA:0,_ZNSt15__uniq_ptr_implINSt7__cxx1112basic_stringIcSt11char_traitsIcESaIcEEESt14default_deleteIS5_EE10_M_deleterEv
FN:174,_ZNSt15__uniq_ptr_implIN7testing8internal22ParamIteratorInterfaceISt5tupleIJiiEEEESt14default_deleteIS5_EE10_M_deleterEv
FNDA:144,_ZNSt15__uniq_ptr_implIN7testing8internal22ParamIteratorInterfaceISt5tupleIJiiEEEESt14default_deleteIS5_EE10_M_deleterEv
FN:174,_ZNSt15__uniq_ptr_implINSt7__cxx1118basic_stringstreamIcSt11char_traitsIcESaIcEEESt14default_deleteIS5_EE10_M_deleterEv
FNDA:936,_ZNSt15__uniq_ptr_implINSt7__cxx1118basic_stringstreamIcSt11char_traitsIcESaIcEEESt14default_deleteIS5_EE10_M_deleterEv
FN:174,_ZNSt15__uniq_ptr_implIN7testing8internal22ParamIteratorInterfaceISt5tupleIJiiiEEEESt14default_deleteIS5_EE10_M_deleterEv
FNDA:360,_ZNSt15__uniq_ptr_implIN7testing8internal22ParamIteratorInterfaceISt5tupleIJiiiEEEESt14default_deleteIS5_EE10_M_deleterEv
FN:174,_ZNSt15__uniq_ptr_implIKSt5tupleIJiiiEESt14default_deleteIS2_EE10_M_deleterEv
FNDA:342,_ZNSt15__uniq_ptr_implIKSt5tupleIJiiiEESt14default_deleteIS2_EE10_M_deleterEv
FN:174,_ZNSt15__uniq_ptr_implIKSt5tupleIJiiEESt14default_deleteIS2_EE10_M_deleterEv
FNDA:126,_ZNSt15__uniq_ptr_implIKSt5tupleIJiiEESt14default_deleteIS2_EE10_M_deleterEv
FN:177,_ZNSt15__uniq_ptr_implIKSt5tupleIJiiiEESt14default_deleteIS2_EE5resetEPS2_
FNDA:684,_ZNSt15__uniq_ptr_implIKSt5tupleIJiiiEESt14default_deleteIS2_EE5resetEPS2_
FN:177,_ZNSt15__uniq_ptr_implIKSt5tupleIJiiEESt14default_deleteIS2_EE5resetEPS2_
FNDA:252,_ZNSt15__uniq_ptr_implIKSt5tupleIJiiEESt14default_deleteIS2_EE5resetEPS2_
FN:269,_ZNSt10unique_ptrIKSt5tupleIJiiEESt14default_deleteIS2_EEC2IS4_vEEv
FNDA:144,_ZNSt10unique_ptrIKSt5tupleIJiiEESt14default_deleteIS2_EEC2IS4_vEEv
FN:269,_ZNSt10unique_ptrIKSt5tupleIJiiiEESt14default_deleteIS2_EEC2IS4_vEEv
FNDA:360,_ZNSt10unique_ptrIKSt5tupleIJiiiEESt14default_deleteIS2_EEC2IS4_vEEv
FN:281,_ZNSt10unique_ptrIN7testing8internal19TestMetaFactoryBaseISt5tupleIJiiiEEEESt14default_deleteIS5_EEC2IS7_vEEPS5_
FNDA:9,_ZNSt10unique_ptrIN7testing8internal19TestMetaFactoryBaseISt5tupleIJiiiEEEESt14default_deleteIS5_EEC2IS7_vEEPS5_
FN:281,_ZNSt10unique_ptrIN7testing8internal22ParamIteratorInterfaceISt5tupleIJiiEEEESt14default_deleteIS5_EEC2IS7_vEEPS5_
FNDA:144,_ZNSt10unique_ptrIN7testing8internal22ParamIteratorInterfaceISt5tupleIJiiEEEESt14default_deleteIS5_EEC2IS7_vEEPS5_
FN:281,_ZNSt10unique_ptrIN7testing8internal22ParamIteratorInterfaceISt5tupleIJiiiEEEESt14default_deleteIS5_EEC2IS7_vEEPS5_
FNDA:360,_ZNSt10unique_ptrIN7testing8internal22ParamIteratorInterfaceISt5tupleIJiiiEEEESt14default_deleteIS5_EEC2IS7_vEEPS5_
FN:281,_ZNSt10unique_ptrIN7testing8internal19TestMetaFactoryBaseISt5tupleIJiiEEEESt14default_deleteIS5_EEC2IS7_vEEPS5_
FNDA:9,_ZNSt10unique_ptrIN7testing8internal19TestMetaFactoryBaseISt5tupleIJiiEEEESt14default_deleteIS5_EEC2IS7_vEEPS5_
FN:355,_ZNSt10unique_ptrINSt7__cxx1118basic_stringstreamIcSt11char_traitsIcESaIcEEESt14default_deleteIS5_EED2Ev
FNDA:936,_ZNSt10unique_ptrINSt7__cxx1118basic_stringstreamIcSt11char_traitsIcESaIcEEESt14default_deleteIS5_EED2Ev
FN:355,_ZNSt10unique_ptrINSt7__cxx1112basic_stringIcSt11char_traitsIcESaIcEEESt14default_deleteIS5_EED2Ev
FNDA:1140,_ZNSt10unique_ptrINSt7__cxx1112basic_stringIcSt11char_traitsIcESaIcEEESt14default_deleteIS5_EED2Ev
FN:355,_ZNSt10unique_ptrIN7testing8internal19TestMetaFactoryBaseISt5tupleIJiiiEEEESt14default_deleteIS5_EED2Ev
FNDA:9,_ZNSt10unique_ptrIN7testing8internal19TestMetaFactoryBaseISt5tupleIJiiiEEEESt14default_deleteIS5_EED2Ev
FN:355,_ZNSt10unique_ptrIN7testing8internal19TestMetaFactoryBaseISt5tupleIJiiEEEESt14default_deleteIS5_EED2Ev
FNDA:9,_ZNSt10unique_ptrIN7testing8internal19TestMetaFactoryBaseISt5tupleIJiiEEEESt14default_deleteIS5_EED2Ev
FN:355,_ZNSt10unique_ptrIN7testing8internal22ParamIteratorInterfaceISt5tupleIJiiiEEEESt14default_deleteIS5_EED2Ev
FNDA:360,_ZNSt10unique_ptrIN7testing8internal22ParamIteratorInterfaceISt5tupleIJiiiEEEESt14default_deleteIS5_EED2Ev
FN:355,_ZNSt10unique_ptrIN7testing8internal22ParamIteratorInterfaceISt5tupleIJiiEEEESt14default_deleteIS5_EED2Ev
FNDA:144,_ZNSt10unique_ptrIN7testing8internal22ParamIteratorInterfaceISt5tupleIJiiEEEESt14default_deleteIS5_EED2Ev
FN:355,_ZNSt10unique_ptrIKSt5tupleIJiiiEESt14default_deleteIS2_EED2Ev
FNDA:360,_ZNSt10unique_ptrIKSt5tupleIJiiiEESt14default_deleteIS2_EED2Ev
FN:355,_ZNSt10unique_ptrIKSt5tupleIJiiEESt14default_deleteIS2_EED2Ev
FNDA:144,_ZNSt10unique_ptrIKSt5tupleIJiiEESt14default_deleteIS2_EED2Ev
FN:405,_ZNKSt10unique_ptrIN7testing8internal22ParamIteratorInterfaceISt5tupleIJiiEEEESt14default_deleteIS5_EEdeEv
FNDA:135,_ZNKSt10unique_ptrIN7testing8internal22ParamIteratorInterfaceISt5tupleIJiiEEEESt14default_deleteIS5_EEdeEv
FN:405,_ZNKSt10unique_ptrIN7testing8internal22ParamIteratorInterfaceISt5tupleIJiiiEEEESt14default_deleteIS5_EEdeEv
FNDA:351,_ZNKSt10unique_ptrIN7testing8internal22ParamIteratorInterfaceISt5tupleIJiiiEEEESt14default_deleteIS5_EEdeEv
FN:405,_ZNKSt10unique_ptrINSt7__cxx1118basic_stringstreamIcSt11char_traitsIcESaIcEEESt14default_deleteIS5_EEdeEv
FNDA:1872,_ZNKSt10unique_ptrINSt7__cxx1118basic_stringstreamIcSt11char_traitsIcESaIcEEESt14default_deleteIS5_EEdeEv
FN:413,_ZNKSt10unique_ptrIN7testing8internal19TestMetaFactoryBaseISt5tupleIJiiEEEESt14default_deleteIS5_EEptEv
FNDA:126,_ZNKSt10unique_ptrIN7testing8internal19TestMetaFactoryBaseISt5tupleIJiiEEEESt14default_deleteIS5_EEptEv
FN:413,_ZNKSt10unique_ptrIN7testing8internal22ParamIteratorInterfaceISt5tupleIJiiiEEEESt14default_deleteIS5_EEptEv
FNDA:1719,_ZNKSt10unique_ptrIN7testing8internal22ParamIteratorInterfaceISt5tupleIJiiiEEEESt14default_deleteIS5_EEptEv
FN:413,_ZNKSt10unique_ptrINSt7__cxx1112basic_stringIcSt11char_traitsIcESaIcEEESt14default_deleteIS5_EEptEv
FNDA:0,_ZNKSt10unique_ptrINSt7__cxx1112basic_stringIcSt11char_traitsIcESaIcEEESt14default_deleteIS5_EEptEv
FN:413,_ZNKSt10unique_ptrIN7testing8internal22ParamIteratorInterfaceISt5tupleIJiiEEEESt14default_deleteIS5_EEptEv
FNDA:639,_ZNKSt10unique_ptrIN7testing8internal22ParamIteratorInterfaceISt5tupleIJiiEEEESt14default_deleteIS5_EEptEv
FN:413,_ZNKSt10unique_ptrIN7testing8internal19TestMetaFactoryBaseISt5tupleIJiiiEEEESt14default_deleteIS5_EEptEv
FNDA:342,_ZNKSt10unique_ptrIN7testing8internal19TestMetaFactoryBaseISt5tupleIJiiiEEEESt14default_deleteIS5_EEptEv
FN:421,_ZNKSt10unique_ptrIKSt5tupleIJiiEESt14default_deleteIS2_EE3getEv
FNDA:756,_ZNKSt10unique_ptrIKSt5tupleIJiiEESt14default_deleteIS2_EE3getEv
FN:421,_ZNKSt10unique_ptrINSt7__cxx1112basic_stringIcSt11char_traitsIcESaIcEEESt14default_deleteIS5_EE3getEv
FNDA:0,_ZNKSt10unique_ptrINSt7__cxx1112basic_stringIcSt11char_traitsIcESaIcEEESt14default_deleteIS5_EE3getEv
FN:421,_ZNKSt10unique_ptrINSt7__cxx1118basic_stringstreamIcSt11char_traitsIcESaIcEEESt14default_deleteIS5_EE3getEv
FNDA:1872,_ZNKSt10unique_ptrINSt7__cxx1118basic_stringstreamIcSt11char_traitsIcESaIcEEESt14default_deleteIS5_EE3getEv
FN:421,_ZNKSt10unique_ptrIN7testing8internal22ParamIteratorInterfaceISt5tupleIJiiiEEEESt14default_deleteIS5_EE3getEv
FNDA:2772,_ZNKSt10unique_ptrIN7testing8internal22ParamIteratorInterfaceISt5tupleIJiiiEEEESt14default_deleteIS5_EE3getEv
FN:421,_ZNKSt10unique_ptrIKSt5tupleIJiiiEESt14default_deleteIS2_EE3getEv
FNDA:2052,_ZNKSt10unique_ptrIKSt5tupleIJiiiEESt14default_deleteIS2_EE3getEv
FN:421,_ZNKSt10unique_ptrIN7testing8internal22ParamIteratorInterfaceISt5tupleIJiiEEEESt14default_deleteIS5_EE3getEv
FNDA:1044,_ZNKSt10unique_ptrIN7testing8internal22ParamIteratorInterfaceISt5tupleIJiiEEEESt14default_deleteIS5_EE3getEv
FN:421,_ZNKSt10unique_ptrIN7testing8internal19TestMetaFactoryBaseISt5tupleIJiiiEEEESt14default_deleteIS5_EE3getEv
FNDA:342,_ZNKSt10unique_ptrIN7testing8internal19TestMetaFactoryBaseISt5tupleIJiiiEEEESt14default_deleteIS5_EE3getEv
FN:421,_ZNKSt10unique_ptrIN7testing8internal19TestMetaFactoryBaseISt5tupleIJiiEEEESt14default_deleteIS5_EE3getEv
FNDA:126,_ZNKSt10unique_ptrIN7testing8internal19TestMetaFactoryBaseISt5tupleIJiiEEEESt14default_deleteIS5_EE3getEv
FN:426,_ZNSt10unique_ptrINSt7__cxx1112basic_stringIcSt11char_traitsIcESaIcEEESt14default_deleteIS5_EE11get_deleterEv
FNDA:0,_ZNSt10unique_ptrINSt7__cxx1112basic_stringIcSt11char_traitsIcESaIcEEESt14default_deleteIS5_EE11get_deleterEv
FN:426,_ZNSt10unique_ptrIKSt5tupleIJiiEESt14default_deleteIS2_EE11get_deleterEv
FNDA:0,_ZNSt10unique_ptrIKSt5tupleIJiiEESt14default_deleteIS2_EE11get_deleterEv
FN:426,_ZNSt10unique_ptrIKSt5tupleIJiiiEESt14default_deleteIS2_EE11get_deleterEv
FNDA:0,_ZNSt10unique_ptrIKSt5tupleIJiiiEESt14default_deleteIS2_EE11get_deleterEv
FN:426,_ZNSt10unique_ptrINSt7__cxx1118basic_stringstreamIcSt11char_traitsIcESaIcEEESt14default_deleteIS5_EE11get_deleterEv
FNDA:936,_ZNSt10unique_ptrINSt7__cxx1118basic_stringstreamIcSt11char_traitsIcESaIcEEESt14default_deleteIS5_EE11get_deleterEv
FN:426,_ZNSt10unique_ptrIN7testing8internal22ParamIteratorInterfaceISt5tupleIJiiiEEEESt14default_deleteIS5_EE11get_deleterEv
FNDA:360,_ZNSt10unique_ptrIN7testing8internal22ParamIteratorInterfaceISt5tupleIJiiiEEEESt14default_deleteIS5_EE11get_deleterEv
FN:426,_ZNSt10unique_ptrIN7testing8internal22ParamIteratorInterfaceISt5tupleIJiiEEEESt14default_deleteIS5_EE11get_deleterEv
FNDA:144,_ZNSt10unique_ptrIN7testing8internal22ParamIteratorInterfaceISt5tupleIJiiEEEESt14default_deleteIS5_EE11get_deleterEv
FN:426,_ZNSt10unique_ptrIN7testing8internal19TestMetaFactoryBaseISt5tupleIJiiEEEESt14default_deleteIS5_EE11get_deleterEv
FNDA:9,_ZNSt10unique_ptrIN7testing8internal19TestMetaFactoryBaseISt5tupleIJiiEEEESt14default_deleteIS5_EE11get_deleterEv
FN:426,_ZNSt10unique_ptrIN7testing8internal19TestMetaFactoryBaseISt5tupleIJiiiEEEESt14default_deleteIS5_EE11get_deleterEv
FNDA:9,_ZNSt10unique_ptrIN7testing8internal19TestMetaFactoryBaseISt5tupleIJiiiEEEESt14default_deleteIS5_EE11get_deleterEv
FN:452,_ZNSt10unique_ptrIKSt5tupleIJiiEESt14default_deleteIS2_EE5resetEPS2_
FNDA:252,_ZNSt10unique_ptrIKSt5tupleIJiiEESt14default_deleteIS2_EE5resetEPS2_
FN:452,_ZNSt10unique_ptrIKSt5tupleIJiiiEESt14default_deleteIS2_EE5resetEPS2_
FNDA:684,_ZNSt10unique_ptrIKSt5tupleIJiiiEESt14default_deleteIS2_EE5resetEPS2_
DA:79,126
DA:85,126
DA:86,126
DA:79,342
DA:85,342
DA:86,342
DA:79,360
DA:85,360
DA:86,360
DA:79,144
DA:85,144
DA:86,144
DA:79,9
DA:85,9
DA:86,9
DA:79,9
DA:85,9
DA:86,9
DA:79,0
DA:85,0
DA:86,0
DA:79,936
DA:85,936
DA:86,936
DA:154,144
DA:154,360
DA:155,360
DA:155,144
DA:155,9
DA:155,9
DA:172,648
DA:172,1728
DA:172,720
DA:172,288
DA:172,18
DA:172,18
DA:172,1140
DA:172,936
DA:173,2052
DA:173,756
DA:173,2772
DA:173,1044
DA:173,342
DA:173,126
DA:173,1872
DA:173,0
DA:174,126
DA:174,342
DA:174,360
DA:174,144
DA:174,9
DA:174,9
DA:174,0
DA:174,936
DA:177,684
DA:179,684
DA:180,684
DA:181,684
DA:182,342
DA:183,684
DA:177,252
DA:179,252
DA:180,252
DA:181,252
DA:182,126
DA:183,252
DA:269,144
DA:270,144
DA:271,144
DA:269,360
DA:270,360
DA:271,360
DA:281,360
DA:282,360
DA:283,360
DA:281,144
DA:282,144
DA:283,144
DA:281,9
DA:282,9
DA:283,9
DA:281,9
DA:282,9
DA:283,9
DA:355,144
DA:359,144
DA:360,144
DA:361,0
DA:362,144
DA:363,144
DA:355,360
DA:359,360
DA:360,360
DA:361,0
DA:362,360
DA:363,360
DA:355,360
DA:359,360
DA:360,360
DA:361,360
DA:362,360
DA:363,360
DA:355,144
DA:359,144
DA:360,144
DA:361,144
DA:362,144
DA:363,144
DA:355,9
DA:359,9
DA:360,9
DA:361,9
DA:362,9
DA:363,9
DA:355,9
DA:359,9
DA:360,9
DA:361,9
DA:362,9
DA:363,9
DA:355,1140
DA:359,1140
DA:360,1140
DA:361,0
DA:362,1140
DA:363,1140
DA:355,936
DA:359,936
DA:360,936
DA:361,936
DA:362,936
DA:363,936
DA:405,351
DA:407,351
DA:408,351
DA:405,135
DA:407,135
DA:408,135
DA:405,1872
DA:407,1872
DA:408,1872
DA:413,1719
DA:416,1719
DA:413,639
DA:416,639
DA:413,342
DA:416,342
DA:413,126
DA:416,126
DA:413,0
DA:416,0
DA:421,2052
DA:422,2052
DA:421,756
DA:422,756
DA:421,2772
DA:422,2772
DA:421,1044
DA:422,1044
DA:421,342
DA:422,342
DA:421,126
DA:422,126
DA:421,1872
DA:422,1872
DA:421,0
DA:422,0
DA:426,0
DA:427,0
DA:426,0
DA:427,0
DA:426,360
DA:427,360
DA:426,144
DA:427,144
DA:426,9
DA:427,9
DA:426,9
DA:427,9
DA:426,0
DA:427,0
DA:426,936
DA:427,936
DA:452,684
DA:456,684
DA:457,684
DA:452,252
DA:456,252
DA:457,252
end_of_record
SF:/usr/include/c++/11/bits/alloc_traits.h
FN:463,_ZNSt16allocator_traitsISaISt13_Rb_tree_nodeINSt7__cxx1112basic_stringIcSt11char_traitsIcESaIcEEEEEE8allocateERS8_m
FNDA:468,_ZNSt16allocator_traitsISaISt13_Rb_tree_nodeINSt7__cxx1112basic_stringIcSt11char_traitsIcESaIcEEEEEE8allocateERS8_m
FN:463,_ZNSt16allocator_traitsISaIN7testing8internal26ParameterizedTestSuiteInfoI21RXRotateInsertFixtureE17InstantiationInfoEEE8allocateERS6_m
FNDA:3,_ZNSt16allocator_traitsISaIN7testing8internal26ParameterizedTestSuiteInfoI21RXRotateInsertFixtureE17InstantiationInfoEEE8allocateERS6_m
FN:463,_ZNSt16allocator_traitsISaISt5tupleIJiiiEEEE8allocateERS2_m
FNDA:18,_ZNSt16allocator_traitsISaISt5tupleIJiiiEEEE8allocateERS2_m
FN:463,_ZNSt16allocator_traitsISaIN7testing8internal26ParameterizedTestSuiteInfoI14MinimumFixtureE17InstantiationInfoEEE8allocateERS6_m
FNDA:3,_ZNSt16allocator_traitsISaIN7testing8internal26ParameterizedTestSuiteInfoI14MinimumFixtureE17InstantiationInfoEEE8allocateERS6_m
FN:463,_ZNSt16allocator_traitsISaIN7testing8internal26ParameterizedTestSuiteInfoI14MaximumFixtureE17InstantiationInfoEEE8allocateERS6_m
FNDA:3,_ZNSt16allocator_traitsISaIN7testing8internal26ParameterizedTestSuiteInfoI14MaximumFixtureE17InstantiationInfoEEE8allocateERS6_m
FN:463,_ZNSt16allocator_traitsISaIN7testing8internal26ParameterizedTestSuiteInfoI11RankFixtureE17InstantiationInfoEEE8allocateERS6_m
FNDA:3,_ZNSt16allocator_traitsISaIN7testing8internal26ParameterizedTestSuiteInfoI11RankFixtureE17InstantiationInfoEEE8allocateERS6_m
FN:463,_ZNSt16allocator_traitsISaIN7testing8internal26ParameterizedTestSuiteInfoI11FindFixtureE17InstantiationInfoEEE8allocateERS6_m
FNDA:3,_ZNSt16allocator_traitsISaIN7testing8internal26ParameterizedTestSuiteInfoI11FindFixtureE17InstantiationInfoEEE8allocateERS6_m
FN:463,_ZNSt16allocator_traitsISaISt10shared_ptrIN7testing8internal26ParameterizedTestSuiteInfoI21LXRotateInsertFixtureE8TestInfoEEEE8allocateERS8_m
FNDA:3,_ZNSt16allocator_traitsISaISt10shared_ptrIN7testing8internal26ParameterizedTestSuiteInfoI21LXRotateInsertFixtureE8TestInfoEEEE8allocateERS8_m
FN:463,_ZNSt16allocator_traitsISaISt10shared_ptrIN7testing8internal26ParameterizedTestSuiteInfoI21RXRotateInsertFixtureE8TestInfoEEEE8allocateERS8_m
FNDA:3,_ZNSt16allocator_traitsISaISt10shared_ptrIN7testing8internal26ParameterizedTestSuiteInfoI21RXRotateInsertFixtureE8TestInfoEEEE8allocateERS8_m
FN:463,_ZNSt16allocator_traitsISaISt10shared_ptrIN7testing8internal26ParameterizedTestSuiteInfoI14MinimumFixtureE8TestInfoEEEE8allocateERS8_m
FNDA:3,_ZNSt16allocator_traitsISaISt10shared_ptrIN7testing8internal26ParameterizedTestSuiteInfoI14MinimumFixtureE8TestInfoEEEE8allocateERS8_m
FN:463,_ZNSt16allocator_traitsISaISt10shared_ptrIN7testing8internal26ParameterizedTestSuiteInfoI14MaximumFixtureE8TestInfoEEEE8allocateERS8_m
FNDA:3,_ZNSt16allocator_traitsISaISt10shared_ptrIN7testing8internal26ParameterizedTestSuiteInfoI14MaximumFixtureE8TestInfoEEEE8allocateERS8_m
FN:463,_ZNSt16allocator_traitsISaISt10shared_ptrIN7testing8internal26ParameterizedTestSuiteInfoI11RankFixtureE8TestInfoEEEE8allocateERS8_m
FNDA:3,_ZNSt16allocator_traitsISaISt10shared_ptrIN7testing8internal26ParameterizedTestSuiteInfoI11RankFixtureE8TestInfoEEEE8allocateERS8_m
FN:463,_ZNSt16allocator_traitsISaISt10shared_ptrIN7testing8internal26ParameterizedTestSuiteInfoI11FindFixtureE8TestInfoEEEE8allocateERS8_m
FNDA:3,_ZNSt16allocator_traitsISaISt10shared_ptrIN7testing8internal26ParameterizedTestSuiteInfoI11FindFixtureE8TestInfoEEEE8allocateERS8_m
FN:463,_ZNSt16allocator_traitsISaIN7testing8internal26ParameterizedTestSuiteInfoI21LXRotateInsertFixtureE17InstantiationInfoEEE8allocateERS6_m
FNDA:3,_ZNSt16allocator_traitsISaIN7testing8internal26ParameterizedTestSuiteInfoI21LXRotateInsertFixtureE17InstantiationInfoEEE8allocateERS6_m
FN:463,_ZNSt16allocator_traitsISaIPN7testing8internal30ParameterizedTestSuiteInfoBaseEEE8allocateERS4_m
FNDA:12,_ZNSt16allocator_traitsISaIPN7testing8internal30ParameterizedTestSuiteInfoBaseEEE8allocateERS4_m
FN:463,_ZNSt16allocator_traitsISaISt5tupleIJiiEEEE8allocateERS2_m
FNDA:18,_ZNSt16allocator_traitsISaISt5tupleIJiiEEEE8allocateERS2_m
FN:495,_ZNSt16allocator_traitsISaIN7testing8internal26ParameterizedTestSuiteInfoI11FindFixtureE17InstantiationInfoEEE10deallocateERS6_PS5_m
FNDA:3,_ZNSt16allocator_traitsISaIN7testing8internal26ParameterizedTestSuiteInfoI11FindFixtureE17InstantiationInfoEEE10deallocateERS6_PS5_m
FN:495,_ZNSt16allocator_traitsISaISt10shared_ptrIN7testing8internal26ParameterizedTestSuiteInfoI11FindFixtureE8TestInfoEEEE10deallocateERS8_PS7_m
FNDA:3,_ZNSt16allocator_traitsISaISt10shared_ptrIN7testing8internal26ParameterizedTestSuiteInfoI11FindFixtureE8TestInfoEEEE10deallocateERS8_PS7_m
FN:495,_ZNSt16allocator_traitsISaIN7testing8internal26ParameterizedTestSuiteInfoI11RankFixtureE17InstantiationInfoEEE10deallocateERS6_PS5_m
FNDA:3,_ZNSt16allocator_traitsISaIN7testing8internal26ParameterizedTestSuiteInfoI11RankFixtureE17InstantiationInfoEEE10deallocateERS6_PS5_m
FN:495,_ZNSt16allocator_traitsISaIN7testing8internal26ParameterizedTestSuiteInfoI14MaximumFixtureE17InstantiationInfoEEE10deallocateERS6_PS5_m
FNDA:3,_ZNSt16allocator_traitsISaIN7testing8internal26ParameterizedTestSuiteInfoI14MaximumFixtureE17InstantiationInfoEEE10deallocateERS6_PS5_m
FN:495,_ZNSt16allocator_traitsISaISt10shared_ptrIN7testing8internal26ParameterizedTestSuiteInfoI14MaximumFixtureE8TestInfoEEEE10deallocateERS8_PS7_m
FNDA:3,_ZNSt16allocator_traitsISaISt10shared_ptrIN7testing8internal26ParameterizedTestSuiteInfoI14MaximumFixtureE8TestInfoEEEE10deallocateERS8_PS7_m
FN:495,_ZNSt16allocator_traitsISaIN7testing8internal26ParameterizedTestSuiteInfoI14MinimumFixtureE17InstantiationInfoEEE10deallocateERS6_PS5_m
FNDA:3,_ZNSt16allocator_traitsISaIN7testing8internal26ParameterizedTestSuiteInfoI14MinimumFixtureE17InstantiationInfoEEE10deallocateERS6_PS5_m
FN:495,_ZNSt16allocator_traitsISaISt10shared_ptrIN7testing8internal26ParameterizedTestSuiteInfoI14MinimumFixtureE8TestInfoEEEE10deallocateERS8_PS7_m
FNDA:3,_ZNSt16allocator_traitsISaISt10shared_ptrIN7testing8internal26ParameterizedTestSuiteInfoI14MinimumFixtureE8TestInfoEEEE10deallocateERS8_PS7_m
FN:495,_ZNSt16allocator_traitsISaISt5tupleIJiiiEEEE10deallocateERS2_PS1_m
FNDA:18,_ZNSt16allocator_traitsISaISt5tupleIJiiiEEEE10deallocateERS2_PS1_m
FN:495,_ZNSt16allocator_traitsISaIN7testing8internal26ParameterizedTestSuiteInfoI21RXRotateInsertFixtureE17InstantiationInfoEEE10deallocateERS6_PS5_m
FNDA:3,_ZNSt16allocator_traitsISaIN7testing8internal26ParameterizedTestSuiteInfoI21RXRotateInsertFixtureE17InstantiationInfoEEE10deallocateERS6_PS5_m
FN:495,_ZNSt16allocator_traitsISaISt10shared_ptrIN7testing8internal26ParameterizedTestSuiteInfoI21RXRotateInsertFixtureE8TestInfoEEEE10deallocateERS8_PS7_m
FNDA:3,_ZNSt16allocator_traitsISaISt10shared_ptrIN7testing8internal26ParameterizedTestSuiteInfoI21RXRotateInsertFixtureE8TestInfoEEEE10deallocateERS8_PS7_m
FN:495,_ZNSt16allocator_traitsISaIN7testing8internal26ParameterizedTestSuiteInfoI21LXRotateInsertFixtureE17InstantiationInfoEEE10deallocateERS6_PS5_m
FNDA:3,_ZNSt16allocator_traitsISaIN7testing8internal26ParameterizedTestSuiteInfoI21LXRotateInsertFixtureE17InstantiationInfoEEE10deallocateERS6_PS5_m
FN:495,_ZNSt16allocator_traitsISaISt10shared_ptrIN7testing8internal26ParameterizedTestSuiteInfoI21LXRotateInsertFixtureE8TestInfoEEEE10deallocateERS8_PS7_m
FNDA:3,_ZNSt16allocator_traitsISaISt10shared_ptrIN7testing8internal26ParameterizedTestSuiteInfoI21LXRotateInsertFixtureE8TestInfoEEEE10deallocateERS8_PS7_m
FN:495,_ZNSt16allocator_traitsISaISt5tupleIJiiEEEE10deallocateERS2_PS1_m
FNDA:18,_ZNSt16allocator_traitsISaISt5tupleIJiiEEEE10deallocateERS2_PS1_m
FN:495,_ZNSt16allocator_traitsISaIPN7testing8internal30ParameterizedTestSuiteInfoBaseEEE10deallocateERS4_PS3_m
FNDA:9,_ZNSt16allocator_traitsISaIPN7testing8internal30ParameterizedTestSuiteInfoBaseEEE10deallocateERS4_PS3_m
FN:495,_ZNSt16allocator_traitsISaISt10shared_ptrIN7testing8internal26ParameterizedTestSuiteInfoI11RankFixtureE8TestInfoEEEE10deallocateERS8_PS7_m
FNDA:3,_ZNSt16allocator_traitsISaISt10shared_ptrIN7testing8internal26ParameterizedTestSuiteInfoI11RankFixtureE8TestInfoEEEE10deallocateERS8_PS7_m
FN:495,_ZNSt16allocator_traitsISaISt13_Rb_tree_nodeINSt7__cxx1112basic_stringIcSt11char_traitsIcESaIcEEEEEE10deallocateERS8_PS7_m
FNDA:468,_ZNSt16allocator_traitsISaISt13_Rb_tree_nodeINSt7__cxx1112basic_stringIcSt11char_traitsIcESaIcEEEEEE10deallocateERS8_PS7_m
FN:511,_ZNSt16allocator_traitsISaIN7testing8internal26ParameterizedTestSuiteInfoI11FindFixtureE17InstantiationInfoEEE9constructIS5_JS5_EEEvRS6_PT_DpOT0_
FNDA:3,_ZNSt16allocator_traitsISaIN7testing8internal26ParameterizedTestSuiteInfoI11FindFixtureE17InstantiationInfoEEE9constructIS5_JS5_EEEvRS6_PT_DpOT0_
FN:511,_ZNSt16allocator_traitsISaIN7testing8internal26ParameterizedTestSuiteInfoI11RankFixtureE17InstantiationInfoEEE9constructIS5_JS5_EEEvRS6_PT_DpOT0_
FNDA:3,_ZNSt16allocator_traitsISaIN7testing8internal26ParameterizedTestSuiteInfoI11RankFixtureE17InstantiationInfoEEE9constructIS5_JS5_EEEvRS6_PT_DpOT0_
FN:511,_ZNSt16allocator_traitsISaIN7testing8internal26ParameterizedTestSuiteInfoI14MaximumFixtureE17InstantiationInfoEEE9constructIS5_JS5_EEEvRS6_PT_DpOT0_
FNDA:3,_ZNSt16allocator_traitsISaIN7testing8internal26ParameterizedTestSuiteInfoI14MaximumFixtureE17InstantiationInfoEEE9constructIS5_JS5_EEEvRS6_PT_DpOT0_
FN:511,_ZNSt16allocator_traitsISaISt10shared_ptrIN7testing8internal26ParameterizedTestSuiteInfoI21LXRotateInsertFixtureE8TestInfoEEEE9constructIS7_JS7_EEEvRS8_PT_DpOT0_
FNDA:3,_ZNSt16allocator_traitsISaISt10shared_ptrIN7testing8internal26ParameterizedTestSuiteInfoI21LXRotateInsertFixtureE8TestInfoEEEE9constructIS7_JS7_EEEvRS8_PT_DpOT0_
FN:511,_ZNSt16allocator_traitsISaISt13_Rb_tree_nodeINSt7__cxx1112basic_stringIcSt11char_traitsIcESaIcEEEEEE9constructIS6_JRKS6_EEEvRS8_PT_DpOT0_
FNDA:468,_ZNSt16allocator_traitsISaISt13_Rb_tree_nodeINSt7__cxx1112basic_stringIcSt11char_traitsIcESaIcEEEEEE9constructIS6_JRKS6_EEEvRS8_PT_DpOT0_
FN:511,_ZNSt16allocator_traitsISaIN7testing8internal26ParameterizedTestSuiteInfoI14MinimumFixtureE17InstantiationInfoEEE9constructIS5_JS5_EEEvRS6_PT_DpOT0_
FNDA:3,_ZNSt16allocator_traitsISaIN7testing8internal26ParameterizedTestSuiteInfoI14MinimumFixtureE17InstantiationInfoEEE9constructIS5_JS5_EEEvRS6_PT_DpOT0_
FN:511,_ZNSt16allocator_traitsISaISt10shared_ptrIN7testing8internal26ParameterizedTestSuiteInfoI21RXRotateInsertFixtureE8TestInfoEEEE9constructIS7_JS7_EEEvRS8_PT_DpOT0_
FNDA:3,_ZNSt16allocator_traitsISaISt10shared_ptrIN7testing8internal26ParameterizedTestSuiteInfoI21RXRotateInsertFixtureE8TestInfoEEEE9constructIS7_JS7_EEEvRS8_PT_DpOT0_
FN:511,_ZNSt16allocator_traitsISaIN7testing8internal26ParameterizedTestSuiteInfoI21RXRotateInsertFixtureE17InstantiationInfoEEE9constructIS5_JS5_EEEvRS6_PT_DpOT0_
FNDA:3,_ZNSt16allocator_traitsISaIN7testing8internal26ParameterizedTestSuiteInfoI21RXRotateInsertFixtureE17InstantiationInfoEEE9constructIS5_JS5_EEEvRS6_PT_DpOT0_
FN:511,_ZNSt16allocator_traitsISaIN7testing8internal26ParameterizedTestSuiteInfoI21LXRotateInsertFixtureE17InstantiationInfoEEE9constructIS5_JS5_EEEvRS6_PT_DpOT0_
FNDA:3,_ZNSt16allocator_traitsISaIN7testing8internal26ParameterizedTestSuiteInfoI21LXRotateInsertFixtureE17InstantiationInfoEEE9constructIS5_JS5_EEEvRS6_PT_DpOT0_
FN:511,_ZNSt16allocator_traitsISaISt10shared_ptrIN7testing8internal26ParameterizedTestSuiteInfoI14MinimumFixtureE8TestInfoEEEE9constructIS7_JS7_EEEvRS8_PT_DpOT0_
FNDA:3,_ZNSt16allocator_traitsISaISt10shared_ptrIN7testing8internal26ParameterizedTestSuiteInfoI14MinimumFixtureE8TestInfoEEEE9constructIS7_JS7_EEEvRS8_PT_DpOT0_
FN:511,_ZNSt16allocator_traitsISaISt10shared_ptrIN7testing8internal26ParameterizedTestSuiteInfoI14MaximumFixtureE8TestInfoEEEE9constructIS7_JS7_EEEvRS8_PT_DpOT0_
FNDA:3,_ZNSt16allocator_traitsISaISt10shared_ptrIN7testing8internal26ParameterizedTestSuiteInfoI14MaximumFixtureE8TestInfoEEEE9constructIS7_JS7_EEEvRS8_PT_DpOT0_
FN:511,_ZNSt16allocator_traitsISaISt10shared_ptrIN7testing8internal26ParameterizedTestSuiteInfoI11RankFixtureE8TestInfoEEEE9constructIS7_JS7_EEEvRS8_PT_DpOT0_
FNDA:3,_ZNSt16allocator_traitsISaISt10shared_ptrIN7testing8internal26ParameterizedTestSuiteInfoI11RankFixtureE8TestInfoEEEE9constructIS7_JS7_EEEvRS8_PT_DpOT0_
FN:511,_ZNSt16allocator_traitsISaISt10shared_ptrIN7testing8internal26ParameterizedTestSuiteInfoI11FindFixtureE8TestInfoEEEE9constructIS7_JS7_EEEvRS8_PT_DpOT0_
FNDA:3,_ZNSt16allocator_traitsISaISt10shared_ptrIN7testing8internal26ParameterizedTestSuiteInfoI11FindFixtureE8TestInfoEEEE9constructIS7_JS7_EEEvRS8_PT_DpOT0_
FN:511,_ZNSt16allocator_traitsISaIPN7testing8internal30ParameterizedTestSuiteInfoBaseEEE9constructIS3_JS3_EEEvRS4_PT_DpOT0_
FNDA:18,_ZNSt16allocator_traitsISaIPN7testing8internal30ParameterizedTestSuiteInfoBaseEEE9constructIS3_JS3_EEEvRS4_PT_DpOT0_
FN:531,_ZNSt16allocator_traitsISaIN7testing8internal26ParameterizedTestSuiteInfoI21RXRotateInsertFixtureE17InstantiationInfoEEE7destroyIS5_EEvRS6_PT_
FNDA:0,_ZNSt16allocator_traitsISaIN7testing8internal26ParameterizedTestSuiteInfoI21RXRotateInsertFixtureE17InstantiationInfoEEE7destroyIS5_EEvRS6_PT_
FN:531,_ZNSt16allocator_traitsISaIN7testing8internal26ParameterizedTestSuiteInfoI21LXRotateInsertFixtureE17InstantiationInfoEEE7destroyIS5_EEvRS6_PT_
FNDA:0,_ZNSt16allocator_traitsISaIN7testing8internal26ParameterizedTestSuiteInfoI21LXRotateInsertFixtureE17InstantiationInfoEEE7destroyIS5_EEvRS6_PT_
FN:531,_ZNSt16allocator_traitsISaIPN7testing8internal30ParameterizedTestSuiteInfoBaseEEE7destroyIS3_EEvRS4_PT_
FNDA:0,_ZNSt16allocator_traitsISaIPN7testing8internal30ParameterizedTestSuiteInfoBaseEEE7destroyIS3_EEvRS4_PT_
FN:531,_ZNSt16allocator_traitsISaISt13_Rb_tree_nodeINSt7__cxx1112basic_stringIcSt11char_traitsIcESaIcEEEEEE7destroyIS6_EEvRS8_PT_
FNDA:468,_ZNSt16allocator_traitsISaISt13_Rb_tree_nodeINSt7__cxx1112basic_stringIcSt11char_traitsIcESaIcEEEEEE7destroyIS6_EEvRS8_PT_
FN:531,_ZNSt16allocator_traitsISaIN7testing8internal26ParameterizedTestSuiteInfoI14MinimumFixtureE17InstantiationInfoEEE7destroyIS5_EEvRS6_PT_
FNDA:0,_ZNSt16allocator_traitsISaIN7testing8internal26ParameterizedTestSuiteInfoI14MinimumFixtureE17InstantiationInfoEEE7destroyIS5_EEvRS6_PT_
FN:531,_ZNSt16allocator_traitsISaIN7testing8internal26ParameterizedTestSuiteInfoI14MaximumFixtureE17InstantiationInfoEEE7destroyIS5_EEvRS6_PT_
FNDA:0,_ZNSt16allocator_traitsISaIN7testing8internal26ParameterizedTestSuiteInfoI14MaximumFixtureE17InstantiationInfoEEE7destroyIS5_EEvRS6_PT_
FN:531,_ZNSt16allocator_traitsISaIN7testing8internal26ParameterizedTestSuiteInfoI11RankFixtureE17InstantiationInfoEEE7destroyIS5_EEvRS6_PT_
FNDA:0,_ZNSt16allocator_traitsISaIN7testing8internal26ParameterizedTestSuiteInfoI11RankFixtureE17InstantiationInfoEEE7destroyIS5_EEvRS6_PT_
FN:531,_ZNSt16allocator_traitsISaIN7testing8internal26ParameterizedTestSuiteInfoI11FindFixtureE17InstantiationInfoEEE7destroyIS5_EEvRS6_PT_
FNDA:0,_ZNSt16allocator_traitsISaIN7testing8internal26ParameterizedTestSuiteInfoI11FindFixtureE17InstantiationInfoEEE7destroyIS5_EEvRS6_PT_
FN:531,_ZNSt16allocator_traitsISaISt10shared_ptrIN7testing8internal26ParameterizedTestSuiteInfoI21LXRotateInsertFixtureE8TestInfoEEEE7destroyIS7_EEvRS8_PT_
FNDA:0,_ZNSt16allocator_traitsISaISt10shared_ptrIN7testing8internal26ParameterizedTestSuiteInfoI21LXRotateInsertFixtureE8TestInfoEEEE7destroyIS7_EEvRS8_PT_
FN:531,_ZNSt16allocator_traitsISaISt10shared_ptrIN7testing8internal26ParameterizedTestSuiteInfoI21RXRotateInsertFixtureE8TestInfoEEEE7destroyIS7_EEvRS8_PT_
FNDA:0,_ZNSt16allocator_traitsISaISt10shared_ptrIN7testing8internal26ParameterizedTestSuiteInfoI21RXRotateInsertFixtureE8TestInfoEEEE7destroyIS7_EEvRS8_PT_
FN:531,_ZNSt16allocator_traitsISaISt10shared_ptrIN7testing8internal26ParameterizedTestSuiteInfoI14MinimumFixtureE8TestInfoEEEE7destroyIS7_EEvRS8_PT_
FNDA:0,_ZNSt16allocator_traitsISaISt10shared_ptrIN7testing8internal26ParameterizedTestSuiteInfoI14MinimumFixtureE8TestInfoEEEE7destroyIS7_EEvRS8_PT_
FN:531,_ZNSt16allocator_traitsISaISt10shared_ptrIN7testing8internal26ParameterizedTestSuiteInfoI14MaximumFixtureE8TestInfoEEEE7destroyIS7_EEvRS8_PT_
FNDA:0,_ZNSt16allocator_traitsISaISt10shared_ptrIN7testing8internal26ParameterizedTestSuiteInfoI14MaximumFixtureE8TestInfoEEEE7destroyIS7_EEvRS8_PT_
FN:531,_ZNSt16allocator_traitsISaISt10shared_ptrIN7testing8internal26ParameterizedTestSuiteInfoI11RankFixtureE8TestInfoEEEE7destroyIS7_EEvRS8_PT_
FNDA:0,_ZNSt16allocator_traitsISaISt10shared_ptrIN7testing8internal26ParameterizedTestSuiteInfoI11RankFixtureE8TestInfoEEEE7destroyIS7_EEvRS8_PT_
FN:531,_ZNSt16allocator_traitsISaISt10shared_ptrIN7testing8internal26ParameterizedTestSuiteInfoI11FindFixtureE8TestInfoEEEE7destroyIS7_EEvRS8_PT_
FNDA:0,_ZNSt16allocator_traitsISaISt10shared_ptrIN7testing8internal26ParameterizedTestSuiteInfoI11FindFixtureE8TestInfoEEEE7destroyIS7_EEvRS8_PT_
FN:547,_ZNSt16allocator_traitsISaISt5tupleIJiiiEEEE8max_sizeERKS2_
FNDA:18,_ZNSt16allocator_traitsISaISt5tupleIJiiiEEEE8max_sizeERKS2_
FN:547,_ZNSt16allocator_traitsISaISt10shared_ptrIN7testing8internal26ParameterizedTestSuiteInfoI11RankFixtureE8TestInfoEEEE8max_sizeERKS8_
FNDA:6,_ZNSt16allocator_traitsISaISt10shared_ptrIN7testing8internal26ParameterizedTestSuiteInfoI11RankFixtureE8TestInfoEEEE8max_sizeERKS8_
FN:547,_ZNSt16allocator_traitsISaISt5tupleIJiiEEEE8max_sizeERKS2_
FNDA:18,_ZNSt16allocator_traitsISaISt5tupleIJiiEEEE8max_sizeERKS2_
FN:547,_ZNSt16allocator_traitsISaIPN7testing8internal30ParameterizedTestSuiteInfoBaseEEE8max_sizeERKS4_
FNDA:24,_ZNSt16allocator_traitsISaIPN7testing8internal30ParameterizedTestSuiteInfoBaseEEE8max_sizeERKS4_
FN:547,_ZNSt16allocator_traitsISaIN7testing8internal26ParameterizedTestSuiteInfoI21LXRotateInsertFixtureE17InstantiationInfoEEE8max_sizeERKS6_
FNDA:6,_ZNSt16allocator_traitsISaIN7testing8internal26ParameterizedTestSuiteInfoI21LXRotateInsertFixtureE17InstantiationInfoEEE8max_sizeERKS6_
FN:547,_ZNSt16allocator_traitsISaIN7testing8internal26ParameterizedTestSuiteInfoI21RXRotateInsertFixtureE17InstantiationInfoEEE8max_sizeERKS6_
FNDA:6,_ZNSt16allocator_traitsISaIN7testing8internal26ParameterizedTestSuiteInfoI21RXRotateInsertFixtureE17InstantiationInfoEEE8max_sizeERKS6_
FN:547,_ZNSt16allocator_traitsISaIN7testing8internal26ParameterizedTestSuiteInfoI14MinimumFixtureE17InstantiationInfoEEE8max_sizeERKS6_
FNDA:6,_ZNSt16allocator_traitsISaIN7testing8internal26ParameterizedTestSuiteInfoI14MinimumFixtureE17InstantiationInfoEEE8max_sizeERKS6_
FN:547,_ZNSt16allocator_traitsISaIN7testing8internal26ParameterizedTestSuiteInfoI14MaximumFixtureE17InstantiationInfoEEE8max_sizeERKS6_
FNDA:6,_ZNSt16allocator_traitsISaIN7testing8internal26ParameterizedTestSuiteInfoI14MaximumFixtureE17InstantiationInfoEEE8max_sizeERKS6_
FN:547,_ZNSt16allocator_traitsISaIN7testing8internal26ParameterizedTestSuiteInfoI11RankFixtureE17InstantiationInfoEEE8max_sizeERKS6_
FNDA:6,_ZNSt16allocator_traitsISaIN7testing8internal26ParameterizedTestSuiteInfoI11RankFixtureE17InstantiationInfoEEE8max_sizeERKS6_
FN:547,_ZNSt16allocator_traitsISaISt10shared_ptrIN7testing8internal26ParameterizedTestSuiteInfoI11FindFixtureE8TestInfoEEEE8max_sizeERKS8_
FNDA:6,_ZNSt16allocator_traitsISaISt10shared_ptrIN7testing8internal26ParameterizedTestSuiteInfoI11FindFixtureE8TestInfoEEEE8max_sizeERKS8_
FN:547,_ZNSt16allocator_traitsISaIN7testing8internal26ParameterizedTestSuiteInfoI11FindFixtureE17InstantiationInfoEEE8max_sizeERKS6_
FNDA:6,_ZNSt16allocator_traitsISaIN7testing8internal26ParameterizedTestSuiteInfoI11FindFixtureE17InstantiationInfoEEE8max_sizeERKS6_
FN:547,_ZNSt16allocator_traitsISaISt10shared_ptrIN7testing8internal26ParameterizedTestSuiteInfoI21LXRotateInsertFixtureE8TestInfoEEEE8max_sizeERKS8_
FNDA:6,_ZNSt16allocator_traitsISaISt10shared_ptrIN7testing8internal26ParameterizedTestSuiteInfoI21LXRotateInsertFixtureE8TestInfoEEEE8max_sizeERKS8_
FN:547,_ZNSt16allocator_traitsISaISt10shared_ptrIN7testing8internal26ParameterizedTestSuiteInfoI21RXRotateInsertFixtureE8TestInfoEEEE8max_sizeERKS8_
FNDA:6,_ZNSt16allocator_traitsISaISt10shared_ptrIN7testing8internal26ParameterizedTestSuiteInfoI21RXRotateInsertFixtureE8TestInfoEEEE8max_sizeERKS8_
FN:547,_ZNSt16allocator_traitsISaISt10shared_ptrIN7testing8internal26ParameterizedTestSuiteInfoI14MaximumFixtureE8TestInfoEEEE8max_sizeERKS8_
FNDA:6,_ZNSt16allocator_traitsISaISt10shared_ptrIN7testing8internal26ParameterizedTestSuiteInfoI14MaximumFixtureE8TestInfoEEEE8max_sizeERKS8_
FN:547,_ZNSt16allocator_traitsISaISt10shared_ptrIN7testing8internal26ParameterizedTestSuiteInfoI14MinimumFixtureE8TestInfoEEEE8max_sizeERKS8_
FNDA:6,_ZNSt16allocator_traitsISaISt10shared_ptrIN7testing8internal26ParameterizedTestSuiteInfoI14MinimumFixtureE8TestInfoEEEE8max_sizeERKS8_
FN:562,_ZNSt16allocator_traitsISaIcEE37select_on_container_copy_constructionERKS0_
FNDA:0,_ZNSt16allocator_traitsISaIcEE37select_on_container_copy_constructionERKS0_
FN:845,_ZSt8_DestroyIPN7testing8internal26ParameterizedTestSuiteInfoI21RXRotateInsertFixtureE17InstantiationInfoES5_EvT_S7_RSaIT0_E
FNDA:3,_ZSt8_DestroyIPN7testing8internal26ParameterizedTestSuiteInfoI21RXRotateInsertFixtureE17InstantiationInfoES5_EvT_S7_RSaIT0_E
FN:845,_ZSt8_DestroyIPPN7testing8internal30ParameterizedTestSuiteInfoBaseES3_EvT_S5_RSaIT0_E
FNDA:0,_ZSt8_DestroyIPPN7testing8internal30ParameterizedTestSuiteInfoBaseES3_EvT_S5_RSaIT0_E
FN:845,_ZSt8_DestroyIPSt5tupleIJiiEES1_EvT_S3_RSaIT0_E
FNDA:18,_ZSt8_DestroyIPSt5tupleIJiiEES1_EvT_S3_RSaIT0_E
FN:845,_ZSt8_DestroyIPSt5tupleIJiiiEES1_EvT_S3_RSaIT0_E
FNDA:18,_ZSt8_DestroyIPSt5tupleIJiiiEES1_EvT_S3_RSaIT0_E
FN:845,_ZSt8_DestroyIPSt10shared_ptrIN7testing8internal26ParameterizedTestSuiteInfoI21LXRotateInsertFixtureE8TestInfoEES7_EvT_S9_RSaIT0_E
FNDA:3,_ZSt8_DestroyIPSt10shared_ptrIN7testing8internal26ParameterizedTestSuiteInfoI21LXRotateInsertFixtureE8TestInfoEES7_EvT_S9_RSaIT0_E
FN:845,_ZSt8_DestroyIPN7testing8internal26ParameterizedTestSuiteInfoI21LXRotateInsertFixtureE17InstantiationInfoES5_EvT_S7_RSaIT0_E
FNDA:3,_ZSt8_DestroyIPN7testing8internal26ParameterizedTestSuiteInfoI21LXRotateInsertFixtureE17InstantiationInfoES5_EvT_S7_RSaIT0_E
FN:845,_ZSt8_DestroyIPSt10shared_ptrIN7testing8internal26ParameterizedTestSuiteInfoI21RXRotateInsertFixtureE8TestInfoEES7_EvT_S9_RSaIT0_E
FNDA:3,_ZSt8_DestroyIPSt10shared_ptrIN7testing8internal26ParameterizedTestSuiteInfoI21RXRotateInsertFixtureE8TestInfoEES7_EvT_S9_RSaIT0_E
FN:845,_ZSt8_DestroyIPSt10shared_ptrIN7testing8internal26ParameterizedTestSuiteInfoI11FindFixtureE8TestInfoEES7_EvT_S9_RSaIT0_E
FNDA:3,_ZSt8_DestroyIPSt10shared_ptrIN7testing8internal26ParameterizedTestSuiteInfoI11FindFixtureE8TestInfoEES7_EvT_S9_RSaIT0_E
FN:845,_ZSt8_DestroyIPSt10shared_ptrIN7testing8internal26ParameterizedTestSuiteInfoI14MinimumFixtureE8TestInfoEES7_EvT_S9_RSaIT0_E
FNDA:3,_ZSt8_DestroyIPSt10shared_ptrIN7testing8internal26ParameterizedTestSuiteInfoI14MinimumFixtureE8TestInfoEES7_EvT_S9_RSaIT0_E
FN:845,_ZSt8_DestroyIPN7testing8internal26ParameterizedTestSuiteInfoI14MinimumFixtureE17InstantiationInfoES5_EvT_S7_RSaIT0_E
FNDA:3,_ZSt8_DestroyIPN7testing8internal26ParameterizedTestSuiteInfoI14MinimumFixtureE17InstantiationInfoES5_EvT_S7_RSaIT0_E
FN:845,_ZSt8_DestroyIPSt10shared_ptrIN7testing8internal26ParameterizedTestSuiteInfoI14MaximumFixtureE8TestInfoEES7_EvT_S9_RSaIT0_E
FNDA:3,_ZSt8_DestroyIPSt10shared_ptrIN7testing8internal26ParameterizedTestSuiteInfoI14MaximumFixtureE8TestInfoEES7_EvT_S9_RSaIT0_E
FN:845,_ZSt8_DestroyIPN7testing8internal26ParameterizedTestSuiteInfoI14MaximumFixtureE17InstantiationInfoES5_EvT_S7_RSaIT0_E
FNDA:3,_ZSt8_DestroyIPN7testing8internal26ParameterizedTestSuiteInfoI14MaximumFixtureE17InstantiationInfoES5_EvT_S7_RSaIT0_E
FN:845,_ZSt8_DestroyIPSt10shared_ptrIN7testing8internal26ParameterizedTestSuiteInfoI11RankFixtureE8TestInfoEES7_EvT_S9_RSaIT0_E
FNDA:3,_ZSt8_DestroyIPSt10shared_ptrIN7testing8internal26ParameterizedTestSuiteInfoI11RankFixtureE8TestInfoEES7_EvT_S9_RSaIT0_E
FN:845,_ZSt8_DestroyIPN7testing8internal26ParameterizedTestSuiteInfoI11RankFixtureE17InstantiationInfoES5_EvT_S7_RSaIT0_E
FNDA:3,_ZSt8_DestroyIPN7testing8internal26ParameterizedTestSuiteInfoI11RankFixtureE17InstantiationInfoES5_EvT_S7_RSaIT0_E
FN:845,_ZSt8_DestroyIPN7testing8internal26ParameterizedTestSuiteInfoI11FindFixtureE17InstantiationInfoES5_EvT_S7_RSaIT0_E
FNDA:3,_ZSt8_DestroyIPN7testing8internal26ParameterizedTestSuiteInfoI11FindFixtureE17InstantiationInfoES5_EvT_S7_RSaIT0_E
DA:463,468
DA:464,468
DA:463,3
DA:464,3
DA:463,3
DA:464,3
DA:463,3
DA:464,3
DA:463,3
DA:464,3
DA:463,3
DA:464,3
DA:463,3
DA:464,3
DA:463,3
DA:464,3
DA:463,3
DA:464,3
DA:463,3
DA:464,3
DA:463,3
DA:464,3
DA:463,18
DA:464,18
DA:463,3
DA:464,3
DA:463,3
DA:464,3
DA:463,12
DA:464,12
DA:463,18
DA:464,18
DA:495,468
DA:496,468
DA:495,3
DA:496,3
DA:495,3
DA:496,3
DA:495,3
DA:496,3
DA:495,3
DA:496,3
DA:495,3
DA:496,3
DA:495,3
DA:496,3
DA:495,3
DA:496,3
DA:495,3
DA:496,3
DA:495,18
DA:496,18
DA:495,3
DA:496,3
DA:495,3
DA:496,3
DA:495,3
DA:496,3
DA:495,3
DA:496,3
DA:495,18
DA:496,18
DA:495,9
DA:496,9
DA:511,468
DA:516,468
DA:520,468
DA:511,3
DA:516,3
DA:520,3
DA:511,3
DA:516,3
DA:520,3
DA:511,3
DA:516,3
DA:520,3
DA:511,3
DA:516,3
DA:520,3
DA:511,3
DA:516,3
DA:520,3
DA:511,3
DA:516,3
DA:520,3
DA:511,3
DA:516,3
DA:520,3
DA:511,3
DA:516,3
DA:520,3
DA:511,3
DA:516,3
DA:520,3
DA:511,3
DA:516,3
DA:520,3
DA:511,3
DA:516,3
DA:520,3
DA:511,3
DA:516,3
DA:520,3
DA:511,18
DA:516,18
DA:520,18
DA:531,468
DA:535,468
DA:539,468
DA:531,0
DA:535,0
DA:539,0
DA:531,0
DA:535,0
DA:539,0
DA:531,0
DA:535,0
DA:539,0
DA:531,0
DA:535,0
DA:539,0
DA:531,0
DA:535,0
DA:539,0
DA:531,0
DA:535,0
DA:539,0
DA:531,0
DA:535,0
DA:539,0
DA:531,0
DA:535,0
DA:539,0
DA:531,0
DA:535,0
DA:539,0
DA:531,0
DA:535,0
DA:539,0
DA:531,0
DA:535,0
DA:539,0
DA:531,0
DA:535,0
DA:539,0
DA:531,0
DA:535,0
DA:539,0
DA:547,6
DA:550,6
DA:547,6
DA:550,6
DA:547,6
DA:550,6
DA:547,6
DA:550,6
DA:547,6
DA:550,6
DA:547,6
DA:550,6
DA:547,6
DA:550,6
DA:547,6
DA:550,6
DA:547,6
DA:550,6
DA:547,6
DA:550,6
DA:547,6
DA:550,6
DA:547,6
DA:550,6
DA:547,24
DA:550,24
DA:547,18
DA:550,18
DA:547,18
DA:550,18
DA:562,0
DA:563,0
DA:845,3
DA:848,3
DA:849,3
DA:845,3
DA:848,3
DA:849,3
DA:845,3
DA:848,3
DA:849,3
DA:845,3
DA:848,3
DA:849,3
DA:845,3
DA:848,3
DA:849,3
DA:845,3
DA:848,3
DA:849,3
DA:845,3
DA:848,3
DA:849,3
DA:845,3
DA:848,3
DA:849,3
DA:845,3
DA:848,3
DA:849,3
DA:845,3
DA:848,3
DA:849,3
DA:845,3
DA:848,3
DA:849,3
DA:845,3
DA:848,3
DA:849,3
DA:845,18
DA:848,18
DA:849,18
DA:845,18
DA:848,18
DA:849,18
DA:845,0
DA:848,0
DA:849,0
end_of_record
SF:/usr/include/c++/11/typeinfo
FN:120,_ZNKSt9type_infoeqERKS_
FNDA:504,_ZNKSt9type_infoeqERKS_
DA:120,504
DA:122,504
DA:123,504
DA:124,504
end_of_record
SF:/usr/include/c++/11/bits/stl_function.h
FN:399,_ZNKSt4lessINSt7__cxx1112basic_stringIcSt11char_traitsIcESaIcEEEEclERKS5_S8_
FNDA:5952,_ZNKSt4lessINSt7__cxx1112basic_stringIcSt11char_traitsIcESaIcEEEEclERKS5_S8_
FN:1158,_ZNKSt9_IdentityINSt7__cxx1112basic_stringIcSt11char_traitsIcESaIcEEEEclERKS5_
FNDA:6870,_ZNKSt9_IdentityINSt7__cxx1112basic_stringIcSt11char_traitsIcESaIcEEEEclERKS5_
DA:399,5952
DA:400,5952
DA:1158,6870
DA:1159,6870
end_of_record
SF:/usr/include/c++/11/new
FN:174,_ZnwmPv
FNDA:1926,_ZnwmPv
FN:180,_ZdlPvS_
FNDA:0,_ZdlPvS_
DA:174,1926
DA:175,1926
DA:180,0
end_of_record
SF:/usr/include/c++/11/bits/stl_iterator_base_funcs.h
FN:98,_ZSt10__distanceIN9__gnu_cxx17__normal_iteratorIPKSt5tupleIJiiiEESt6vectorIS3_SaIS3_EEEEENSt15iterator_traitsIT_E15difference_typeESB_SB_St26random_access_iterator_tag
FNDA:9,_ZSt10__distanceIN9__gnu_cxx17__normal_iteratorIPKSt5tupleIJiiiEESt6vectorIS3_SaIS3_EEEEENSt15iterator_traitsIT_E15difference_typeESB_SB_St26random_access_iterator_tag
FN:98,_ZSt10__distanceIN9__gnu_cxx17__normal_iteratorIPKSt5tupleIJiiEESt6vectorIS3_SaIS3_EEEEENSt15iterator_traitsIT_E15difference_typeESB_SB_St26random_access_iterator_tag
FNDA:9,_ZSt10__distanceIN9__gnu_cxx17__normal_iteratorIPKSt5tupleIJiiEESt6vectorIS3_SaIS3_EEEEENSt15iterator_traitsIT_E15difference_typeESB_SB_St26random_access_iterator_tag
FN:98,_ZSt10__distanceIPKSt5tupleIJiiiEEENSt15iterator_traitsIT_E15difference_typeES5_S5_St26random_access_iterator_tag
FNDA:9,_ZSt10__distanceIPKSt5tupleIJiiiEEENSt15iterator_traitsIT_E15difference_typeES5_S5_St26random_access_iterator_tag
FN:98,_ZSt10__distanceIPKSt5tupleIJiiEEENSt15iterator_traitsIT_E15difference_typeES5_S5_St26random_access_iterator_tag
FNDA:9,_ZSt10__distanceIPKSt5tupleIJiiEEENSt15iterator_traitsIT_E15difference_typeES5_S5_St26random_access_iterator_tag
FN:98,_ZSt10__distanceIPcENSt15iterator_traitsIT_E15difference_typeES2_S2_St26random_access_iterator_tag
FNDA:0,_ZSt10__distanceIPcENSt15iterator_traitsIT_E15difference_typeES2_S2_St26random_access_iterator_tag
FN:98,_ZSt10__distanceIPKcENSt15iterator_traitsIT_E15difference_typeES3_S3_St26random_access_iterator_tag
FNDA:0,_ZSt10__distanceIPKcENSt15iterator_traitsIT_E15difference_typeES3_S3_St26random_access_iterator_tag
FN:138,_ZSt8distanceIN9__gnu_cxx17__normal_iteratorIPKSt5tupleIJiiiEESt6vectorIS3_SaIS3_EEEEENSt15iterator_traitsIT_E15difference_typeESB_SB_
FNDA:9,_ZSt8distanceIN9__gnu_cxx17__normal_iteratorIPKSt5tupleIJiiiEESt6vectorIS3_SaIS3_EEEEENSt15iterator_traitsIT_E15difference_typeESB_SB_
FN:138,_ZSt8distanceIN9__gnu_cxx17__normal_iteratorIPKSt5tupleIJiiEESt6vectorIS3_SaIS3_EEEEENSt15iterator_traitsIT_E15difference_typeESB_SB_
FNDA:9,_ZSt8distanceIN9__gnu_cxx17__normal_iteratorIPKSt5tupleIJiiEESt6vectorIS3_SaIS3_EEEEENSt15iterator_traitsIT_E15difference_typeESB_SB_
FN:138,_ZSt8distanceIPKSt5tupleIJiiiEEENSt15iterator_traitsIT_E15difference_typeES5_S5_
FNDA:9,_ZSt8distanceIPKSt5tupleIJiiiEEENSt15iterator_traitsIT_E15difference_typeES5_S5_
FN:138,_ZSt8distanceIPKSt5tupleIJiiEEENSt15iterator_traitsIT_E15difference_typeES5_S5_
FNDA:9,_ZSt8distanceIPKSt5tupleIJiiEEENSt15iterator_traitsIT_E15difference_typeES5_S5_
FN:138,_ZSt8distanceIPcENSt15iterator_traitsIT_E15difference_typeES2_S2_
FNDA:0,_ZSt8distanceIPcENSt15iterator_traitsIT_E15difference_typeES2_S2_
FN:138,_ZSt8distanceIPKcENSt15iterator_traitsIT_E15difference_typeES3_S3_
FNDA:0,_ZSt8distanceIPKcENSt15iterator_traitsIT_E15difference_typeES3_S3_
DA:98,9
DA:104,9
DA:98,9
DA:104,9
DA:98,9
DA:104,9
DA:98,9
DA:104,9
DA:98,0
DA:104,0
DA:98,0
DA:104,0
DA:138,9
DA:141,9
DA:142,18
DA:138,9
DA:141,9
DA:142,18
DA:138,9
DA:141,9
DA:142,18
DA:138,9
DA:141,9
DA:142,18
DA:138,0
DA:141,0
DA:142,0
DA:138,0
DA:141,0
DA:142,0
end_of_record
SF:/usr/include/c++/11/bits/stl_set.h
FN:167,_ZNSt3setINSt7__cxx1112basic_stringIcSt11char_traitsIcESaIcEEESt4lessIS5_ESaIS5_EEC2Ev
FNDA:18,_ZNSt3setINSt7__cxx1112basic_stringIcSt11char_traitsIcESaIcEEESt4lessIS5_ESaIS5_EEC2Ev
FN:281,_ZNSt3setINSt7__cxx1112basic_stringIcSt11char_traitsIcESaIcEEESt4lessIS5_ESaIS5_EED2Ev
FNDA:18,_ZNSt3setINSt7__cxx1112basic_stringIcSt11char_traitsIcESaIcEEESt4lessIS5_ESaIS5_EED2Ev
FN:509,_ZNSt3setINSt7__cxx1112basic_stringIcSt11char_traitsIcESaIcEEESt4lessIS5_ESaIS5_EE6insertERKS5_
FNDA:468,_ZNSt3setINSt7__cxx1112basic_stringIcSt11char_traitsIcESaIcEEESt4lessIS5_ESaIS5_EE6insertERKS5_
FN:748,_ZNKSt3setINSt7__cxx1112basic_stringIcSt11char_traitsIcESaIcEEESt4lessIS5_ESaIS5_EE5countERKS5_
FNDA:468,_ZNKSt3setINSt7__cxx1112basic_stringIcSt11char_traitsIcESaIcEEESt4lessIS5_ESaIS5_EE5countERKS5_
DA:167,18
DA:281,18
DA:509,468
DA:512,468
DA:513,468
DA:748,468
DA:749,468
end_of_record
SF:/usr/include/c++/11/initializer_list
FN:71,_ZNKSt16initializer_listISt5tupleIJiiiEEE4sizeEv
FNDA:9,_ZNKSt16initializer_listISt5tupleIJiiiEEE4sizeEv
FN:71,_ZNKSt16initializer_listISt5tupleIJiiEEE4sizeEv
FNDA:9,_ZNKSt16initializer_listISt5tupleIJiiEEE4sizeEv
FN:75,_ZNKSt16initializer_listISt5tupleIJiiiEEE5beginEv
FNDA:18,_ZNKSt16initializer_listISt5tupleIJiiiEEE5beginEv
FN:75,_ZNKSt16initializer_listISt5tupleIJiiEEE5beginEv
FNDA:18,_ZNKSt16initializer_listISt5tupleIJiiEEE5beginEv
FN:79,_ZNKSt16initializer_listISt5tupleIJiiiEEE3endEv
FNDA:9,_ZNKSt16initializer_listISt5tupleIJiiiEEE3endEv
FN:79,_ZNKSt16initializer_listISt5tupleIJiiEEE3endEv
FNDA:9,_ZNKSt16initializer_listISt5tupleIJiiEEE3endEv
DA:71,9
DA:71,9
DA:75,18
DA:75,18
DA:79,9
DA:79,9
end_of_record
SF:/usr/include/c++/11/ext/alloc_traits.h
FN:97,_ZN9__gnu_cxx14__alloc_traitsISaIcEcE17_S_select_on_copyERKS1_
FNDA:0,_ZN9__gnu_cxx14__alloc_traitsISaIcEcE17_S_select_on_copyERKS1_
DA:97,0
DA:98,0
end_of_record
SF:/usr/include/gtest/gtest-printers.h
FN:212,_ZN7testing8internal52internal_stream_operator_without_lexical_name_lookup13StreamPrinter10PrintValueIivRSoEEvRKT_PSo
FNDA:1278,_ZN7testing8internal52internal_stream_operator_without_lexical_name_lookup13StreamPrinter10PrintValueIivRSoEEvRKT_PSo
FN:306,_ZN7testing8internal17PrintWithFallbackIiEEvRKT_PSo
FNDA:1278,_ZN7testing8internal17PrintWithFallbackIiEEvRKT_PSo
FN:333,_ZN7testing8internal19FormatForComparisonIiiE6FormatB5cxx11ERKi
FNDA:0,_ZN7testing8internal19FormatForComparisonIiiE6FormatB5cxx11ERKi
FN:333,_ZN7testing8internal19FormatForComparisonIibE6FormatB5cxx11ERKi
FNDA:0,_ZN7testing8internal19FormatForComparisonIibE6FormatB5cxx11ERKi
FN:333,_ZN7testing8internal19FormatForComparisonIbiE6FormatB5cxx11ERKb
FNDA:0,_ZN7testing8internal19FormatForComparisonIbiE6FormatB5cxx11ERKb
FN:413,_ZN7testing8internal33FormatForComparisonFailureMessageIiiEENSt7__cxx1112basic_stringIcSt11char_traitsIcESaIcEEERKT_RKT0_
FNDA:0,_ZN7testing8internal33FormatForComparisonFailureMessageIiiEENSt7__cxx1112basic_stringIcSt11char_traitsIcESaIcEEERKT_RKT0_
FN:413,_ZN7testing8internal33FormatForComparisonFailureMessageIibEENSt7__cxx1112basic_stringIcSt11char_traitsIcESaIcEEERKT_RKT0_
FNDA:0,_ZN7testing8internal33FormatForComparisonFailureMessageIibEENSt7__cxx1112basic_stringIcSt11char_traitsIcESaIcEEERKT_RKT0_
FN:413,_ZN7testing8internal33FormatForComparisonFailureMessageIbiEENSt7__cxx1112basic_stringIcSt11char_traitsIcESaIcEEERKT_RKT0_
FNDA:0,_ZN7testing8internal33FormatForComparisonFailureMessageIbiEENSt7__cxx1112basic_stringIcSt11char_traitsIcESaIcEEERKT_RKT0_
FN:440,_ZN7testing8internal7PrintToIiEEvRKT_PSo
FNDA:1278,_ZN7testing8internal7PrintToIiEEvRKT_PSo
FN:459,_ZN7testing8internal7PrintToEbPSo
FNDA:0,_ZN7testing8internal7PrintToEbPSo
FN:635,_ZN7testing8internal12PrintTupleToISt5tupleIJiiiEEEEvRKT_St17integral_constantImLm0EEPSo
FNDA:342,_ZN7testing8internal12PrintTupleToISt5tupleIJiiiEEEEvRKT_St17integral_constantImLm0EEPSo
FN:635,_ZN7testing8internal12PrintTupleToISt5tupleIJiiEEEEvRKT_St17integral_constantImLm0EEPSo
FNDA:126,_ZN7testing8internal12PrintTupleToISt5tupleIJiiEEEEvRKT_St17integral_constantImLm0EEPSo
FN:639,_ZN7testing8internal12PrintTupleToISt5tupleIJiiEELm2EEEvRKT_St17integral_constantImXT0_EEPSo
FNDA:126,_ZN7testing8internal12PrintTupleToISt5tupleIJiiEELm2EEEvRKT_St17integral_constantImXT0_EEPSo
FN:639,_ZN7testing8internal12PrintTupleToISt5tupleIJiiiEELm3EEEvRKT_St17integral_constantImXT0_EEPSo
FNDA:342,_ZN7testing8internal12PrintTupleToISt5tupleIJiiiEELm3EEEvRKT_St17integral_constantImXT0_EEPSo
FN:639,_ZN7testing8internal12PrintTupleToISt5tupleIJiiEELm1EEEvRKT_St17integral_constantImXT0_EEPSo
FNDA:126,_ZN7testing8internal12PrintTupleToISt5tupleIJiiEELm1EEEvRKT_St17integral_constantImXT0_EEPSo
FN:639,_ZN7testing8internal12PrintTupleToISt5tupleIJiiiEELm2EEEvRKT_St17integral_constantImXT0_EEPSo
FNDA:342,_ZN7testing8internal12PrintTupleToISt5tupleIJiiiEELm2EEEvRKT_St17integral_constantImXT0_EEPSo
FN:639,_ZN7testing8internal12PrintTupleToISt5tupleIJiiiEELm1EEEvRKT_St17integral_constantImXT0_EEPSo
FNDA:342,_ZN7testing8internal12PrintTupleToISt5tupleIJiiiEELm1EEEvRKT_St17integral_constantImXT0_EEPSo
FN:652,_ZN7testing8internal7PrintToIJiiEEEvRKSt5tupleIJDpT_EEPSo
FNDA:126,_ZN7testing8internal7PrintToIJiiEEEvRKSt5tupleIJDpT_EEPSo
FN:652,_ZN7testing8internal7PrintToIJiiiEEEvRKSt5tupleIJDpT_EEPSo
FNDA:342,_ZN7testing8internal7PrintToIJiiiEEEvRKSt5tupleIJDpT_EEPSo
FN:682,_ZN7testing8internal16UniversalPrinterISt5tupleIJiiiEEE5PrintERKS3_PSo
FNDA:342,_ZN7testing8internal16UniversalPrinterISt5tupleIJiiiEEE5PrintERKS3_PSo
FN:682,_ZN7testing8internal16UniversalPrinterIbE5PrintERKbPSo
FNDA:0,_ZN7testing8internal16UniversalPrinterIbE5PrintERKbPSo
FN:682,_ZN7testing8internal16UniversalPrinterIiE5PrintERKiPSo
FNDA:1278,_ZN7testing8internal16UniversalPrinterIiE5PrintERKiPSo
FN:682,_ZN7testing8internal16UniversalPrinterISt5tupleIJiiEEE5PrintERKS3_PSo
FNDA:126,_ZN7testing8internal16UniversalPrinterISt5tupleIJiiEEE5PrintERKS3_PSo
FN:864,_ZN7testing8internal21UniversalTersePrinterISt5tupleIJiiEEE5PrintERKS3_PSo
FNDA:126,_ZN7testing8internal21UniversalTersePrinterISt5tupleIJiiEEE5PrintERKS3_PSo
FN:864,_ZN7testing8internal21UniversalTersePrinterISt5tupleIJiiiEEE5PrintERKS3_PSo
FNDA:342,_ZN7testing8internal21UniversalTersePrinterISt5tupleIJiiiEEE5PrintERKS3_PSo
FN:864,_ZN7testing8internal21UniversalTersePrinterIbE5PrintERKbPSo
FNDA:0,_ZN7testing8internal21UniversalTersePrinterIbE5PrintERKbPSo
FN:864,_ZN7testing8internal21UniversalTersePrinterIiE5PrintERKiPSo
FNDA:0,_ZN7testing8internal21UniversalTersePrinterIiE5PrintERKiPSo
FN:976,_ZN7testing8internal14UniversalPrintIbEEvRKT_PSo
FNDA:0,_ZN7testing8internal14UniversalPrintIbEEvRKT_PSo
FN:976,_ZN7testing8internal14UniversalPrintIiEEvRKT_PSo
FNDA:0,_ZN7testing8internal14UniversalPrintIiEEvRKT_PSo
FN:976,_ZN7testing8internal14UniversalPrintISt5tupleIJiiEEEEvRKT_PSo
FNDA:126,_ZN7testing8internal14UniversalPrintISt5tupleIJiiEEEEvRKT_PSo
FN:976,_ZN7testing8internal14UniversalPrintISt5tupleIJiiiEEEEvRKT_PSo
FNDA:342,_ZN7testing8internal14UniversalPrintISt5tupleIJiiiEEEEvRKT_PSo
FN:1016,_ZN7testing13PrintToStringIiEENSt7__cxx1112basic_stringIcSt11char_traitsIcESaIcEEERKT_
FNDA:0,_ZN7testing13PrintToStringIiEENSt7__cxx1112basic_stringIcSt11char_traitsIcESaIcEEERKT_
FN:1016,_ZN7testing13PrintToStringIbEENSt7__cxx1112basic_stringIcSt11char_traitsIcESaIcEEERKT_
FNDA:0,_ZN7testing13PrintToStringIbEENSt7__cxx1112basic_stringIcSt11char_traitsIcESaIcEEERKT_
FN:1016,_ZN7testing13PrintToStringISt5tupleIJiiEEEENSt7__cxx1112basic_stringIcSt11char_traitsIcESaIcEEERKT_
FNDA:126,_ZN7testing13PrintToStringISt5tupleIJiiEEEENSt7__cxx1112basic_stringIcSt11char_traitsIcESaIcEEERKT_
FN:1016,_ZN7testing13PrintToStringISt5tupleIJiiiEEEENSt7__cxx1112basic_stringIcSt11char_traitsIcESaIcEEERKT_
FNDA:342,_ZN7testing13PrintToStringISt5tupleIJiiiEEEENSt7__cxx1112basic_stringIcSt11char_traitsIcESaIcEEERKT_
DA:212,1278
DA:215,1278
DA:216,1278
DA:306,1278
DA:312,1278
DA:313,1278
DA:333,0
DA:334,0
DA:333,0
DA:334,0
DA:333,0
DA:334,0
DA:413,0
DA:415,0
DA:413,0
DA:415,0
DA:413,0
DA:415,0
DA:440,1278
DA:441,1278
DA:442,1278
DA:459,0
DA:460,0
DA:461,0
DA:635,342
DA:636,342
DA:635,126
DA:636,126
DA:639,342
DA:641,342
DA:647,342
DA:648,342
DA:649,342
DA:639,342
DA:641,342
DA:645,342
DA:647,342
DA:648,342
DA:649,342
DA:639,126
DA:641,126
DA:647,126
DA:648,126
DA:649,126
DA:639,342
DA:641,342
DA:645,342
DA:647,342
DA:648,342
DA:649,342
DA:639,126
DA:641,126
DA:645,126
DA:647,126
DA:648,126
DA:649,126
DA:652,342
DA:653,342
DA:654,342
DA:655,342
DA:656,342
DA:652,126
DA:653,126
DA:654,126
DA:655,126
DA:656,126
DA:682,342
DA:691,342
DA:692,342
DA:682,126
DA:691,126
DA:692,126
DA:682,0
DA:691,0
DA:692,0
DA:682,1278
DA:691,1278
DA:692,1278
DA:864,342
DA:865,342
DA:866,342
DA:864,126
DA:865,126
DA:866,126
DA:864,0
DA:865,0
DA:866,0
DA:864,0
DA:865,0
DA:866,0
DA:976,342
DA:980,342
DA:981,342
DA:976,126
DA:980,126
DA:981,126
DA:976,0
DA:980,0
DA:981,0
DA:976,0
DA:980,0
DA:981,0
DA:1016,342
DA:1017,342
DA:1018,342
DA:1019,684
DA:1020,342
DA:1016,126
DA:1017,126
DA:1018,126
DA:1019,252
DA:1020,126
DA:1016,0
DA:1017,0
DA:1018,0
DA:1019,0
DA:1020,0
DA:1016,0
DA:1017,0
DA:1018,0
DA:1019,0
DA:1020,0
end_of_record
SF:/usr/include/gtest/internal/gtest-port.h
FN:977,_ZN7testing8internal8GTestLog9GetStreamEv
FNDA:0,_ZN7testing8internal8GTestLog9GetStreamEv
FN:1119,_ZN7testing8internal27CheckedDowncastToActualTypeIKNS0_30ValuesInIteratorRangeGeneratorISt5tupleIJiiiEEE8IteratorEKNS0_22ParamIteratorInterfaceIS4_EEEEPT_PT0_
FNDA:351,_ZN7testing8internal27CheckedDowncastToActualTypeIKNS0_30ValuesInIteratorRangeGeneratorISt5tupleIJiiiEEE8IteratorEKNS0_22ParamIteratorInterfaceIS4_EEEEPT_PT0_
FN:1119,_ZN7testing8internal27CheckedDowncastToActualTypeIKNS0_30ValuesInIteratorRangeGeneratorISt5tupleIJiiEEE8IteratorEKNS0_22ParamIteratorInterfaceIS4_EEEEPT_PT0_
FNDA:135,_ZN7testing8internal27CheckedDowncastToActualTypeIKNS0_30ValuesInIteratorRangeGeneratorISt5tupleIJiiEEE8IteratorEKNS0_22ParamIteratorInterfaceIS4_EEEEPT_PT0_
FN:1119,_ZN7testing8internal27CheckedDowncastToActualTypeINS0_26ParameterizedTestSuiteInfoI11FindFixtureEENS0_30ParameterizedTestSuiteInfoBaseEEEPT_PT0_
FNDA:3,_ZN7testing8internal27CheckedDowncastToActualTypeINS0_26ParameterizedTestSuiteInfoI11FindFixtureEENS0_30ParameterizedTestSuiteInfoBaseEEEPT_PT0_
FN:1119,_ZN7testing8internal27CheckedDowncastToActualTypeINS0_26ParameterizedTestSuiteInfoI11RankFixtureEENS0_30ParameterizedTestSuiteInfoBaseEEEPT_PT0_
FNDA:3,_ZN7testing8internal27CheckedDowncastToActualTypeINS0_26ParameterizedTestSuiteInfoI11RankFixtureEENS0_30ParameterizedTestSuiteInfoBaseEEEPT_PT0_
FN:1119,_ZN7testing8internal27CheckedDowncastToActualTypeINS0_26ParameterizedTestSuiteInfoI14MaximumFixtureEENS0_30ParameterizedTestSuiteInfoBaseEEEPT_PT0_
FNDA:3,_ZN7testing8internal27CheckedDowncastToActualTypeINS0_26ParameterizedTestSuiteInfoI14MaximumFixtureEENS0_30ParameterizedTestSuiteInfoBaseEEEPT_PT0_
FN:1119,_ZN7testing8internal27CheckedDowncastToActualTypeINS0_26ParameterizedTestSuiteInfoI14MinimumFixtureEENS0_30ParameterizedTestSuiteInfoBaseEEEPT_PT0_
FNDA:3,_ZN7testing8internal27CheckedDowncastToActualTypeINS0_26ParameterizedTestSuiteInfoI14MinimumFixtureEENS0_30ParameterizedTestSuiteInfoBaseEEEPT_PT0_
FN:1119,_ZN7testing8internal27CheckedDowncastToActualTypeINS0_26ParameterizedTestSuiteInfoI21RXRotateInsertFixtureEENS0_30ParameterizedTestSuiteInfoBaseEEEPT_PT0_
FNDA:3,_ZN7testing8internal27CheckedDowncastToActualTypeINS0_26ParameterizedTestSuiteInfoI21RXRotateInsertFixtureEENS0_30ParameterizedTestSuiteInfoBaseEEEPT_PT0_
FN:1119,_ZN7testing8internal27CheckedDowncastToActualTypeINS0_26ParameterizedTestSuiteInfoI21LXRotateInsertFixtureEENS0_30ParameterizedTestSuiteInfoBaseEEEPT_PT0_
FNDA:3,_ZN7testing8internal27CheckedDowncastToActualTypeINS0_26ParameterizedTestSuiteInfoI21LXRotateInsertFixtureEENS0_30ParameterizedTestSuiteInfoBaseEEEPT_PT0_
FN:1928,_ZN7testing8internal7IsAlNumEc
FNDA:804,_ZN7testing8internal7IsAlNumEc
FN:2130,_ZN7testing8internal5posix5AbortEv
FNDA:0,_ZN7testing8internal5posix5AbortEv
DA:977,0
DA:1119,351
DA:1121,351
DA:1127,351
DA:1119,135
DA:1121,135
DA:1127,135
DA:1119,3
DA:1121,3
DA:1127,3
DA:1119,3
DA:1121,3
DA:1127,3
DA:1119,3
DA:1121,3
DA:1127,3
DA:1119,3
DA:1121,3
DA:1127,3
DA:1119,3
DA:1121,3
DA:1127,3
DA:1119,3
DA:1121,3
DA:1127,3
DA:1928,804
DA:1929,804
DA:2130,0
end_of_record
SF:/usr/include/c++/11/bits/basic_string.h
FN:251,_ZNSt7__cxx1112basic_stringIcSt11char_traitsIcESaIcEE16_M_construct_auxIPcEEvT_S7_St12__false_type
FNDA:0,_ZNSt7__cxx1112basic_stringIcSt11char_traitsIcESaIcEE16_M_construct_auxIPcEEvT_S7_St12__false_type
FN:271,_ZNSt7__cxx1112basic_stringIcSt11char_traitsIcESaIcEE12_M_constructIPcEEvT_S7_
FNDA:0,_ZNSt7__cxx1112basic_stringIcSt11char_traitsIcESaIcEE12_M_constructIPcEEvT_S7_
FN:6132,_ZStplIcSt11char_traitsIcESaIcEENSt7__cxx1112basic_stringIT_T0_T1_EERKS8_PKS5_
FNDA:18,_ZStplIcSt11char_traitsIcESaIcEENSt7__cxx1112basic_stringIT_T0_T1_EERKS8_PKS5_
FN:6248,_ZSteqIcSt11char_traitsIcESaIcEEbRKNSt7__cxx1112basic_stringIT_T0_T1_EEPKS5_
FNDA:108,_ZSteqIcSt11char_traitsIcESaIcEEbRKNSt7__cxx1112basic_stringIT_T0_T1_EEPKS5_
FN:6340,_ZStltIcSt11char_traitsIcESaIcEEbRKNSt7__cxx1112basic_stringIT_T0_T1_EESA_
FNDA:5952,_ZStltIcSt11char_traitsIcESaIcEEbRKNSt7__cxx1112basic_stringIT_T0_T1_EESA_
DA:251,0
DA:255,0
DA:256,0
DA:271,0
DA:274,0
DA:275,0
DA:6132,18
DA:6135,18
DA:6136,18
DA:6137,18
DA:6138,0
DA:6248,108
DA:6250,108
DA:6340,5952
DA:6343,5952
end_of_record
SF:/usr/include/c++/11/bits/stl_pair.h
FN:322,_ZNSt4pairIPSt18_Rb_tree_node_baseS1_EC2IRS1_Lb1EEEOT_RKS1_
FNDA:0,_ZNSt4pairIPSt18_Rb_tree_node_baseS1_EC2IRS1_Lb1EEEOT_RKS1_
FN:352,_ZNSt4pairIPSt18_Rb_tree_node_baseS1_EC2IRPSt13_Rb_tree_nodeINSt7__cxx1112basic_stringIcSt11char_traitsIcESaIcEEEERS1_Lb1EEEOT_OT0_
FNDA:468,_ZNSt4pairIPSt18_Rb_tree_node_baseS1_EC2IRPSt13_Rb_tree_nodeINSt7__cxx1112basic_stringIcSt11char_traitsIcESaIcEEEERS1_Lb1EEEOT_OT0_
FN:352,_ZNSt4pairISt17_Rb_tree_iteratorINSt7__cxx1112basic_stringIcSt11char_traitsIcESaIcEEEEbEC2IS7_bLb1EEEOT_OT0_
FNDA:468,_ZNSt4pairISt17_Rb_tree_iteratorINSt7__cxx1112basic_stringIcSt11char_traitsIcESaIcEEEEbEC2IS7_bLb1EEEOT_OT0_
FN:352,_ZNSt4pairISt23_Rb_tree_const_iteratorINSt7__cxx1112basic_stringIcSt11char_traitsIcESaIcEEEEbEC2IRSt17_Rb_tree_iteratorIS6_ERbLb1EEEOT_OT0_
FNDA:468,_ZNSt4pairISt23_Rb_tree_const_iteratorINSt7__cxx1112basic_stringIcSt11char_traitsIcESaIcEEEEbEC2IRSt17_Rb_tree_iteratorIS6_ERbLb1EEEOT_OT0_
FN:401,_ZNSt4pairIiiEaSEOS0_
FNDA:6,_ZNSt4pairIiiEaSEOS0_
DA:322,0
DA:323,0
DA:352,468
DA:353,468
DA:352,468
DA:353,468
DA:352,468
DA:353,468
DA:401,6
DA:408,6
DA:409,6
DA:410,6
end_of_record
SF:/usr/include/gtest/internal/gtest-param-util.h
FN:59,_ZN7testing13TestParamInfoISt5tupleIJiiiEEEC2ERKS2_m
FNDA:342,_ZN7testing13TestParamInfoISt5tupleIJiiiEEEC2ERKS2_m
FN:59,_ZN7testing13TestParamInfoISt5tupleIJiiEEEC2ERKS2_m
FNDA:126,_ZN7testing13TestParamInfoISt5tupleIJiiEEEC2ERKS2_m
FN:95,_ZN7testing8internal22ParamIteratorInterfaceISt5tupleIJiiiEEED2Ev
FNDA:360,_ZN7testing8internal22ParamIteratorInterfaceISt5tupleIJiiiEEED2Ev
FN:95,_ZN7testing8internal22ParamIteratorInterfaceISt5tupleIJiiiEEED0Ev
FNDA:0,_ZN7testing8internal22ParamIteratorInterfaceISt5tupleIJiiiEEED0Ev
FN:95,_ZN7testing8internal22ParamIteratorInterfaceISt5tupleIJiiEEED2Ev
FNDA:144,_ZN7testing8internal22ParamIteratorInterfaceISt5tupleIJiiEEED2Ev
FN:95,_ZN7testing8internal22ParamIteratorInterfaceISt5tupleIJiiEEED0Ev
FNDA:0,_ZN7testing8internal22ParamIteratorInterfaceISt5tupleIJiiEEED0Ev
FN:137,_ZNK7testing8internal13ParamIteratorISt5tupleIJiiiEEEdeEv
FNDA:1026,_ZNK7testing8internal13ParamIteratorISt5tupleIJiiiEEEdeEv
FN:137,_ZNK7testing8internal13ParamIteratorISt5tupleIJiiEEEdeEv
FNDA:378,_ZNK7testing8internal13ParamIteratorISt5tupleIJiiEEEdeEv
FN:140,_ZN7testing8internal13ParamIteratorISt5tupleIJiiiEEEppEv
FNDA:342,_ZN7testing8internal13ParamIteratorISt5tupleIJiiiEEEppEv
FN:140,_ZN7testing8internal13ParamIteratorISt5tupleIJiiEEEppEv
FNDA:126,_ZN7testing8internal13ParamIteratorISt5tupleIJiiEEEppEv
FN:150,_ZNK7testing8internal13ParamIteratorISt5tupleIJiiEEEeqERKS4_
FNDA:135,_ZNK7testing8internal13ParamIteratorISt5tupleIJiiEEEeqERKS4_
FN:150,_ZNK7testing8internal13ParamIteratorISt5tupleIJiiiEEEeqERKS4_
FNDA:351,_ZNK7testing8internal13ParamIteratorISt5tupleIJiiiEEEeqERKS4_
FN:153,_ZNK7testing8internal13ParamIteratorISt5tupleIJiiEEEneERKS4_
FNDA:135,_ZNK7testing8internal13ParamIteratorISt5tupleIJiiEEEneERKS4_
FN:153,_ZNK7testing8internal13ParamIteratorISt5tupleIJiiiEEEneERKS4_
FNDA:351,_ZNK7testing8internal13ParamIteratorISt5tupleIJiiiEEEneERKS4_
FN:159,_ZN7testing8internal13ParamIteratorISt5tupleIJiiiEEEC2EPNS0_22ParamIteratorInterfaceIS3_EE
FNDA:360,_ZN7testing8internal13ParamIteratorISt5tupleIJiiiEEEC2EPNS0_22ParamIteratorInterfaceIS3_EE
FN:159,_ZN7testing8internal13ParamIteratorISt5tupleIJiiEEEC2EPNS0_22ParamIteratorInterfaceIS3_EE
FNDA:144,_ZN7testing8internal13ParamIteratorISt5tupleIJiiEEEC2EPNS0_22ParamIteratorInterfaceIS3_EE
FN:170,_ZN7testing8internal23ParamGeneratorInterfaceISt5tupleIJiiEEED2Ev
FNDA:9,_ZN7testing8internal23ParamGeneratorInterfaceISt5tupleIJiiEEED2Ev
FN:170,_ZN7testing8internal23ParamGeneratorInterfaceISt5tupleIJiiEEED0Ev
FNDA:0,_ZN7testing8internal23ParamGeneratorInterfaceISt5tupleIJiiEEED0Ev
FN:170,_ZN7testing8internal23ParamGeneratorInterfaceISt5tupleIJiiiEEED2Ev
FNDA:9,_ZN7testing8internal23ParamGeneratorInterfaceISt5tupleIJiiiEEED2Ev
FN:170,_ZN7testing8internal23ParamGeneratorInterfaceISt5tupleIJiiiEEED0Ev
FNDA:0,_ZN7testing8internal23ParamGeneratorInterfaceISt5tupleIJiiiEEED0Ev
FN:187,_ZN7testing8internal14ParamGeneratorISt5tupleIJiiEEEC2EPNS0_23ParamGeneratorInterfaceIS3_EE
FNDA:9,_ZN7testing8internal14ParamGeneratorISt5tupleIJiiEEEC2EPNS0_23ParamGeneratorInterfaceIS3_EE
FN:187,_ZN7testing8internal14ParamGeneratorISt5tupleIJiiiEEEC2EPNS0_23ParamGeneratorInterfaceIS3_EE
FNDA:9,_ZN7testing8internal14ParamGeneratorISt5tupleIJiiiEEEC2EPNS0_23ParamGeneratorInterfaceIS3_EE
FN:195,_ZNK7testing8internal14ParamGeneratorISt5tupleIJiiEEE5beginEv
FNDA:9,_ZNK7testing8internal14ParamGeneratorISt5tupleIJiiEEE5beginEv
FN:195,_ZNK7testing8internal14ParamGeneratorISt5tupleIJiiiEEE5beginEv
FNDA:9,_ZNK7testing8internal14ParamGeneratorISt5tupleIJiiiEEE5beginEv
FN:196,_ZNK7testing8internal14ParamGeneratorISt5tupleIJiiEEE3endEv
FNDA:135,_ZNK7testing8internal14ParamGeneratorISt5tupleIJiiEEE3endEv
FN:196,_ZNK7testing8internal14ParamGeneratorISt5tupleIJiiiEEE3endEv
FNDA:351,_ZNK7testing8internal14ParamGeneratorISt5tupleIJiiiEEE3endEv
FN:295,_ZN7testing8internal30ValuesInIteratorRangeGeneratorISt5tupleIJiiEEEC2IN9__gnu_cxx17__normal_iteratorIPKS3_St6vectorIS3_SaIS3_EEEEEET_SE_
FNDA:9,_ZN7testing8internal30ValuesInIteratorRangeGeneratorISt5tupleIJiiEEEC2IN9__gnu_cxx17__normal_iteratorIPKS3_St6vectorIS3_SaIS3_EEEEEET_SE_
FN:295,_ZN7testing8internal30ValuesInIteratorRangeGeneratorISt5tupleIJiiiEEEC2IN9__gnu_cxx17__normal_iteratorIPKS3_St6vectorIS3_SaIS3_EEEEEET_SE_
FNDA:9,_ZN7testing8internal30ValuesInIteratorRangeGeneratorISt5tupleIJiiiEEEC2IN9__gnu_cxx17__normal_iteratorIPKS3_St6vectorIS3_SaIS3_EEEEEET_SE_
FN:297,_ZN7testing8internal30ValuesInIteratorRangeGeneratorISt5tupleIJiiiEEED2Ev
FNDA:9,_ZN7testing8internal30ValuesInIteratorRangeGeneratorISt5tupleIJiiiEEED2Ev
FN:297,_ZN7testing8internal30ValuesInIteratorRangeGeneratorISt5tupleIJiiiEEED0Ev
FNDA:9,_ZN7testing8internal30ValuesInIteratorRangeGeneratorISt5tupleIJiiiEEED0Ev
FN:297,_ZN7testing8internal30ValuesInIteratorRangeGeneratorISt5tupleIJiiEEED2Ev
FNDA:9,_ZN7testing8internal30ValuesInIteratorRangeGeneratorISt5tupleIJiiEEED2Ev
FN:297,_ZN7testing8internal30ValuesInIteratorRangeGeneratorISt5tupleIJiiEEED0Ev
FNDA:9,_ZN7testing8internal30ValuesInIteratorRangeGeneratorISt5tupleIJiiEEED0Ev
FN:299,_ZNK7testing8internal30ValuesInIteratorRangeGeneratorISt5tupleIJiiiEEE5BeginEv
FNDA:9,_ZNK7testing8internal30ValuesInIteratorRangeGeneratorISt5tupleIJiiiEEE5BeginEv
FN:299,_ZNK7testing8internal30ValuesInIteratorRangeGeneratorISt5tupleIJiiEEE5BeginEv
FNDA:9,_ZNK7testing8internal30ValuesInIteratorRangeGeneratorISt5tupleIJiiEEE5BeginEv
FN:302,_ZNK7testing8internal30ValuesInIteratorRangeGeneratorISt5tupleIJiiEEE3EndEv
FNDA:135,_ZNK7testing8internal30ValuesInIteratorRangeGeneratorISt5tupleIJiiEEE3EndEv
FN:302,_ZNK7testing8internal30ValuesInIteratorRangeGeneratorISt5tupleIJiiiEEE3EndEv
FNDA:351,_ZNK7testing8internal30ValuesInIteratorRangeGeneratorISt5tupleIJiiiEEE3EndEv
FN:311,_ZN7testing8internal30ValuesInIteratorRangeGeneratorISt5tupleIJiiiEEE8IteratorC2EPKNS0_23ParamGeneratorInterfaceIS3_EEN9__gnu_cxx17__normal_iteratorIPKS3_St6vectorIS3_SaIS3_EEEE
FNDA:360,_ZN7testing8internal30ValuesInIteratorRangeGeneratorISt5tupleIJiiiEEE8IteratorC2EPKNS0_23ParamGeneratorInterfaceIS3_EEN9__gnu_cxx17__normal_iteratorIPKS3_St6vectorIS3_SaIS3_EEEE
FN:311,_ZN7testing8internal30ValuesInIteratorRangeGeneratorISt5tupleIJiiEEE8IteratorC2EPKNS0_23ParamGeneratorInterfaceIS3_EEN9__gnu_cxx17__normal_iteratorIPKS3_St6vectorIS3_SaIS3_EEEE
FNDA:144,_ZN7testing8internal30ValuesInIteratorRangeGeneratorISt5tupleIJiiEEE8IteratorC2EPKNS0_23ParamGeneratorInterfaceIS3_EEN9__gnu_cxx17__normal_iteratorIPKS3_St6vectorIS3_SaIS3_EEEE
FN:314,_ZN7testing8internal30ValuesInIteratorRangeGeneratorISt5tupleIJiiiEEE8IteratorD0Ev
FNDA:360,_ZN7testing8internal30ValuesInIteratorRangeGeneratorISt5tupleIJiiiEEE8IteratorD0Ev
FN:314,_ZN7testing8internal30ValuesInIteratorRangeGeneratorISt5tupleIJiiiEEE8IteratorD2Ev
FNDA:360,_ZN7testing8internal30ValuesInIteratorRangeGeneratorISt5tupleIJiiiEEE8IteratorD2Ev
FN:314,_ZN7testing8internal30ValuesInIteratorRangeGeneratorISt5tupleIJiiEEE8IteratorD0Ev
FNDA:144,_ZN7testing8internal30ValuesInIteratorRangeGeneratorISt5tupleIJiiEEE8IteratorD0Ev
FN:314,_ZN7testing8internal30ValuesInIteratorRangeGeneratorISt5tupleIJiiEEE8IteratorD2Ev
FNDA:144,_ZN7testing8internal30ValuesInIteratorRangeGeneratorISt5tupleIJiiEEE8IteratorD2Ev
FN:316,_ZNK7testing8internal30ValuesInIteratorRangeGeneratorISt5tupleIJiiiEEE8Iterator13BaseGeneratorEv
FNDA:702,_ZNK7testing8internal30ValuesInIteratorRangeGeneratorISt5tupleIJiiiEEE8Iterator13BaseGeneratorEv
FN:316,_ZNK7testing8internal30ValuesInIteratorRangeGeneratorISt5tupleIJiiEEE8Iterator13BaseGeneratorEv
FNDA:270,_ZNK7testing8internal30ValuesInIteratorRangeGeneratorISt5tupleIJiiEEE8Iterator13BaseGeneratorEv
FN:319,_ZN7testing8internal30ValuesInIteratorRangeGeneratorISt5tupleIJiiiEEE8Iterator7AdvanceEv
FNDA:342,_ZN7testing8internal30ValuesInIteratorRangeGeneratorISt5tupleIJiiiEEE8Iterator7AdvanceEv
FN:319,_ZN7testing8internal30ValuesInIteratorRangeGeneratorISt5tupleIJiiEEE8Iterator7AdvanceEv
FNDA:126,_ZN7testing8internal30ValuesInIteratorRangeGeneratorISt5tupleIJiiEEE8Iterator7AdvanceEv
FN:323,_ZNK7testing8internal30ValuesInIteratorRangeGeneratorISt5tupleIJiiEEE8Iterator5CloneEv
FNDA:0,_ZNK7testing8internal30ValuesInIteratorRangeGeneratorISt5tupleIJiiEEE8Iterator5CloneEv
FN:323,_ZNK7testing8internal30ValuesInIteratorRangeGeneratorISt5tupleIJiiiEEE8Iterator5CloneEv
FNDA:0,_ZNK7testing8internal30ValuesInIteratorRangeGeneratorISt5tupleIJiiiEEE8Iterator5CloneEv
FN:333,_ZNK7testing8internal30ValuesInIteratorRangeGeneratorISt5tupleIJiiEEE8Iterator7CurrentEv
FNDA:378,_ZNK7testing8internal30ValuesInIteratorRangeGeneratorISt5tupleIJiiEEE8Iterator7CurrentEv
FN:333,_ZNK7testing8internal30ValuesInIteratorRangeGeneratorISt5tupleIJiiiEEE8Iterator7CurrentEv
FNDA:1026,_ZNK7testing8internal30ValuesInIteratorRangeGeneratorISt5tupleIJiiiEEE8Iterator7CurrentEv
FN:337,_ZNK7testing8internal30ValuesInIteratorRangeGeneratorISt5tupleIJiiEEE8Iterator6EqualsERKNS0_22ParamIteratorInterfaceIS3_EE
FNDA:135,_ZNK7testing8internal30ValuesInIteratorRangeGeneratorISt5tupleIJiiEEE8Iterator6EqualsERKNS0_22ParamIteratorInterfaceIS3_EE
FN:337,_ZNK7testing8internal30ValuesInIteratorRangeGeneratorISt5tupleIJiiiEEE8Iterator6EqualsERKNS0_22ParamIteratorInterfaceIS3_EE
FNDA:351,_ZNK7testing8internal30ValuesInIteratorRangeGeneratorISt5tupleIJiiiEEE8Iterator6EqualsERKNS0_22ParamIteratorInterfaceIS3_EE
FN:348,_ZN7testing8internal30ValuesInIteratorRangeGeneratorISt5tupleIJiiiEEE8IteratorC2ERKS5_
FNDA:0,_ZN7testing8internal30ValuesInIteratorRangeGeneratorISt5tupleIJiiiEEE8IteratorC2ERKS5_
FN:348,_ZN7testing8internal30ValuesInIteratorRangeGeneratorISt5tupleIJiiEEE8IteratorC2ERKS5_
FNDA:0,_ZN7testing8internal30ValuesInIteratorRangeGeneratorISt5tupleIJiiEEE8IteratorC2ERKS5_
FN:376,_ZN7testing8internal16DefaultParamNameISt5tupleIJiiEEEENSt7__cxx1112basic_stringIcSt11char_traitsIcESaIcEEERKNS_13TestParamInfoIT_EE
FNDA:126,_ZN7testing8internal16DefaultParamNameISt5tupleIJiiEEEENSt7__cxx1112basic_stringIcSt11char_traitsIcESaIcEEERKNS_13TestParamInfoIT_EE
FN:376,_ZN7testing8internal16DefaultParamNameISt5tupleIJiiiEEEENSt7__cxx1112basic_stringIcSt11char_traitsIcESaIcEEERKNS_13TestParamInfoIT_EE
FNDA:342,_ZN7testing8internal16DefaultParamNameISt5tupleIJiiiEEEENSt7__cxx1112basic_stringIcSt11char_traitsIcESaIcEEERKNS_13TestParamInfoIT_EE
FN:387,_ZN7testing8internal12TestNotEmptyIFNSt7__cxx1112basic_stringIcSt11char_traitsIcESaIcEEERKNS_13TestParamInfoISt5tupleIJiiEEEEEEEvRKT_
FNDA:0,_ZN7testing8internal12TestNotEmptyIFNSt7__cxx1112basic_stringIcSt11char_traitsIcESaIcEEERKNS_13TestParamInfoISt5tupleIJiiEEEEEEEvRKT_
FN:387,_ZN7testing8internal12TestNotEmptyIFNSt7__cxx1112basic_stringIcSt11char_traitsIcESaIcEEERKNS_13TestParamInfoISt5tupleIJiiiEEEEEEEvRKT_
FNDA:0,_ZN7testing8internal12TestNotEmptyIFNSt7__cxx1112basic_stringIcSt11char_traitsIcESaIcEEERKNS_13TestParamInfoISt5tupleIJiiiEEEEEEEvRKT_
FN:397,_ZN7testing8internal24ParameterizedTestFactoryI25FindFixture_FindTest_TestEC2ESt5tupleIJiiEE
FNDA:114,_ZN7testing8internal24ParameterizedTestFactoryI25FindFixture_FindTest_TestEC2ESt5tupleIJiiEE
FN:397,_ZN7testing8internal24ParameterizedTestFactoryI45LXRotateInsertFixture_LXRotateInsertTest_TestEC2ESt5tupleIJiiEE
FNDA:6,_ZN7testing8internal24ParameterizedTestFactoryI45LXRotateInsertFixture_LXRotateInsertTest_TestEC2ESt5tupleIJiiEE
FN:397,_ZN7testing8internal24ParameterizedTestFactoryI45RXRotateInsertFixture_RXRotateInsertTest_TestEC2ESt5tupleIJiiEE
FNDA:6,_ZN7testing8internal24ParameterizedTestFactoryI45RXRotateInsertFixture_RXRotateInsertTest_TestEC2ESt5tupleIJiiEE
FN:397,_ZN7testing8internal24ParameterizedTestFactoryI31MinimumFixture_MinimumTest_TestEC2ESt5tupleIJiiiEE
FNDA:114,_ZN7testing8internal24ParameterizedTestFactoryI31MinimumFixture_MinimumTest_TestEC2ESt5tupleIJiiiEE
FN:397,_ZN7testing8internal24ParameterizedTestFactoryI31MaximumFixture_MaximumTest_TestEC2ESt5tupleIJiiiEE
FNDA:114,_ZN7testing8internal24ParameterizedTestFactoryI31MaximumFixture_MaximumTest_TestEC2ESt5tupleIJiiiEE
FN:397,_ZN7testing8internal24ParameterizedTestFactoryI25RankFixture_RankTest_TestEC2ESt5tupleIJiiiEE
FNDA:114,_ZN7testing8internal24ParameterizedTestFactoryI25RankFixture_RankTest_TestEC2ESt5tupleIJiiiEE
FN:399,_ZN7testing8internal24ParameterizedTestFactoryI25RankFixture_RankTest_TestE10CreateTestEv
FNDA:114,_ZN7testing8internal24ParameterizedTestFactoryI25RankFixture_RankTest_TestE10CreateTestEv
FN:399,_ZN7testing8internal24ParameterizedTestFactoryI45RXRotateInsertFixture_RXRotateInsertTest_TestE10CreateTestEv
FNDA:6,_ZN7testing8internal24ParameterizedTestFactoryI45RXRotateInsertFixture_RXRotateInsertTest_TestE10CreateTestEv
FN:399,_ZN7testing8internal24ParameterizedTestFactoryI45LXRotateInsertFixture_LXRotateInsertTest_TestE10CreateTestEv
FNDA:6,_ZN7testing8internal24ParameterizedTestFactoryI45LXRotateInsertFixture_LXRotateInsertTest_TestE10CreateTestEv
FN:399,_ZN7testing8internal24ParameterizedTestFactoryI31MinimumFixture_MinimumTest_TestE10CreateTestEv
FNDA:114,_ZN7testing8internal24ParameterizedTestFactoryI31MinimumFixture_MinimumTest_TestE10CreateTestEv
FN:399,_ZN7testing8internal24ParameterizedTestFactoryI31MaximumFixture_MaximumTest_TestE10CreateTestEv
FNDA:114,_ZN7testing8internal24ParameterizedTestFactoryI31MaximumFixture_MaximumTest_TestE10CreateTestEv
FN:399,_ZN7testing8internal24ParameterizedTestFactoryI25FindFixture_FindTest_TestE10CreateTestEv
FNDA:114,_ZN7testing8internal24ParameterizedTestFactoryI25FindFixture_FindTest_TestE10CreateTestEv
FN:417,_ZN7testing8internal19TestMetaFactoryBaseISt5tupleIJiiEEED2Ev
FNDA:9,_ZN7testing8internal19TestMetaFactoryBaseISt5tupleIJiiEEED2Ev
FN:417,_ZN7testing8internal19TestMetaFactoryBaseISt5tupleIJiiiEEED0Ev
FNDA:0,_ZN7testing8internal19TestMetaFactoryBaseISt5tupleIJiiiEEED0Ev
FN:417,_ZN7testing8internal19TestMetaFactoryBaseISt5tupleIJiiiEEED2Ev
FNDA:9,_ZN7testing8internal19TestMetaFactoryBaseISt5tupleIJiiiEEED2Ev
FN:417,_ZN7testing8internal19TestMetaFactoryBaseISt5tupleIJiiEEED0Ev
FNDA:0,_ZN7testing8internal19TestMetaFactoryBaseISt5tupleIJiiEEED0Ev
FN:436,_ZN7testing8internal15TestMetaFactoryI25RankFixture_RankTest_TestEC2Ev
FNDA:3,_ZN7testing8internal15TestMetaFactoryI25RankFixture_RankTest_TestEC2Ev
FN:436,_ZN7testing8internal15TestMetaFactoryI25FindFixture_FindTest_TestEC2Ev
FNDA:3,_ZN7testing8internal15TestMetaFactoryI25FindFixture_FindTest_TestEC2Ev
FN:436,_ZN7testing8internal15TestMetaFactoryI45LXRotateInsertFixture_LXRotateInsertTest_TestEC2Ev
FNDA:3,_ZN7testing8internal15TestMetaFactoryI45LXRotateInsertFixture_LXRotateInsertTest_TestEC2Ev
FN:436,_ZN7testing8internal15TestMetaFactoryI31MaximumFixture_MaximumTest_TestEC2Ev
FNDA:3,_ZN7testing8internal15TestMetaFactoryI31MaximumFixture_MaximumTest_TestEC2Ev
FN:436,_ZN7testing8internal15TestMetaFactoryI31MinimumFixture_MinimumTest_TestEC2Ev
FNDA:3,_ZN7testing8internal15TestMetaFactoryI31MinimumFixture_MinimumTest_TestEC2Ev
FN:436,_ZN7testing8internal15TestMetaFactoryI45RXRotateInsertFixture_RXRotateInsertTest_TestEC2Ev
FNDA:3,_ZN7testing8internal15TestMetaFactoryI45RXRotateInsertFixture_RXRotateInsertTest_TestEC2Ev
FN:438,_ZN7testing8internal15TestMetaFactoryI25FindFixture_FindTest_TestE17CreateTestFactoryESt5tupleIJiiEE
FNDA:114,_ZN7testing8internal15TestMetaFactoryI25FindFixture_FindTest_TestE17CreateTestFactoryESt5tupleIJiiEE
FN:438,_ZN7testing8internal15TestMetaFactoryI31MaximumFixture_MaximumTest_TestE17CreateTestFactoryESt5tupleIJiiiEE
FNDA:114,_ZN7testing8internal15TestMetaFactoryI31MaximumFixture_MaximumTest_TestE17CreateTestFactoryESt5tupleIJiiiEE
FN:438,_ZN7testing8internal15TestMetaFactoryI31MinimumFixture_MinimumTest_TestE17CreateTestFactoryESt5tupleIJiiiEE
FNDA:114,_ZN7testing8internal15TestMetaFactoryI31MinimumFixture_MinimumTest_TestE17CreateTestFactoryESt5tupleIJiiiEE
FN:438,_ZN7testing8internal15TestMetaFactoryI45RXRotateInsertFixture_RXRotateInsertTest_TestE17CreateTestFactoryESt5tupleIJiiEE
FNDA:6,_ZN7testing8internal15TestMetaFactoryI45RXRotateInsertFixture_RXRotateInsertTest_TestE17CreateTestFactoryESt5tupleIJiiEE
FN:438,_ZN7testing8internal15TestMetaFactoryI45LXRotateInsertFixture_LXRotateInsertTest_TestE17CreateTestFactoryESt5tupleIJiiEE
FNDA:6,_ZN7testing8internal15TestMetaFactoryI45LXRotateInsertFixture_LXRotateInsertTest_TestE17CreateTestFactoryESt5tupleIJiiEE
FN:438,_ZN7testing8internal15TestMetaFactoryI25RankFixture_RankTest_TestE17CreateTestFactoryESt5tupleIJiiiEE
FNDA:114,_ZN7testing8internal15TestMetaFactoryI25RankFixture_RankTest_TestE17CreateTestFactoryESt5tupleIJiiiEE
FN:458,_ZN7testing8internal30ParameterizedTestSuiteInfoBaseD2Ev
FNDA:18,_ZN7testing8internal30ParameterizedTestSuiteInfoBaseD2Ev
FN:458,_ZN7testing8internal30ParameterizedTestSuiteInfoBaseD0Ev
FNDA:0,_ZN7testing8internal30ParameterizedTestSuiteInfoBaseD0Ev
FN:471,_ZN7testing8internal30ParameterizedTestSuiteInfoBaseC2Ev
FNDA:18,_ZN7testing8internal30ParameterizedTestSuiteInfoBaseC2Ev
FN:506,_ZN7testing8internal26ParameterizedTestSuiteInfoI21LXRotateInsertFixtureEC2EPKcNS0_12CodeLocationE
FNDA:3,_ZN7testing8internal26ParameterizedTestSuiteInfoI21LXRotateInsertFixtureEC2EPKcNS0_12CodeLocationE
FN:506,_ZN7testing8internal26ParameterizedTestSuiteInfoI21RXRotateInsertFixtureEC2EPKcNS0_12CodeLocationE
FNDA:3,_ZN7testing8internal26ParameterizedTestSuiteInfoI21RXRotateInsertFixtureEC2EPKcNS0_12CodeLocationE
FN:506,_ZN7testing8internal26ParameterizedTestSuiteInfoI14MinimumFixtureEC2EPKcNS0_12CodeLocationE
FNDA:3,_ZN7testing8internal26ParameterizedTestSuiteInfoI14MinimumFixtureEC2EPKcNS0_12CodeLocationE
FN:506,_ZN7testing8internal26ParameterizedTestSuiteInfoI14MaximumFixtureEC2EPKcNS0_12CodeLocationE
FNDA:3,_ZN7testing8internal26ParameterizedTestSuiteInfoI14MaximumFixtureEC2EPKcNS0_12CodeLocationE
FN:506,_ZN7testing8internal26ParameterizedTestSuiteInfoI11RankFixtureEC2EPKcNS0_12CodeLocationE
FNDA:3,_ZN7testing8internal26ParameterizedTestSuiteInfoI11RankFixtureEC2EPKcNS0_12CodeLocationE
FN:506,_ZN7testing8internal26ParameterizedTestSuiteInfoI11FindFixtureEC2EPKcNS0_12CodeLocationE
FNDA:3,_ZN7testing8internal26ParameterizedTestSuiteInfoI11FindFixtureEC2EPKcNS0_12CodeLocationE
FN:511,_ZNK7testing8internal26ParameterizedTestSuiteInfoI11RankFixtureE16GetTestSuiteNameB5cxx11Ev
FNDA:9,_ZNK7testing8internal26ParameterizedTestSuiteInfoI11RankFixtureE16GetTestSuiteNameB5cxx11Ev
FN:511,_ZNK7testing8internal26ParameterizedTestSuiteInfoI11FindFixtureE16GetTestSuiteNameB5cxx11Ev
FNDA:3,_ZNK7testing8internal26ParameterizedTestSuiteInfoI11FindFixtureE16GetTestSuiteNameB5cxx11Ev
FN:511,_ZNK7testing8internal26ParameterizedTestSuiteInfoI21LXRotateInsertFixtureE16GetTestSuiteNameB5cxx11Ev
FNDA:33,_ZNK7testing8internal26ParameterizedTestSuiteInfoI21LXRotateInsertFixtureE16GetTestSuiteNameB5cxx11Ev
FN:511,_ZNK7testing8internal26ParameterizedTestSuiteInfoI21RXRotateInsertFixtureE16GetTestSuiteNameB5cxx11Ev
FNDA:27,_ZNK7testing8internal26ParameterizedTestSuiteInfoI21RXRotateInsertFixtureE16GetTestSuiteNameB5cxx11Ev
FN:511,_ZNK7testing8internal26ParameterizedTestSuiteInfoI14MaximumFixtureE16GetTestSuiteNameB5cxx11Ev
FNDA:15,_ZNK7testing8internal26ParameterizedTestSuiteInfoI14MaximumFixtureE16GetTestSuiteNameB5cxx11Ev
FN:511,_ZNK7testing8internal26ParameterizedTestSuiteInfoI14MinimumFixtureE16GetTestSuiteNameB5cxx11Ev
FNDA:21,_ZNK7testing8internal26ParameterizedTestSuiteInfoI14MinimumFixtureE16GetTestSuiteNameB5cxx11Ev
FN:515,_ZNK7testing8internal26ParameterizedTestSuiteInfoI14MinimumFixtureE18GetTestSuiteTypeIdEv
FNDA:117,_ZNK7testing8internal26ParameterizedTestSuiteInfoI14MinimumFixtureE18GetTestSuiteTypeIdEv
FN:515,_ZNK7testing8internal26ParameterizedTestSuiteInfoI11FindFixtureE18GetTestSuiteTypeIdEv
FNDA:117,_ZNK7testing8internal26ParameterizedTestSuiteInfoI11FindFixtureE18GetTestSuiteTypeIdEv
FN:515,_ZNK7testing8internal26ParameterizedTestSuiteInfoI11RankFixtureE18GetTestSuiteTypeIdEv
FNDA:117,_ZNK7testing8internal26ParameterizedTestSuiteInfoI11RankFixtureE18GetTestSuiteTypeIdEv
FN:515,_ZNK7testing8internal26ParameterizedTestSuiteInfoI21RXRotateInsertFixtureE18GetTestSuiteTypeIdEv
FNDA:9,_ZNK7testing8internal26ParameterizedTestSuiteInfoI21RXRotateInsertFixtureE18GetTestSuiteTypeIdEv
FN:515,_ZNK7testing8internal26ParameterizedTestSuiteInfoI21LXRotateInsertFixtureE18GetTestSuiteTypeIdEv
FNDA:9,_ZNK7testing8internal26ParameterizedTestSuiteInfoI21LXRotateInsertFixtureE18GetTestSuiteTypeIdEv
FN:515,_ZNK7testing8internal26ParameterizedTestSuiteInfoI14MaximumFixtureE18GetTestSuiteTypeIdEv
FNDA:117,_ZNK7testing8internal26ParameterizedTestSuiteInfoI14MaximumFixtureE18GetTestSuiteTypeIdEv
FN:522,_ZN7testing8internal26ParameterizedTestSuiteInfoI14MaximumFixtureE14AddTestPatternEPKcS5_PNS0_19TestMetaFactoryBaseISt5tupleIJiiiEEEENS0_12CodeLocationE
FNDA:3,_ZN7testing8internal26ParameterizedTestSuiteInfoI14MaximumFixtureE14AddTestPatternEPKcS5_PNS0_19TestMetaFactoryBaseISt5tupleIJiiiEEEENS0_12CodeLocationE
FN:522,_ZN7testing8internal26ParameterizedTestSuiteInfoI21LXRotateInsertFixtureE14AddTestPatternEPKcS5_PNS0_19TestMetaFactoryBaseISt5tupleIJiiEEEENS0_12CodeLocationE
FNDA:3,_ZN7testing8internal26ParameterizedTestSuiteInfoI21LXRotateInsertFixtureE14AddTestPatternEPKcS5_PNS0_19TestMetaFactoryBaseISt5tupleIJiiEEEENS0_12CodeLocationE
FN:522,_ZN7testing8internal26ParameterizedTestSuiteInfoI21RXRotateInsertFixtureE14AddTestPatternEPKcS5_PNS0_19TestMetaFactoryBaseISt5tupleIJiiEEEENS0_12CodeLocationE
FNDA:3,_ZN7testing8internal26ParameterizedTestSuiteInfoI21RXRotateInsertFixtureE14AddTestPatternEPKcS5_PNS0_19TestMetaFactoryBaseISt5tupleIJiiEEEENS0_12CodeLocationE
FN:522,_ZN7testing8internal26ParameterizedTestSuiteInfoI14MinimumFixtureE14AddTestPatternEPKcS5_PNS0_19TestMetaFactoryBaseISt5tupleIJiiiEEEENS0_12CodeLocationE
FNDA:3,_ZN7testing8internal26ParameterizedTestSuiteInfoI14MinimumFixtureE14AddTestPatternEPKcS5_PNS0_19TestMetaFactoryBaseISt5tupleIJiiiEEEENS0_12CodeLocationE
FN:522,_ZN7testing8internal26ParameterizedTestSuiteInfoI11RankFixtureE14AddTestPatternEPKcS5_PNS0_19TestMetaFactoryBaseISt5tupleIJiiiEEEENS0_12CodeLocationE
FNDA:3,_ZN7testing8internal26ParameterizedTestSuiteInfoI11RankFixtureE14AddTestPatternEPKcS5_PNS0_19TestMetaFactoryBaseISt5tupleIJiiiEEEENS0_12CodeLocationE
FN:522,_ZN7testing8internal26ParameterizedTestSuiteInfoI11FindFixtureE14AddTestPatternEPKcS5_PNS0_19TestMetaFactoryBaseISt5tupleIJiiEEEENS0_12CodeLocationE
FNDA:3,_ZN7testing8internal26ParameterizedTestSuiteInfoI11FindFixtureE14AddTestPatternEPKcS5_PNS0_19TestMetaFactoryBaseISt5tupleIJiiEEEENS0_12CodeLocationE
FN:530,_ZN7testing8internal26ParameterizedTestSuiteInfoI11FindFixtureE25AddTestSuiteInstantiationERKNSt7__cxx1112basic_stringIcSt11char_traitsIcESaIcEEEPFNS0_14ParamGeneratorISt5tupleIJiiEEEEvEPFS9_RKNS_13TestParamInfoISE_EEEPKci
FNDA:3,_ZN7testing8internal26ParameterizedTestSuiteInfoI11FindFixtureE25AddTestSuiteInstantiationERKNSt7__cxx1112basic_stringIcSt11char_traitsIcESaIcEEEPFNS0_14ParamGeneratorISt5tupleIJiiEEEEvEPFS9_RKNS_13TestParamInfoISE_EEEPKci
FN:530,_ZN7testing8internal26ParameterizedTestSuiteInfoI11RankFixtureE25AddTestSuiteInstantiationERKNSt7__cxx1112basic_stringIcSt11char_traitsIcESaIcEEEPFNS0_14ParamGeneratorISt5tupleIJiiiEEEEvEPFS9_RKNS_13TestParamInfoISE_EEEPKci
FNDA:3,_ZN7testing8internal26ParameterizedTestSuiteInfoI11RankFixtureE25AddTestSuiteInstantiationERKNSt7__cxx1112basic_stringIcSt11char_traitsIcESaIcEEEPFNS0_14ParamGeneratorISt5tupleIJiiiEEEEvEPFS9_RKNS_13TestParamInfoISE_EEEPKci
FN:530,_ZN7testing8internal26ParameterizedTestSuiteInfoI21LXRotateInsertFixtureE25AddTestSuiteInstantiationERKNSt7__cxx1112basic_stringIcSt11char_traitsIcESaIcEEEPFNS0_14ParamGeneratorISt5tupleIJiiEEEEvEPFS9_RKNS_13TestParamInfoISE_EEEPKci
FNDA:3,_ZN7testing8internal26ParameterizedTestSuiteInfoI21LXRotateInsertFixtureE25AddTestSuiteInstantiationERKNSt7__cxx1112basic_stringIcSt11char_traitsIcESaIcEEEPFNS0_14ParamGeneratorISt5tupleIJiiEEEEvEPFS9_RKNS_13TestParamInfoISE_EEEPKci
FN:530,_ZN7testing8internal26ParameterizedTestSuiteInfoI14MaximumFixtureE25AddTestSuiteInstantiationERKNSt7__cxx1112basic_stringIcSt11char_traitsIcESaIcEEEPFNS0_14ParamGeneratorISt5tupleIJiiiEEEEvEPFS9_RKNS_13TestParamInfoISE_EEEPKci
FNDA:3,_ZN7testing8internal26ParameterizedTestSuiteInfoI14MaximumFixtureE25AddTestSuiteInstantiationERKNSt7__cxx1112basic_stringIcSt11char_traitsIcESaIcEEEPFNS0_14ParamGeneratorISt5tupleIJiiiEEEEvEPFS9_RKNS_13TestParamInfoISE_EEEPKci
FN:530,_ZN7testing8internal26ParameterizedTestSuiteInfoI21RXRotateInsertFixtureE25AddTestSuiteInstantiationERKNSt7__cxx1112basic_stringIcSt11char_traitsIcESaIcEEEPFNS0_14ParamGeneratorISt5tupleIJiiEEEEvEPFS9_RKNS_13TestParamInfoISE_EEEPKci
FNDA:3,_ZN7testing8internal26ParameterizedTestSuiteInfoI21RXRotateInsertFixtureE25AddTestSuiteInstantiationERKNSt7__cxx1112basic_stringIcSt11char_traitsIcESaIcEEEPFNS0_14ParamGeneratorISt5tupleIJiiEEEEvEPFS9_RKNS_13TestParamInfoISE_EEEPKci
FN:530,_ZN7testing8internal26ParameterizedTestSuiteInfoI14MinimumFixtureE25AddTestSuiteInstantiationERKNSt7__cxx1112basic_stringIcSt11char_traitsIcESaIcEEEPFNS0_14ParamGeneratorISt5tupleIJiiiEEEEvEPFS9_RKNS_13TestParamInfoISE_EEEPKci
FNDA:3,_ZN7testing8internal26ParameterizedTestSuiteInfoI14MinimumFixtureE25AddTestSuiteInstantiationERKNSt7__cxx1112basic_stringIcSt11char_traitsIcESaIcEEEPFNS0_14ParamGeneratorISt5tupleIJiiiEEEEvEPFS9_RKNS_13TestParamInfoISE_EEEPKci
FN:543,_ZN7testing8internal26ParameterizedTestSuiteInfoI21LXRotateInsertFixtureE13RegisterTestsEv
FNDA:3,_ZN7testing8internal26ParameterizedTestSuiteInfoI21LXRotateInsertFixtureE13RegisterTestsEv
FN:543,_ZN7testing8internal26ParameterizedTestSuiteInfoI11RankFixtureE13RegisterTestsEv
FNDA:3,_ZN7testing8internal26ParameterizedTestSuiteInfoI11RankFixtureE13RegisterTestsEv
FN:543,_ZN7testing8internal26ParameterizedTestSuiteInfoI21RXRotateInsertFixtureE13RegisterTestsEv
FNDA:3,_ZN7testing8internal26ParameterizedTestSuiteInfoI21RXRotateInsertFixtureE13RegisterTestsEv
FN:543,_ZN7testing8internal26ParameterizedTestSuiteInfoI14MinimumFixtureE13RegisterTestsEv
FNDA:3,_ZN7testing8internal26ParameterizedTestSuiteInfoI14MinimumFixtureE13RegisterTestsEv
FN:543,_ZN7testing8internal26ParameterizedTestSuiteInfoI14MaximumFixtureE13RegisterTestsEv
FNDA:3,_ZN7testing8internal26ParameterizedTestSuiteInfoI14MaximumFixtureE13RegisterTestsEv
FN:543,_ZN7testing8internal26ParameterizedTestSuiteInfoI11FindFixtureE13RegisterTestsEv
FNDA:3,_ZN7testing8internal26ParameterizedTestSuiteInfoI11FindFixtureE13RegisterTestsEv
FN:613,_ZN7testing8internal26ParameterizedTestSuiteInfoI11FindFixtureE8TestInfoC2EPKcS6_PNS0_19TestMetaFactoryBaseISt5tupleIJiiEEEENS0_12CodeLocationE
FNDA:3,_ZN7testing8internal26ParameterizedTestSuiteInfoI11FindFixtureE8TestInfoC2EPKcS6_PNS0_19TestMetaFactoryBaseISt5tupleIJiiEEEENS0_12CodeLocationE
FN:613,_ZN7testing8internal26ParameterizedTestSuiteInfoI21RXRotateInsertFixtureE8TestInfoC2EPKcS6_PNS0_19TestMetaFactoryBaseISt5tupleIJiiEEEENS0_12CodeLocationE
FNDA:3,_ZN7testing8internal26ParameterizedTestSuiteInfoI21RXRotateInsertFixtureE8TestInfoC2EPKcS6_PNS0_19TestMetaFactoryBaseISt5tupleIJiiEEEENS0_12CodeLocationE
FN:613,_ZN7testing8internal26ParameterizedTestSuiteInfoI21LXRotateInsertFixtureE8TestInfoC2EPKcS6_PNS0_19TestMetaFactoryBaseISt5tupleIJiiEEEENS0_12CodeLocationE
FNDA:3,_ZN7testing8internal26ParameterizedTestSuiteInfoI21LXRotateInsertFixtureE8TestInfoC2EPKcS6_PNS0_19TestMetaFactoryBaseISt5tupleIJiiEEEENS0_12CodeLocationE
FN:613,_ZN7testing8internal26ParameterizedTestSuiteInfoI14MinimumFixtureE8TestInfoC2EPKcS6_PNS0_19TestMetaFactoryBaseISt5tupleIJiiiEEEENS0_12CodeLocationE
FNDA:3,_ZN7testing8internal26ParameterizedTestSuiteInfoI14MinimumFixtureE8TestInfoC2EPKcS6_PNS0_19TestMetaFactoryBaseISt5tupleIJiiiEEEENS0_12CodeLocationE
FN:613,_ZN7testing8internal26ParameterizedTestSuiteInfoI11RankFixtureE8TestInfoC2EPKcS6_PNS0_19TestMetaFactoryBaseISt5tupleIJiiiEEEENS0_12CodeLocationE
FNDA:3,_ZN7testing8internal26ParameterizedTestSuiteInfoI11RankFixtureE8TestInfoC2EPKcS6_PNS0_19TestMetaFactoryBaseISt5tupleIJiiiEEEENS0_12CodeLocationE
FN:613,_ZN7testing8internal26ParameterizedTestSuiteInfoI14MaximumFixtureE8TestInfoC2EPKcS6_PNS0_19TestMetaFactoryBaseISt5tupleIJiiiEEEENS0_12CodeLocationE
FNDA:3,_ZN7testing8internal26ParameterizedTestSuiteInfoI14MaximumFixtureE8TestInfoC2EPKcS6_PNS0_19TestMetaFactoryBaseISt5tupleIJiiiEEEENS0_12CodeLocationE
FN:631,_ZN7testing8internal26ParameterizedTestSuiteInfoI14MinimumFixtureE17InstantiationInfoC2ERKNSt7__cxx1112basic_stringIcSt11char_traitsIcESaIcEEEPFNS0_14ParamGeneratorISt5tupleIJiiiEEEEvEPFSA_RKNS_13TestParamInfoISF_EEEPKci
FNDA:3,_ZN7testing8internal26ParameterizedTestSuiteInfoI14MinimumFixtureE17InstantiationInfoC2ERKNSt7__cxx1112basic_stringIcSt11char_traitsIcESaIcEEEPFNS0_14ParamGeneratorISt5tupleIJiiiEEEEvEPFSA_RKNS_13TestParamInfoISF_EEEPKci
FN:631,_ZN7testing8internal26ParameterizedTestSuiteInfoI14MaximumFixtureE17InstantiationInfoC2ERKNSt7__cxx1112basic_stringIcSt11char_traitsIcESaIcEEEPFNS0_14ParamGeneratorISt5tupleIJiiiEEEEvEPFSA_RKNS_13TestParamInfoISF_EEEPKci
FNDA:3,_ZN7testing8internal26ParameterizedTestSuiteInfoI14MaximumFixtureE17InstantiationInfoC2ERKNSt7__cxx1112basic_stringIcSt11char_traitsIcESaIcEEEPFNS0_14ParamGeneratorISt5tupleIJiiiEEEEvEPFSA_RKNS_13TestParamInfoISF_EEEPKci
FN:631,_ZN7testing8internal26ParameterizedTestSuiteInfoI21RXRotateInsertFixtureE17InstantiationInfoC2ERKNSt7__cxx1112basic_stringIcSt11char_traitsIcESaIcEEEPFNS0_14ParamGeneratorISt5tupleIJiiEEEEvEPFSA_RKNS_13TestParamInfoISF_EEEPKci
FNDA:3,_ZN7testing8internal26ParameterizedTestSuiteInfoI21RXRotateInsertFixtureE17InstantiationInfoC2ERKNSt7__cxx1112basic_stringIcSt11char_traitsIcESaIcEEEPFNS0_14ParamGeneratorISt5tupleIJiiEEEEvEPFSA_RKNS_13TestParamInfoISF_EEEPKci
FN:631,_ZN7testing8internal26ParameterizedTestSuiteInfoI21LXRotateInsertFixtureE17InstantiationInfoC2ERKNSt7__cxx1112basic_stringIcSt11char_traitsIcESaIcEEEPFNS0_14ParamGeneratorISt5tupleIJiiEEEEvEPFSA_RKNS_13TestParamInfoISF_EEEPKci
FNDA:3,_ZN7testing8internal26ParameterizedTestSuiteInfoI21LXRotateInsertFixtureE17InstantiationInfoC2ERKNSt7__cxx1112basic_stringIcSt11char_traitsIcESaIcEEEPFNS0_14ParamGeneratorISt5tupleIJiiEEEEvEPFSA_RKNS_13TestParamInfoISF_EEEPKci
FN:631,_ZN7testing8internal26ParameterizedTestSuiteInfoI11FindFixtureE17InstantiationInfoC2ERKNSt7__cxx1112basic_stringIcSt11char_traitsIcESaIcEEEPFNS0_14ParamGeneratorISt5tupleIJiiEEEEvEPFSA_RKNS_13TestParamInfoISF_EEEPKci
FNDA:3,_ZN7testing8internal26ParameterizedTestSuiteInfoI11FindFixtureE17InstantiationInfoC2ERKNSt7__cxx1112basic_stringIcSt11char_traitsIcESaIcEEEPFNS0_14ParamGeneratorISt5tupleIJiiEEEEvEPFSA_RKNS_13TestParamInfoISF_EEEPKci
FN:631,_ZN7testing8internal26ParameterizedTestSuiteInfoI11RankFixtureE17InstantiationInfoC2ERKNSt7__cxx1112basic_stringIcSt11char_traitsIcESaIcEEEPFNS0_14ParamGeneratorISt5tupleIJiiiEEEEvEPFSA_RKNS_13TestParamInfoISF_EEEPKci
FNDA:3,_ZN7testing8internal26ParameterizedTestSuiteInfoI11RankFixtureE17InstantiationInfoC2ERKNSt7__cxx1112basic_stringIcSt11char_traitsIcESaIcEEEPFNS0_14ParamGeneratorISt5tupleIJiiiEEEEvEPFSA_RKNS_13TestParamInfoISF_EEEPKci
FN:650,_ZN7testing8internal26ParameterizedTestSuiteInfoI14MaximumFixtureE16IsValidParamNameERKNSt7__cxx1112basic_stringIcSt11char_traitsIcESaIcEEE
FNDA:114,_ZN7testing8internal26ParameterizedTestSuiteInfoI14MaximumFixtureE16IsValidParamNameERKNSt7__cxx1112basic_stringIcSt11char_traitsIcESaIcEEE
FN:650,_ZN7testing8internal26ParameterizedTestSuiteInfoI21LXRotateInsertFixtureE16IsValidParamNameERKNSt7__cxx1112basic_stringIcSt11char_traitsIcESaIcEEE
FNDA:6,_ZN7testing8internal26ParameterizedTestSuiteInfoI21LXRotateInsertFixtureE16IsValidParamNameERKNSt7__cxx1112basic_stringIcSt11char_traitsIcESaIcEEE
FN:650,_ZN7testing8internal26ParameterizedTestSuiteInfoI21RXRotateInsertFixtureE16IsValidParamNameERKNSt7__cxx1112basic_stringIcSt11char_traitsIcESaIcEEE
FNDA:6,_ZN7testing8internal26ParameterizedTestSuiteInfoI21RXRotateInsertFixtureE16IsValidParamNameERKNSt7__cxx1112basic_stringIcSt11char_traitsIcESaIcEEE
FN:650,_ZN7testing8internal26ParameterizedTestSuiteInfoI14MinimumFixtureE16IsValidParamNameERKNSt7__cxx1112basic_stringIcSt11char_traitsIcESaIcEEE
FNDA:114,_ZN7testing8internal26ParameterizedTestSuiteInfoI14MinimumFixtureE16IsValidParamNameERKNSt7__cxx1112basic_stringIcSt11char_traitsIcESaIcEEE
FN:650,_ZN7testing8internal26ParameterizedTestSuiteInfoI11FindFixtureE16IsValidParamNameERKNSt7__cxx1112basic_stringIcSt11char_traitsIcESaIcEEE
FNDA:114,_ZN7testing8internal26ParameterizedTestSuiteInfoI11FindFixtureE16IsValidParamNameERKNSt7__cxx1112basic_stringIcSt11char_traitsIcESaIcEEE
FN:650,_ZN7testing8internal26ParameterizedTestSuiteInfoI11RankFixtureE16IsValidParamNameERKNSt7__cxx1112basic_stringIcSt11char_traitsIcESaIcEEE
FNDA:114,_ZN7testing8internal26ParameterizedTestSuiteInfoI11RankFixtureE16IsValidParamNameERKNSt7__cxx1112basic_stringIcSt11char_traitsIcESaIcEEE
FN:696,_ZN7testing8internal30ParameterizedTestSuiteRegistry25GetTestSuitePatternHolderI21RXRotateInsertFixtureEEPNS0_26ParameterizedTestSuiteInfoIT_EEPKcNS0_12CodeLocationE
FNDA:6,_ZN7testing8internal30ParameterizedTestSuiteRegistry25GetTestSuitePatternHolderI21RXRotateInsertFixtureEEPNS0_26ParameterizedTestSuiteInfoIT_EEPKcNS0_12CodeLocationE
FN:696,_ZN7testing8internal30ParameterizedTestSuiteRegistry25GetTestSuitePatternHolderI21LXRotateInsertFixtureEEPNS0_26ParameterizedTestSuiteInfoIT_EEPKcNS0_12CodeLocationE
FNDA:6,_ZN7testing8internal30ParameterizedTestSuiteRegistry25GetTestSuitePatternHolderI21LXRotateInsertFixtureEEPNS0_26ParameterizedTestSuiteInfoIT_EEPKcNS0_12CodeLocationE
FN:696,_ZN7testing8internal30ParameterizedTestSuiteRegistry25GetTestSuitePatternHolderI11FindFixtureEEPNS0_26ParameterizedTestSuiteInfoIT_EEPKcNS0_12CodeLocationE
FNDA:6,_ZN7testing8internal30ParameterizedTestSuiteRegistry25GetTestSuitePatternHolderI11FindFixtureEEPNS0_26ParameterizedTestSuiteInfoIT_EEPKcNS0_12CodeLocationE
FN:696,_ZN7testing8internal30ParameterizedTestSuiteRegistry25GetTestSuitePatternHolderI14MinimumFixtureEEPNS0_26ParameterizedTestSuiteInfoIT_EEPKcNS0_12CodeLocationE
FNDA:6,_ZN7testing8internal30ParameterizedTestSuiteRegistry25GetTestSuitePatternHolderI14MinimumFixtureEEPNS0_26ParameterizedTestSuiteInfoIT_EEPKcNS0_12CodeLocationE
FN:696,_ZN7testing8internal30ParameterizedTestSuiteRegistry25GetTestSuitePatternHolderI11RankFixtureEEPNS0_26ParameterizedTestSuiteInfoIT_EEPKcNS0_12CodeLocationE
FNDA:6,_ZN7testing8internal30ParameterizedTestSuiteRegistry25GetTestSuitePatternHolderI11RankFixtureEEPNS0_26ParameterizedTestSuiteInfoIT_EEPKcNS0_12CodeLocationE
FN:696,_ZN7testing8internal30ParameterizedTestSuiteRegistry25GetTestSuitePatternHolderI14MaximumFixtureEEPNS0_26ParameterizedTestSuiteInfoIT_EEPKcNS0_12CodeLocationE
FNDA:6,_ZN7testing8internal30ParameterizedTestSuiteRegistry25GetTestSuitePatternHolderI14MaximumFixtureEEPNS0_26ParameterizedTestSuiteInfoIT_EEPKcNS0_12CodeLocationE
FN:794,_ZN7testing8internal10ValueArrayIJSt5tupleIJiiEES3_EEC2ES3_S3_
FNDA:6,_ZN7testing8internal10ValueArrayIJSt5tupleIJiiEES3_EEC2ES3_S3_
FN:794,_ZN7testing8internal10ValueArrayIJSt5tupleIJiiEES3_S3_S3_S3_S3_S3_S3_S3_S3_S3_S3_S3_S3_S3_S3_S3_S3_S3_S3_S3_S3_S3_S3_S3_S3_S3_S3_S3_S3_S3_S3_S3_S3_S3_S3_S3_S3_EEC2ES3_S3_S3_S3_S3_S3_S3_S3_S3_S3_S3_S3_S3_S3_S3_S3_S3_S3_S3_S3_S3_S3_S3_S3_S3_S3_S3_S3_S3_S3_S3_S3_S3_S3_S3_S3_S3_S3_
FNDA:3,_ZN7testing8internal10ValueArrayIJSt5tupleIJiiEES3_S3_S3_S3_S3_S3_S3_S3_S3_S3_S3_S3_S3_S3_S3_S3_S3_S3_S3_S3_S3_S3_S3_S3_S3_S3_S3_S3_S3_S3_S3_S3_S3_S3_S3_S3_S3_EEC2ES3_S3_S3_S3_S3_S3_S3_S3_S3_S3_S3_S3_S3_S3_S3_S3_S3_S3_S3_S3_S3_S3_S3_S3_S3_S3_S3_S3_S3_S3_S3_S3_S3_S3_S3_S3_S3_S3_
FN:794,_ZN7testing8internal10ValueArrayIJSt5tupleIJiiiEES3_S3_S3_S3_S3_S3_S3_S3_S3_S3_S3_S3_S3_S3_S3_S3_S3_S3_S3_S3_S3_S3_S3_S3_S3_S3_S3_S3_S3_S3_S3_S3_S3_S3_S3_S3_S3_EEC2ES3_S3_S3_S3_S3_S3_S3_S3_S3_S3_S3_S3_S3_S3_S3_S3_S3_S3_S3_S3_S3_S3_S3_S3_S3_S3_S3_S3_S3_S3_S3_S3_S3_S3_S3_S3_S3_S3_
FNDA:9,_ZN7testing8internal10ValueArrayIJSt5tupleIJiiiEES3_S3_S3_S3_S3_S3_S3_S3_S3_S3_S3_S3_S3_S3_S3_S3_S3_S3_S3_S3_S3_S3_S3_S3_S3_S3_S3_S3_S3_S3_S3_S3_S3_S3_S3_S3_S3_EEC2ES3_S3_S3_S3_S3_S3_S3_S3_S3_S3_S3_S3_S3_S3_S3_S3_S3_S3_S3_S3_S3_S3_S3_S3_S3_S3_S3_S3_S3_S3_S3_S3_S3_S3_S3_S3_S3_S3_
FN:797,_ZNK7testing8internal10ValueArrayIJSt5tupleIJiiEES3_S3_S3_S3_S3_S3_S3_S3_S3_S3_S3_S3_S3_S3_S3_S3_S3_S3_S3_S3_S3_S3_S3_S3_S3_S3_S3_S3_S3_S3_S3_S3_S3_S3_S3_S3_S3_EEcvNS0_14ParamGeneratorIT_EEIS3_EEv
FNDA:3,_ZNK7testing8internal10ValueArrayIJSt5tupleIJiiEES3_S3_S3_S3_S3_S3_S3_S3_S3_S3_S3_S3_S3_S3_S3_S3_S3_S3_S3_S3_S3_S3_S3_S3_S3_S3_S3_S3_S3_S3_S3_S3_S3_S3_S3_S3_S3_EEcvNS0_14ParamGeneratorIT_EEIS3_EEv
FN:797,_ZNK7testing8internal10ValueArrayIJSt5tupleIJiiiEES3_S3_S3_S3_S3_S3_S3_S3_S3_S3_S3_S3_S3_S3_S3_S3_S3_S3_S3_S3_S3_S3_S3_S3_S3_S3_S3_S3_S3_S3_S3_S3_S3_S3_S3_S3_S3_EEcvNS0_14ParamGeneratorIT_EEIS3_EEv
FNDA:9,_ZNK7testing8internal10ValueArrayIJSt5tupleIJiiiEES3_S3_S3_S3_S3_S3_S3_S3_S3_S3_S3_S3_S3_S3_S3_S3_S3_S3_S3_S3_S3_S3_S3_S3_S3_S3_S3_S3_S3_S3_S3_S3_S3_S3_S3_S3_S3_EEcvNS0_14ParamGeneratorIT_EEIS3_EEv
FN:797,_ZNK7testing8internal10ValueArrayIJSt5tupleIJiiEES3_EEcvNS0_14ParamGeneratorIT_EEIS3_EEv
FNDA:6,_ZNK7testing8internal10ValueArrayIJSt5tupleIJiiEES3_EEcvNS0_14ParamGeneratorIT_EEIS3_EEv
FN:803,_ZNK7testing8internal10ValueArrayIJSt5tupleIJiiEES3_EE10MakeVectorIS3_JLm0ELm1EEEESt6vectorIT_SaIS7_EENS0_13IndexSequenceIJXspT0_EEEE
FNDA:6,_ZNK7testing8internal10ValueArrayIJSt5tupleIJiiEES3_EE10MakeVectorIS3_JLm0ELm1EEEESt6vectorIT_SaIS7_EENS0_13IndexSequenceIJXspT0_EEEE
FN:803,_ZNK7testing8internal10ValueArrayIJSt5tupleIJiiEES3_S3_S3_S3_S3_S3_S3_S3_S3_S3_S3_S3_S3_S3_S3_S3_S3_S3_S3_S3_S3_S3_S3_S3_S3_S3_S3_S3_S3_S3_S3_S3_S3_S3_S3_S3_S3_EE10MakeVectorIS3_JLm0ELm1ELm2ELm3ELm4ELm5ELm6ELm7ELm8ELm9ELm10ELm11ELm12ELm13ELm14ELm15ELm16ELm17ELm18ELm19ELm20ELm21ELm22ELm23ELm24ELm25ELm26ELm27ELm28ELm29ELm30ELm31ELm32ELm33ELm34ELm35ELm36ELm37EEEESt6vectorIT_SaIS7_EENS0_13IndexSequenceIJXspT0_EEEE
FNDA:3,_ZNK7testing8internal10ValueArrayIJSt5tupleIJiiEES3_S3_S3_S3_S3_S3_S3_S3_S3_S3_S3_S3_S3_S3_S3_S3_S3_S3_S3_S3_S3_S3_S3_S3_S3_S3_S3_S3_S3_S3_S3_S3_S3_S3_S3_S3_S3_EE10MakeVectorIS3_JLm0ELm1ELm2ELm3ELm4ELm5ELm6ELm7ELm8ELm9ELm10ELm11ELm12ELm13ELm14ELm15ELm16ELm17ELm18ELm19ELm20ELm21ELm22ELm23ELm24ELm25ELm26ELm27ELm28ELm29ELm30ELm31ELm32ELm33ELm34ELm35ELm36ELm37EEEESt6vectorIT_SaIS7_EENS0_13IndexSequenceIJXspT0_EEEE
FN:803,_ZNK7testing8internal10ValueArrayIJSt5tupleIJiiiEES3_S3_S3_S3_S3_S3_S3_S3_S3_S3_S3_S3_S3_S3_S3_S3_S3_S3_S3_S3_S3_S3_S3_S3_S3_S3_S3_S3_S3_S3_S3_S3_S3_S3_S3_S3_S3_EE10MakeVectorIS3_JLm0ELm1ELm2ELm3ELm4ELm5ELm6ELm7ELm8ELm9ELm10ELm11ELm12ELm13ELm14ELm15ELm16ELm17ELm18ELm19ELm20ELm21ELm22ELm23ELm24ELm25ELm26ELm27ELm28ELm29ELm30ELm31ELm32ELm33ELm34ELm35ELm36ELm37EEEESt6vectorIT_SaIS7_EENS0_13IndexSequenceIJXspT0_EEEE
FNDA:9,_ZNK7testing8internal10ValueArrayIJSt5tupleIJiiiEES3_S3_S3_S3_S3_S3_S3_S3_S3_S3_S3_S3_S3_S3_S3_S3_S3_S3_S3_S3_S3_S3_S3_S3_S3_S3_S3_S3_S3_S3_S3_S3_S3_S3_S3_S3_S3_EE10MakeVectorIS3_JLm0ELm1ELm2ELm3ELm4ELm5ELm6ELm7ELm8ELm9ELm10ELm11ELm12ELm13ELm14ELm15ELm16ELm17ELm18ELm19ELm20ELm21ELm22ELm23ELm24ELm25ELm26ELm27ELm28ELm29ELm30ELm31ELm32ELm33ELm34ELm35ELm36ELm37EEEESt6vectorIT_SaIS7_EENS0_13IndexSequenceIJXspT0_EEEE
DA:59,342
DA:60,342
DA:61,342
DA:59,126
DA:60,126
DA:61,126
DA:95,0
DA:95,144
DA:95,0
DA:95,360
DA:137,1026
DA:137,378
DA:140,342
DA:141,342
DA:142,342
DA:140,126
DA:141,126
DA:142,126
DA:150,351
DA:151,351
DA:150,135
DA:151,135
DA:153,351
DA:154,351
DA:153,135
DA:154,135
DA:159,360
DA:159,144
DA:170,0
DA:170,9
DA:170,0
DA:170,9
DA:187,9
DA:187,9
DA:195,9
DA:195,9
DA:196,351
DA:196,135
DA:295,9
DA:296,9
DA:295,9
DA:296,9
DA:297,9
DA:297,9
DA:297,9
DA:297,9
DA:299,9
DA:300,9
DA:299,9
DA:300,9
DA:302,135
DA:303,135
DA:302,351
DA:303,351
DA:311,144
DA:313,144
DA:311,360
DA:313,360
DA:314,360
DA:314,360
DA:314,144
DA:314,144
DA:316,702
DA:317,702
DA:316,270
DA:317,270
DA:319,342
DA:320,342
DA:321,342
DA:322,342
DA:319,126
DA:320,126
DA:321,126
DA:322,126
DA:323,0
DA:324,0
DA:323,0
DA:324,0
DA:333,1026
DA:334,1026
DA:335,1026
DA:333,378
DA:334,378
DA:335,378
DA:337,351
DA:340,351
DA:342,0
DA:343,351
DA:344,351
DA:337,135
DA:340,135
DA:342,0
DA:343,135
DA:344,135
DA:348,0
DA:352,0
DA:353,0
DA:348,0
DA:352,0
DA:353,0
DA:376,342
DA:377,342
DA:378,342
DA:379,684
DA:380,342
DA:376,126
DA:377,126
DA:378,126
DA:379,252
DA:380,126
DA:387,0
DA:387,0
DA:397,6
DA:398,6
DA:397,6
DA:398,6
DA:397,114
DA:398,114
DA:397,114
DA:398,114
DA:397,114
DA:398,114
DA:397,114
DA:398,114
DA:399,114
DA:400,114
DA:401,114
DA:399,114
DA:400,114
DA:401,114
DA:399,114
DA:400,114
DA:401,114
DA:399,114
DA:400,114
DA:401,114
DA:399,6
DA:400,6
DA:401,6
DA:399,6
DA:400,6
DA:401,6
DA:417,0
DA:417,9
DA:417,0
DA:417,9
DA:436,3
DA:436,3
DA:436,3
DA:436,3
DA:436,3
DA:436,3
DA:438,6
DA:439,6
DA:438,6
DA:439,6
DA:438,114
DA:439,114
DA:438,114
DA:439,114
DA:438,114
DA:439,114
DA:438,114
DA:439,114
DA:458,0
DA:458,18
DA:471,18
DA:506,3
DA:508,3
DA:506,3
DA:508,3
DA:506,3
DA:508,3
DA:506,3
DA:508,3
DA:506,3
DA:508,3
DA:506,3
DA:508,3
DA:511,33
DA:512,33
DA:511,27
DA:512,27
DA:511,21
DA:512,21
DA:511,15
DA:512,15
DA:511,9
DA:512,9
DA:511,3
DA:512,3
DA:515,9
DA:515,9
DA:515,117
DA:515,117
DA:515,117
DA:515,117
DA:522,3
DA:525,3
DA:527,3
DA:522,3
DA:525,3
DA:527,3
DA:522,3
DA:525,3
DA:527,3
DA:522,3
DA:525,3
DA:527,3
DA:522,3
DA:525,3
DA:527,3
DA:522,3
DA:525,3
DA:527,3
DA:530,3
DA:534,3
DA:535,6
DA:536,3
DA:530,3
DA:534,3
DA:535,6
DA:536,3
DA:530,3
DA:534,3
DA:535,6
DA:536,3
DA:530,3
DA:534,3
DA:535,6
DA:536,3
DA:530,3
DA:534,3
DA:535,6
DA:536,3
DA:530,3
DA:534,3
DA:535,6
DA:536,3
DA:543,3
DA:544,3
DA:546,6
DA:547,6
DA:548,3
DA:549,6
DA:550,9
DA:551,3
DA:552,3
DA:553,3
DA:554,3
DA:555,3
DA:556,3
DA:558,3
DA:559,3
DA:560,3
DA:561,3
DA:563,3
DA:564,3
DA:565,18
DA:567,15
DA:568,6
DA:570,6
DA:572,6
DA:573,6
DA:575,6
DA:578,0
DA:580,6
DA:582,0
DA:584,6
DA:586,6
DA:587,6
DA:589,6
DA:590,12
DA:593,6
DA:594,6
DA:597,6
DA:602,3
DA:604,0
DA:605,0
DA:607,3
DA:543,3
DA:544,3
DA:546,6
DA:547,6
DA:548,3
DA:549,6
DA:550,9
DA:551,3
DA:552,3
DA:553,3
DA:554,3
DA:555,3
DA:556,3
DA:558,3
DA:559,3
DA:560,3
DA:561,3
DA:563,3
DA:564,3
DA:565,18
DA:567,15
DA:568,6
DA:570,6
DA:572,6
DA:573,6
DA:575,6
DA:578,0
DA:580,6
DA:582,0
DA:584,6
DA:586,6
DA:587,6
DA:589,6
DA:590,12
DA:593,6
DA:594,6
DA:597,6
DA:602,3
DA:604,0
DA:605,0
DA:607,3
DA:543,3
DA:544,3
DA:546,6
DA:547,6
DA:548,3
DA:549,6
DA:550,9
DA:551,3
DA:552,3
DA:553,3
DA:554,3
DA:555,3
DA:556,3
DA:558,3
DA:559,3
DA:560,3
DA:561,3
DA:563,3
DA:564,3
DA:565,234
DA:567,231
DA:568,114
DA:570,114
DA:572,114
DA:573,114
DA:575,114
DA:578,0
DA:580,114
DA:582,0
DA:584,114
DA:586,114
DA:587,114
DA:589,114
DA:590,228
DA:593,114
DA:594,114
DA:597,114
DA:602,3
DA:604,0
DA:605,0
DA:607,3
DA:543,3
DA:544,3
DA:546,6
DA:547,6
DA:548,3
DA:549,6
DA:550,9
DA:551,3
DA:552,3
DA:553,3
DA:554,3
DA:555,3
DA:556,3
DA:558,3
DA:559,3
DA:560,3
DA:561,3
DA:563,3
DA:564,3
DA:565,234
DA:567,231
DA:568,114
DA:570,114
DA:572,114
DA:573,114
DA:575,114
DA:578,0
DA:580,114
DA:582,0
DA:584,114
DA:586,114
DA:587,114
DA:589,114
DA:590,228
DA:593,114
DA:594,114
DA:597,114
DA:602,3
DA:604,0
DA:605,0
DA:607,3
DA:543,3
DA:544,3
DA:546,6
DA:547,6
DA:548,3
DA:549,6
DA:550,9
DA:551,3
DA:552,3
DA:553,3
DA:554,3
DA:555,3
DA:556,3
DA:558,3
DA:559,3
DA:560,3
DA:561,3
DA:563,3
DA:564,3
DA:565,234
DA:567,231
DA:568,114
DA:570,114
DA:572,114
DA:573,114
DA:575,114
DA:578,0
DA:580,114
DA:582,0
DA:584,114
DA:586,114
DA:587,114
DA:589,114
DA:590,228
DA:593,114
DA:594,114
DA:597,114
DA:602,3
DA:604,0
DA:605,0
DA:607,3
DA:543,3
DA:544,3
DA:546,6
DA:547,6
DA:548,3
DA:549,6
DA:550,9
DA:551,3
DA:552,3
DA:553,3
DA:554,3
DA:555,3
DA:556,3
DA:558,3
DA:559,3
DA:560,3
DA:561,3
DA:563,3
DA:564,3
DA:565,234
DA:567,231
DA:568,114
DA:570,114
DA:572,114
DA:573,114
DA:575,114
DA:578,0
DA:580,114
DA:582,0
DA:584,114
DA:586,114
DA:587,114
DA:589,114
DA:590,228
DA:593,114
DA:594,114
DA:597,114
DA:602,3
DA:604,0
DA:605,0
DA:607,3
DA:613,3
DA:616,3
DA:617,3
DA:618,3
DA:619,3
DA:613,3
DA:616,3
DA:617,3
DA:618,3
DA:619,3
DA:613,3
DA:616,3
DA:617,3
DA:618,3
DA:619,3
DA:613,3
DA:616,3
DA:617,3
DA:618,3
DA:619,3
DA:613,3
DA:616,3
DA:617,3
DA:618,3
DA:619,3
DA:613,3
DA:616,3
DA:617,3
DA:618,3
DA:619,3
DA:631,3
DA:636,3
DA:637,3
DA:638,3
DA:639,3
DA:640,3
DA:631,3
DA:636,3
DA:637,3
DA:638,3
DA:639,3
DA:640,3
DA:631,3
DA:636,3
DA:637,3
DA:638,3
DA:639,3
DA:640,3
DA:631,3
DA:636,3
DA:637,3
DA:638,3
DA:639,3
DA:640,3
DA:631,3
DA:636,3
DA:637,3
DA:638,3
DA:639,3
DA:640,3
DA:631,3
DA:636,3
DA:637,3
DA:638,3
DA:639,3
DA:640,3
DA:650,6
DA:652,6
DA:653,0
DA:656,12
DA:657,6
DA:658,0
DA:661,6
DA:650,6
DA:652,6
DA:653,0
DA:656,12
DA:657,6
DA:658,0
DA:661,6
DA:650,114
DA:652,114
DA:653,0
DA:656,312
DA:657,198
DA:658,0
DA:661,114
DA:650,114
DA:652,114
DA:653,0
DA:656,312
DA:657,198
DA:658,0
DA:661,114
DA:650,114
DA:652,114
DA:653,0
DA:656,312
DA:657,198
DA:658,0
DA:661,114
DA:650,114
DA:652,114
DA:653,0
DA:656,312
DA:657,198
DA:658,0
DA:661,114
DA:696,6
DA:698,6
DA:699,36
DA:700,33
DA:701,3
DA:705,0
DA:706,0
DA:712,3
DA:714,3
DA:717,6
DA:718,3
DA:720,3
DA:722,6
DA:696,6
DA:698,6
DA:699,30
DA:700,27
DA:701,3
DA:705,0
DA:706,0
DA:712,3
DA:714,3
DA:717,6
DA:718,3
DA:720,3
DA:722,6
DA:696,6
DA:698,6
DA:699,24
DA:700,21
DA:701,3
DA:705,0
DA:706,0
DA:712,3
DA:714,3
DA:717,6
DA:718,3
DA:720,3
DA:722,6
DA:696,6
DA:698,6
DA:699,18
DA:700,15
DA:701,3
DA:705,0
DA:706,0
DA:712,3
DA:714,3
DA:717,6
DA:718,3
DA:720,3
DA:722,6
DA:696,6
DA:698,6
DA:699,12
DA:700,9
DA:701,3
DA:705,0
DA:706,0
DA:712,3
DA:714,3
DA:717,6
DA:718,3
DA:720,3
DA:722,6
DA:696,6
DA:698,6
DA:699,6
DA:700,3
DA:701,3
DA:705,0
DA:706,0
DA:712,3
DA:714,3
DA:717,6
DA:718,3
DA:720,3
DA:722,6
DA:794,3
DA:794,9
DA:794,6
DA:797,3
DA:798,3
DA:797,9
DA:798,9
DA:797,6
DA:798,6
DA:803,3
DA:804,3
DA:803,9
DA:804,9
DA:803,6
DA:804,6
end_of_record
SF:/usr/include/c++/11/ext/type_traits.h
FN:152,_ZN9__gnu_cxx17__is_null_pointerIcEEbPT_
FNDA:0,_ZN9__gnu_cxx17__is_null_pointerIcEEbPT_
FN:152,_ZN9__gnu_cxx17__is_null_pointerIKcEEbPT_
FNDA:0,_ZN9__gnu_cxx17__is_null_pointerIKcEEbPT_
DA:152,0
DA:153,0
DA:152,0
DA:153,0
end_of_record
SF:/usr/include/c++/11/bits/basic_string.tcc
FN:206,_ZNSt7__cxx1112basic_stringIcSt11char_traitsIcESaIcEE12_M_constructIPcEEvT_S7_St20forward_iterator_tag
FNDA:0,_ZNSt7__cxx1112basic_stringIcSt11char_traitsIcESaIcEE12_M_constructIPcEEvT_S7_St20forward_iterator_tag
FN:206,_ZNSt7__cxx1112basic_stringIcSt11char_traitsIcESaIcEE12_M_constructIPKcEEvT_S8_St20forward_iterator_tag
FNDA:0,_ZNSt7__cxx1112basic_stringIcSt11char_traitsIcESaIcEE12_M_constructIPKcEEvT_S8_St20forward_iterator_tag
DA:206,0
DA:211,0
DA:212,0
DA:215,0
DA:217,0
DA:219,0
DA:220,0
DA:225,0
DA:226,0
DA:228,0
DA:229,0
DA:232,0
DA:233,0
DA:206,0
DA:211,0
DA:212,0
DA:215,0
DA:217,0
DA:219,0
DA:220,0
DA:225,0
DA:226,0
DA:228,0
DA:229,0
DA:232,0
DA:233,0
end_of_record
SF:/usr/include/c++/11/bits/allocator.h
FN:156,_ZNSaISt5tupleIJiiEEEC2Ev
FNDA:18,_ZNSaISt5tupleIJiiEEEC2Ev
FN:156,_ZNSaISt5tupleIJiiiEEEC2Ev
FNDA:18,_ZNSaISt5tupleIJiiiEEEC2Ev
FN:156,_ZNSaISt13_Rb_tree_nodeINSt7__cxx1112basic_stringIcSt11char_traitsIcESaIcEEEEEC2Ev
FNDA:18,_ZNSaISt13_Rb_tree_nodeINSt7__cxx1112basic_stringIcSt11char_traitsIcESaIcEEEEEC2Ev
FN:156,_ZNSaISt10shared_ptrIN7testing8internal26ParameterizedTestSuiteInfoI21LXRotateInsertFixtureE8TestInfoEEEC2Ev
FNDA:3,_ZNSaISt10shared_ptrIN7testing8internal26ParameterizedTestSuiteInfoI21LXRotateInsertFixtureE8TestInfoEEEC2Ev
FN:156,_ZNSaIN7testing8internal26ParameterizedTestSuiteInfoI21LXRotateInsertFixtureE17InstantiationInfoEEC2Ev
FNDA:3,_ZNSaIN7testing8internal26ParameterizedTestSuiteInfoI21LXRotateInsertFixtureE17InstantiationInfoEEC2Ev
FN:156,_ZNSaISt10shared_ptrIN7testing8internal26ParameterizedTestSuiteInfoI21RXRotateInsertFixtureE8TestInfoEEEC2Ev
FNDA:3,_ZNSaISt10shared_ptrIN7testing8internal26ParameterizedTestSuiteInfoI21RXRotateInsertFixtureE8TestInfoEEEC2Ev
FN:156,_ZNSaIN7testing8internal26ParameterizedTestSuiteInfoI21RXRotateInsertFixtureE17InstantiationInfoEEC2Ev
FNDA:3,_ZNSaIN7testing8internal26ParameterizedTestSuiteInfoI21RXRotateInsertFixtureE17InstantiationInfoEEC2Ev
FN:156,_ZNSaISt10shared_ptrIN7testing8internal26ParameterizedTestSuiteInfoI14MinimumFixtureE8TestInfoEEEC2Ev
FNDA:3,_ZNSaISt10shared_ptrIN7testing8internal26ParameterizedTestSuiteInfoI14MinimumFixtureE8TestInfoEEEC2Ev
FN:156,_ZNSaIN7testing8internal26ParameterizedTestSuiteInfoI14MinimumFixtureE17InstantiationInfoEEC2Ev
FNDA:3,_ZNSaIN7testing8internal26ParameterizedTestSuiteInfoI14MinimumFixtureE17InstantiationInfoEEC2Ev
FN:156,_ZNSaISt10shared_ptrIN7testing8internal26ParameterizedTestSuiteInfoI14MaximumFixtureE8TestInfoEEEC2Ev
FNDA:3,_ZNSaISt10shared_ptrIN7testing8internal26ParameterizedTestSuiteInfoI14MaximumFixtureE8TestInfoEEEC2Ev
FN:156,_ZNSaIN7testing8internal26ParameterizedTestSuiteInfoI14MaximumFixtureE17InstantiationInfoEEC2Ev
FNDA:3,_ZNSaIN7testing8internal26ParameterizedTestSuiteInfoI14MaximumFixtureE17InstantiationInfoEEC2Ev
FN:156,_ZNSaISt10shared_ptrIN7testing8internal26ParameterizedTestSuiteInfoI11RankFixtureE8TestInfoEEEC2Ev
FNDA:3,_ZNSaISt10shared_ptrIN7testing8internal26ParameterizedTestSuiteInfoI11RankFixtureE8TestInfoEEEC2Ev
FN:156,_ZNSaIN7testing8internal26ParameterizedTestSuiteInfoI11RankFixtureE17InstantiationInfoEEC2Ev
FNDA:3,_ZNSaIN7testing8internal26ParameterizedTestSuiteInfoI11RankFixtureE17InstantiationInfoEEC2Ev
FN:156,_ZNSaISt10shared_ptrIN7testing8internal26ParameterizedTestSuiteInfoI11FindFixtureE8TestInfoEEEC2Ev
FNDA:3,_ZNSaISt10shared_ptrIN7testing8internal26ParameterizedTestSuiteInfoI11FindFixtureE8TestInfoEEEC2Ev
FN:156,_ZNSaIN7testing8internal26ParameterizedTestSuiteInfoI11FindFixtureE17InstantiationInfoEEC2Ev
FNDA:3,_ZNSaIN7testing8internal26ParameterizedTestSuiteInfoI11FindFixtureE17InstantiationInfoEEC2Ev
FN:159,_ZNSaISt5tupleIJiiiEEEC2ERKS1_
FNDA:36,_ZNSaISt5tupleIJiiiEEEC2ERKS1_
FN:159,_ZNSaISt5tupleIJiiEEEC2ERKS1_
FNDA:36,_ZNSaISt5tupleIJiiEEEC2ERKS1_
FN:174,_ZNSaISt5tupleIJiiEEED2Ev
FNDA:54,_ZNSaISt5tupleIJiiEEED2Ev
FN:174,_ZNSaISt10shared_ptrIN7testing8internal26ParameterizedTestSuiteInfoI21LXRotateInsertFixtureE8TestInfoEEED2Ev
FNDA:3,_ZNSaISt10shared_ptrIN7testing8internal26ParameterizedTestSuiteInfoI21LXRotateInsertFixtureE8TestInfoEEED2Ev
FN:174,_ZNSaIN7testing8internal26ParameterizedTestSuiteInfoI21LXRotateInsertFixtureE17InstantiationInfoEED2Ev
FNDA:3,_ZNSaIN7testing8internal26ParameterizedTestSuiteInfoI21LXRotateInsertFixtureE17InstantiationInfoEED2Ev
FN:174,_ZNSaISt10shared_ptrIN7testing8internal26ParameterizedTestSuiteInfoI21RXRotateInsertFixtureE8TestInfoEEED2Ev
FNDA:3,_ZNSaISt10shared_ptrIN7testing8internal26ParameterizedTestSuiteInfoI21RXRotateInsertFixtureE8TestInfoEEED2Ev
FN:174,_ZNSaIN7testing8internal26ParameterizedTestSuiteInfoI21RXRotateInsertFixtureE17InstantiationInfoEED2Ev
FNDA:3,_ZNSaIN7testing8internal26ParameterizedTestSuiteInfoI21RXRotateInsertFixtureE17InstantiationInfoEED2Ev
FN:174,_ZNSaIN7testing8internal26ParameterizedTestSuiteInfoI11FindFixtureE17InstantiationInfoEED2Ev
FNDA:3,_ZNSaIN7testing8internal26ParameterizedTestSuiteInfoI11FindFixtureE17InstantiationInfoEED2Ev
FN:174,_ZNSaISt5tupleIJiiiEEED2Ev
FNDA:54,_ZNSaISt5tupleIJiiiEEED2Ev
FN:174,_ZNSaISt10shared_ptrIN7testing8internal26ParameterizedTestSuiteInfoI14MinimumFixtureE8TestInfoEEED2Ev
FNDA:3,_ZNSaISt10shared_ptrIN7testing8internal26ParameterizedTestSuiteInfoI14MinimumFixtureE8TestInfoEEED2Ev
FN:174,_ZNSaIN7testing8internal26ParameterizedTestSuiteInfoI14MinimumFixtureE17InstantiationInfoEED2Ev
FNDA:3,_ZNSaIN7testing8internal26ParameterizedTestSuiteInfoI14MinimumFixtureE17InstantiationInfoEED2Ev
FN:174,_ZNSaISt10shared_ptrIN7testing8internal26ParameterizedTestSuiteInfoI14MaximumFixtureE8TestInfoEEED2Ev
FNDA:3,_ZNSaISt10shared_ptrIN7testing8internal26ParameterizedTestSuiteInfoI14MaximumFixtureE8TestInfoEEED2Ev
FN:174,_ZNSaIN7testing8internal26ParameterizedTestSuiteInfoI14MaximumFixtureE17InstantiationInfoEED2Ev
FNDA:3,_ZNSaIN7testing8internal26ParameterizedTestSuiteInfoI14MaximumFixtureE17InstantiationInfoEED2Ev
FN:174,_ZNSaISt10shared_ptrIN7testing8internal26ParameterizedTestSuiteInfoI11RankFixtureE8TestInfoEEED2Ev
FNDA:3,_ZNSaISt10shared_ptrIN7testing8internal26ParameterizedTestSuiteInfoI11RankFixtureE8TestInfoEEED2Ev
FN:174,_ZNSaIN7testing8internal26ParameterizedTestSuiteInfoI11RankFixtureE17InstantiationInfoEED2Ev
FNDA:3,_ZNSaIN7testing8internal26ParameterizedTestSuiteInfoI11RankFixtureE17InstantiationInfoEED2Ev
FN:174,_ZNSaISt10shared_ptrIN7testing8internal26ParameterizedTestSuiteInfoI11FindFixtureE8TestInfoEEED2Ev
FNDA:3,_ZNSaISt10shared_ptrIN7testing8internal26ParameterizedTestSuiteInfoI11FindFixtureE8TestInfoEEED2Ev
FN:174,_ZNSaISt13_Rb_tree_nodeINSt7__cxx1112basic_stringIcSt11char_traitsIcESaIcEEEEED2Ev
FNDA:18,_ZNSaISt13_Rb_tree_nodeINSt7__cxx1112basic_stringIcSt11char_traitsIcESaIcEEEEED2Ev
DA:156,18
DA:156,3
DA:156,3
DA:156,3
DA:156,3
DA:156,3
DA:156,3
DA:156,3
DA:156,3
DA:156,3
DA:156,3
DA:156,3
DA:156,3
DA:156,18
DA:156,18
DA:159,36
DA:160,36
DA:159,36
DA:160,36
DA:174,18
DA:174,3
DA:174,3
DA:174,3
DA:174,3
DA:174,3
DA:174,3
DA:174,3
DA:174,3
DA:174,54
DA:174,3
DA:174,3
DA:174,3
DA:174,3
DA:174,54
end_of_record
SF:/usr/include/c++/11/bits/stl_algobase.h
FN:230,_ZSt3minImERKT_S2_S2_
FNDA:132,_ZSt3minImERKT_S2_S2_
FN:254,_ZSt3maxImERKT_S2_S2_
FNDA:48,_ZSt3maxImERKT_S2_S2_
FN:313,_ZSt12__niter_baseIPSt10shared_ptrIN7testing8internal26ParameterizedTestSuiteInfoI21RXRotateInsertFixtureE8TestInfoEEET_S9_
FNDA:18,_ZSt12__niter_baseIPSt10shared_ptrIN7testing8internal26ParameterizedTestSuiteInfoI21RXRotateInsertFixtureE8TestInfoEEET_S9_
FN:313,_ZSt12__niter_baseIPPN7testing8internal30ParameterizedTestSuiteInfoBaseEET_S5_
FNDA:72,_ZSt12__niter_baseIPPN7testing8internal30ParameterizedTestSuiteInfoBaseEET_S5_
FN:313,_ZSt12__niter_baseIPN7testing8internal26ParameterizedTestSuiteInfoI21LXRotateInsertFixtureE17InstantiationInfoEET_S7_
FNDA:18,_ZSt12__niter_baseIPN7testing8internal26ParameterizedTestSuiteInfoI21LXRotateInsertFixtureE17InstantiationInfoEET_S7_
FN:313,_ZSt12__niter_baseIPN7testing8internal26ParameterizedTestSuiteInfoI21RXRotateInsertFixtureE17InstantiationInfoEET_S7_
FNDA:18,_ZSt12__niter_baseIPN7testing8internal26ParameterizedTestSuiteInfoI21RXRotateInsertFixtureE17InstantiationInfoEET_S7_
FN:313,_ZSt12__niter_baseIPN7testing8internal26ParameterizedTestSuiteInfoI14MinimumFixtureE17InstantiationInfoEET_S7_
FNDA:18,_ZSt12__niter_baseIPN7testing8internal26ParameterizedTestSuiteInfoI14MinimumFixtureE17InstantiationInfoEET_S7_
FN:313,_ZSt12__niter_baseIPN7testing8internal26ParameterizedTestSuiteInfoI14MaximumFixtureE17InstantiationInfoEET_S7_
FNDA:18,_ZSt12__niter_baseIPN7testing8internal26ParameterizedTestSuiteInfoI14MaximumFixtureE17InstantiationInfoEET_S7_
FN:313,_ZSt12__niter_baseIPN7testing8internal26ParameterizedTestSuiteInfoI11RankFixtureE17InstantiationInfoEET_S7_
FNDA:18,_ZSt12__niter_baseIPN7testing8internal26ParameterizedTestSuiteInfoI11RankFixtureE17InstantiationInfoEET_S7_
FN:313,_ZSt12__niter_baseIPN7testing8internal26ParameterizedTestSuiteInfoI11FindFixtureE17InstantiationInfoEET_S7_
FNDA:18,_ZSt12__niter_baseIPN7testing8internal26ParameterizedTestSuiteInfoI11FindFixtureE17InstantiationInfoEET_S7_
FN:313,_ZSt12__niter_baseIPSt10shared_ptrIN7testing8internal26ParameterizedTestSuiteInfoI21LXRotateInsertFixtureE8TestInfoEEET_S9_
FNDA:18,_ZSt12__niter_baseIPSt10shared_ptrIN7testing8internal26ParameterizedTestSuiteInfoI21LXRotateInsertFixtureE8TestInfoEEET_S9_
FN:313,_ZSt12__niter_baseIPSt10shared_ptrIN7testing8internal26ParameterizedTestSuiteInfoI14MinimumFixtureE8TestInfoEEET_S9_
FNDA:18,_ZSt12__niter_baseIPSt10shared_ptrIN7testing8internal26ParameterizedTestSuiteInfoI14MinimumFixtureE8TestInfoEEET_S9_
FN:313,_ZSt12__niter_baseIPSt10shared_ptrIN7testing8internal26ParameterizedTestSuiteInfoI14MaximumFixtureE8TestInfoEEET_S9_
FNDA:18,_ZSt12__niter_baseIPSt10shared_ptrIN7testing8internal26ParameterizedTestSuiteInfoI14MaximumFixtureE8TestInfoEEET_S9_
FN:313,_ZSt12__niter_baseIPSt10shared_ptrIN7testing8internal26ParameterizedTestSuiteInfoI11RankFixtureE8TestInfoEEET_S9_
FNDA:18,_ZSt12__niter_baseIPSt10shared_ptrIN7testing8internal26ParameterizedTestSuiteInfoI11RankFixtureE8TestInfoEEET_S9_
FN:313,_ZSt12__niter_baseIPSt10shared_ptrIN7testing8internal26ParameterizedTestSuiteInfoI11FindFixtureE8TestInfoEEET_S9_
FNDA:18,_ZSt12__niter_baseIPSt10shared_ptrIN7testing8internal26ParameterizedTestSuiteInfoI11FindFixtureE8TestInfoEEET_S9_
FN:335,_ZSt12__niter_wrapIPPN7testing8internal30ParameterizedTestSuiteInfoBaseEET_RKS5_S5_
FNDA:0,_ZSt12__niter_wrapIPPN7testing8internal30ParameterizedTestSuiteInfoBaseEET_RKS5_S5_
FN:420,_ZNSt11__copy_moveILb1ELb1ESt26random_access_iterator_tagE8__copy_mIPN7testing8internal30ParameterizedTestSuiteInfoBaseEEEPT_PKS7_SA_S8_
FNDA:0,_ZNSt11__copy_moveILb1ELb1ESt26random_access_iterator_tagE8__copy_mIPN7testing8internal30ParameterizedTestSuiteInfoBaseEEEPT_PKS7_SA_S8_
FN:486,_ZSt14__copy_move_a2ILb1EPPN7testing8internal30ParameterizedTestSuiteInfoBaseES4_ET1_T0_S6_S5_
FNDA:0,_ZSt14__copy_move_a2ILb1EPPN7testing8internal30ParameterizedTestSuiteInfoBaseES4_ET1_T0_S6_S5_
FN:521,_ZSt14__copy_move_a1ILb1EPPN7testing8internal30ParameterizedTestSuiteInfoBaseES4_ET1_T0_S6_S5_
FNDA:0,_ZSt14__copy_move_a1ILb1EPPN7testing8internal30ParameterizedTestSuiteInfoBaseES4_ET1_T0_S6_S5_
FN:527,_ZSt13__copy_move_aILb1EPPN7testing8internal30ParameterizedTestSuiteInfoBaseES4_ET1_T0_S6_S5_
FNDA:0,_ZSt13__copy_move_aILb1EPPN7testing8internal30ParameterizedTestSuiteInfoBaseES4_ET1_T0_S6_S5_
FN:611,_ZSt4copyISt13move_iteratorIPPN7testing8internal30ParameterizedTestSuiteInfoBaseEES5_ET0_T_S8_S7_
FNDA:0,_ZSt4copyISt13move_iteratorIPPN7testing8internal30ParameterizedTestSuiteInfoBaseEES5_ET0_T_S8_S7_
DA:230,132
DA:235,132
DA:236,0
DA:237,132
DA:254,48
DA:259,48
DA:260,39
DA:261,9
DA:313,18
DA:315,18
DA:313,18
DA:315,18
DA:313,18
DA:315,18
DA:313,18
DA:315,18
DA:313,18
DA:315,18
DA:313,18
DA:315,18
DA:313,18
DA:315,18
DA:313,18
DA:315,18
DA:313,18
DA:315,18
DA:313,18
DA:315,18
DA:313,18
DA:315,18
DA:313,18
DA:315,18
DA:313,72
DA:315,72
DA:335,0
DA:336,0
DA:420,0
DA:429,0
DA:430,0
DA:431,0
DA:432,0
DA:486,0
DA:495,0
DA:521,0
DA:522,0
DA:527,0
DA:529,0
DA:532,0
DA:611,0
DA:620,0
end_of_record
SF:/usr/include/c++/11/bits/stl_tree.h
FN:146,_ZNSt20_Rb_tree_key_compareISt4lessINSt7__cxx1112basic_stringIcSt11char_traitsIcESaIcEEEEEC2Ev
FNDA:18,_ZNSt20_Rb_tree_key_compareISt4lessINSt7__cxx1112basic_stringIcSt11char_traitsIcESaIcEEEEEC2Ev
FN:173,_ZNSt15_Rb_tree_headerC2Ev
FNDA:18,_ZNSt15_Rb_tree_headerC2Ev
FN:206,_ZNSt15_Rb_tree_header8_M_resetEv
FNDA:18,_ZNSt15_Rb_tree_header8_M_resetEv
FN:234,_ZNSt13_Rb_tree_nodeINSt7__cxx1112basic_stringIcSt11char_traitsIcESaIcEEEE9_M_valptrEv
FNDA:936,_ZNSt13_Rb_tree_nodeINSt7__cxx1112basic_stringIcSt11char_traitsIcESaIcEEEE9_M_valptrEv
FN:238,_ZNKSt13_Rb_tree_nodeINSt7__cxx1112basic_stringIcSt11char_traitsIcESaIcEEEE9_M_valptrEv
FNDA:5952,_ZNKSt13_Rb_tree_nodeINSt7__cxx1112basic_stringIcSt11char_traitsIcESaIcEEEE9_M_valptrEv
FN:273,_ZNSt17_Rb_tree_iteratorINSt7__cxx1112basic_stringIcSt11char_traitsIcESaIcEEEEC2EPSt18_Rb_tree_node_base
FNDA:1062,_ZNSt17_Rb_tree_iteratorINSt7__cxx1112basic_stringIcSt11char_traitsIcESaIcEEEEC2EPSt18_Rb_tree_node_base
FN:300,_ZNSt17_Rb_tree_iteratorINSt7__cxx1112basic_stringIcSt11char_traitsIcESaIcEEEEmmEv
FNDA:108,_ZNSt17_Rb_tree_iteratorINSt7__cxx1112basic_stringIcSt11char_traitsIcESaIcEEEEmmEv
FN:315,_ZSteqRKSt17_Rb_tree_iteratorINSt7__cxx1112basic_stringIcSt11char_traitsIcESaIcEEEES8_
FNDA:126,_ZSteqRKSt17_Rb_tree_iteratorINSt7__cxx1112basic_stringIcSt11char_traitsIcESaIcEEEES8_
FN:347,_ZNSt23_Rb_tree_const_iteratorINSt7__cxx1112basic_stringIcSt11char_traitsIcESaIcEEEEC2EPKSt18_Rb_tree_node_base
FNDA:1872,_ZNSt23_Rb_tree_const_iteratorINSt7__cxx1112basic_stringIcSt11char_traitsIcESaIcEEEEC2EPKSt18_Rb_tree_node_base
FN:350,_ZNSt23_Rb_tree_const_iteratorINSt7__cxx1112basic_stringIcSt11char_traitsIcESaIcEEEEC2ERKSt17_Rb_tree_iteratorIS5_E
FNDA:468,_ZNSt23_Rb_tree_const_iteratorINSt7__cxx1112basic_stringIcSt11char_traitsIcESaIcEEEEC2ERKSt17_Rb_tree_iteratorIS5_E
FN:396,_ZSteqRKSt23_Rb_tree_const_iteratorINSt7__cxx1112basic_stringIcSt11char_traitsIcESaIcEEEES8_
FNDA:936,_ZSteqRKSt23_Rb_tree_const_iteratorINSt7__cxx1112basic_stringIcSt11char_traitsIcESaIcEEEES8_
FN:523,_ZNSt8_Rb_treeINSt7__cxx1112basic_stringIcSt11char_traitsIcESaIcEEES5_St9_IdentityIS5_ESt4lessIS5_ESaIS5_EE11_Alloc_nodeC2ERSB_
FNDA:468,_ZNSt8_Rb_treeINSt7__cxx1112basic_stringIcSt11char_traitsIcESaIcEEES5_St9_IdentityIS5_ESt4lessIS5_ESaIS5_EE11_Alloc_nodeC2ERSB_
FN:528,_ZNKSt8_Rb_treeINSt7__cxx1112basic_stringIcSt11char_traitsIcESaIcEEES5_St9_IdentityIS5_ESt4lessIS5_ESaIS5_EE11_Alloc_nodeclIRKS5_EEPSt13_Rb_tree_nodeIS5_EOT_
FNDA:468,_ZNKSt8_Rb_treeINSt7__cxx1112basic_stringIcSt11char_traitsIcESaIcEEES5_St9_IdentityIS5_ESt4lessIS5_ESaIS5_EE11_Alloc_nodeclIRKS5_EEPSt13_Rb_tree_nodeIS5_EOT_
FN:547,_ZNSt8_Rb_treeINSt7__cxx1112basic_stringIcSt11char_traitsIcESaIcEEES5_St9_IdentityIS5_ESt4lessIS5_ESaIS5_EE21_M_get_Node_allocatorEv
FNDA:1872,_ZNSt8_Rb_treeINSt7__cxx1112basic_stringIcSt11char_traitsIcESaIcEEES5_St9_IdentityIS5_ESt4lessIS5_ESaIS5_EE21_M_get_Node_allocatorEv
FN:560,_ZNSt8_Rb_treeINSt7__cxx1112basic_stringIcSt11char_traitsIcESaIcEEES5_St9_IdentityIS5_ESt4lessIS5_ESaIS5_EE11_M_get_nodeEv
FNDA:468,_ZNSt8_Rb_treeINSt7__cxx1112basic_stringIcSt11char_traitsIcESaIcEEES5_St9_IdentityIS5_ESt4lessIS5_ESaIS5_EE11_M_get_nodeEv
FN:564,_ZNSt8_Rb_treeINSt7__cxx1112basic_stringIcSt11char_traitsIcESaIcEEES5_St9_IdentityIS5_ESt4lessIS5_ESaIS5_EE11_M_put_nodeEPSt13_Rb_tree_nodeIS5_E
FNDA:468,_ZNSt8_Rb_treeINSt7__cxx1112basic_stringIcSt11char_traitsIcESaIcEEES5_St9_IdentityIS5_ESt4lessIS5_ESaIS5_EE11_M_put_nodeEPSt13_Rb_tree_nodeIS5_E
FN:590,_ZNSt8_Rb_treeINSt7__cxx1112basic_stringIcSt11char_traitsIcESaIcEEES5_St9_IdentityIS5_ESt4lessIS5_ESaIS5_EE17_M_construct_nodeIJRKS5_EEEvPSt13_Rb_tree_nodeIS5_EDpOT_
FNDA:468,_ZNSt8_Rb_treeINSt7__cxx1112basic_stringIcSt11char_traitsIcESaIcEEES5_St9_IdentityIS5_ESt4lessIS5_ESaIS5_EE17_M_construct_nodeIJRKS5_EEEvPSt13_Rb_tree_nodeIS5_EDpOT_
FN:609,_ZNSt8_Rb_treeINSt7__cxx1112basic_stringIcSt11char_traitsIcESaIcEEES5_St9_IdentityIS5_ESt4lessIS5_ESaIS5_EE14_M_create_nodeIJRKS5_EEEPSt13_Rb_tree_nodeIS5_EDpOT_
FNDA:468,_ZNSt8_Rb_treeINSt7__cxx1112basic_stringIcSt11char_traitsIcESaIcEEES5_St9_IdentityIS5_ESt4lessIS5_ESaIS5_EE14_M_create_nodeIJRKS5_EEEPSt13_Rb_tree_nodeIS5_EDpOT_
FN:618,_ZNSt8_Rb_treeINSt7__cxx1112basic_stringIcSt11char_traitsIcESaIcEEES5_St9_IdentityIS5_ESt4lessIS5_ESaIS5_EE15_M_destroy_nodeEPSt13_Rb_tree_nodeIS5_E
FNDA:468,_ZNSt8_Rb_treeINSt7__cxx1112basic_stringIcSt11char_traitsIcESaIcEEES5_St9_IdentityIS5_ESt4lessIS5_ESaIS5_EE15_M_destroy_nodeEPSt13_Rb_tree_nodeIS5_E
FN:629,_ZNSt8_Rb_treeINSt7__cxx1112basic_stringIcSt11char_traitsIcESaIcEEES5_St9_IdentityIS5_ESt4lessIS5_ESaIS5_EE12_M_drop_nodeEPSt13_Rb_tree_nodeIS5_E
FNDA:468,_ZNSt8_Rb_treeINSt7__cxx1112basic_stringIcSt11char_traitsIcESaIcEEES5_St9_IdentityIS5_ESt4lessIS5_ESaIS5_EE12_M_drop_nodeEPSt13_Rb_tree_nodeIS5_E
FN:667,_ZNSt8_Rb_treeINSt7__cxx1112basic_stringIcSt11char_traitsIcESaIcEEES5_St9_IdentityIS5_ESt4lessIS5_ESaIS5_EE13_Rb_tree_implIS9_Lb1EEC2Ev
FNDA:18,_ZNSt8_Rb_treeINSt7__cxx1112basic_stringIcSt11char_traitsIcESaIcEEES5_St9_IdentityIS5_ESt4lessIS5_ESaIS5_EE13_Rb_tree_implIS9_Lb1EEC2Ev
FN:734,_ZNKSt8_Rb_treeINSt7__cxx1112basic_stringIcSt11char_traitsIcESaIcEEES5_St9_IdentityIS5_ESt4lessIS5_ESaIS5_EE9_M_mbeginEv
FNDA:486,_ZNKSt8_Rb_treeINSt7__cxx1112basic_stringIcSt11char_traitsIcESaIcEEES5_St9_IdentityIS5_ESt4lessIS5_ESaIS5_EE9_M_mbeginEv
FN:738,_ZNSt8_Rb_treeINSt7__cxx1112basic_stringIcSt11char_traitsIcESaIcEEES5_St9_IdentityIS5_ESt4lessIS5_ESaIS5_EE8_M_beginEv
FNDA:486,_ZNSt8_Rb_treeINSt7__cxx1112basic_stringIcSt11char_traitsIcESaIcEEES5_St9_IdentityIS5_ESt4lessIS5_ESaIS5_EE8_M_beginEv
FN:742,_ZNKSt8_Rb_treeINSt7__cxx1112basic_stringIcSt11char_traitsIcESaIcEEES5_St9_IdentityIS5_ESt4lessIS5_ESaIS5_EE8_M_beginEv
FNDA:468,_ZNKSt8_Rb_treeINSt7__cxx1112basic_stringIcSt11char_traitsIcESaIcEEES5_St9_IdentityIS5_ESt4lessIS5_ESaIS5_EE8_M_beginEv
FN:749,_ZNSt8_Rb_treeINSt7__cxx1112basic_stringIcSt11char_traitsIcESaIcEEES5_St9_IdentityIS5_ESt4lessIS5_ESaIS5_EE6_M_endEv
FNDA:936,_ZNSt8_Rb_treeINSt7__cxx1112basic_stringIcSt11char_traitsIcESaIcEEES5_St9_IdentityIS5_ESt4lessIS5_ESaIS5_EE6_M_endEv
FN:753,_ZNKSt8_Rb_treeINSt7__cxx1112basic_stringIcSt11char_traitsIcESaIcEEES5_St9_IdentityIS5_ESt4lessIS5_ESaIS5_EE6_M_endEv
FNDA:468,_ZNKSt8_Rb_treeINSt7__cxx1112basic_stringIcSt11char_traitsIcESaIcEEES5_St9_IdentityIS5_ESt4lessIS5_ESaIS5_EE6_M_endEv
FN:757,_ZNSt8_Rb_treeINSt7__cxx1112basic_stringIcSt11char_traitsIcESaIcEEES5_St9_IdentityIS5_ESt4lessIS5_ESaIS5_EE6_S_keyEPKSt13_Rb_tree_nodeIS5_E
FNDA:5952,_ZNSt8_Rb_treeINSt7__cxx1112basic_stringIcSt11char_traitsIcESaIcEEES5_St9_IdentityIS5_ESt4lessIS5_ESaIS5_EE6_S_keyEPKSt13_Rb_tree_nodeIS5_E
FN:779,_ZNSt8_Rb_treeINSt7__cxx1112basic_stringIcSt11char_traitsIcESaIcEEES5_St9_IdentityIS5_ESt4lessIS5_ESaIS5_EE7_S_leftEPSt18_Rb_tree_node_base
FNDA:1020,_ZNSt8_Rb_treeINSt7__cxx1112basic_stringIcSt11char_traitsIcESaIcEEES5_St9_IdentityIS5_ESt4lessIS5_ESaIS5_EE7_S_leftEPSt18_Rb_tree_node_base
FN:783,_ZNSt8_Rb_treeINSt7__cxx1112basic_stringIcSt11char_traitsIcESaIcEEES5_St9_IdentityIS5_ESt4lessIS5_ESaIS5_EE7_S_leftEPKSt18_Rb_tree_node_base
FNDA:552,_ZNSt8_Rb_treeINSt7__cxx1112basic_stringIcSt11char_traitsIcESaIcEEES5_St9_IdentityIS5_ESt4lessIS5_ESaIS5_EE7_S_leftEPKSt18_Rb_tree_node_base
FN:787,_ZNSt8_Rb_treeINSt7__cxx1112basic_stringIcSt11char_traitsIcESaIcEEES5_St9_IdentityIS5_ESt4lessIS5_ESaIS5_EE8_S_rightEPSt18_Rb_tree_node_base
FNDA:2274,_ZNSt8_Rb_treeINSt7__cxx1112basic_stringIcSt11char_traitsIcESaIcEEES5_St9_IdentityIS5_ESt4lessIS5_ESaIS5_EE8_S_rightEPSt18_Rb_tree_node_base
FN:791,_ZNSt8_Rb_treeINSt7__cxx1112basic_stringIcSt11char_traitsIcESaIcEEES5_St9_IdentityIS5_ESt4lessIS5_ESaIS5_EE8_S_rightEPKSt18_Rb_tree_node_base
FNDA:1806,_ZNSt8_Rb_treeINSt7__cxx1112basic_stringIcSt11char_traitsIcESaIcEEES5_St9_IdentityIS5_ESt4lessIS5_ESaIS5_EE8_S_rightEPKSt18_Rb_tree_node_base
FN:795,_ZNSt8_Rb_treeINSt7__cxx1112basic_stringIcSt11char_traitsIcESaIcEEES5_St9_IdentityIS5_ESt4lessIS5_ESaIS5_EE6_S_keyEPKSt18_Rb_tree_node_base
FNDA:1236,_ZNSt8_Rb_treeINSt7__cxx1112basic_stringIcSt11char_traitsIcESaIcEEES5_St9_IdentityIS5_ESt4lessIS5_ESaIS5_EE6_S_keyEPKSt18_Rb_tree_node_base
FN:928,_ZNSt8_Rb_treeINSt7__cxx1112basic_stringIcSt11char_traitsIcESaIcEEES5_St9_IdentityIS5_ESt4lessIS5_ESaIS5_EEC2Ev
FNDA:18,_ZNSt8_Rb_treeINSt7__cxx1112basic_stringIcSt11char_traitsIcESaIcEEES5_St9_IdentityIS5_ESt4lessIS5_ESaIS5_EEC2Ev
FN:983,_ZNSt8_Rb_treeINSt7__cxx1112basic_stringIcSt11char_traitsIcESaIcEEES5_St9_IdentityIS5_ESt4lessIS5_ESaIS5_EED2Ev
FNDA:18,_ZNSt8_Rb_treeINSt7__cxx1112basic_stringIcSt11char_traitsIcESaIcEEES5_St9_IdentityIS5_ESt4lessIS5_ESaIS5_EED2Ev
FN:995,_ZNSt8_Rb_treeINSt7__cxx1112basic_stringIcSt11char_traitsIcESaIcEEES5_St9_IdentityIS5_ESt4lessIS5_ESaIS5_EE5beginEv
FNDA:126,_ZNSt8_Rb_treeINSt7__cxx1112basic_stringIcSt11char_traitsIcESaIcEEES5_St9_IdentityIS5_ESt4lessIS5_ESaIS5_EE5beginEv
FN:1007,_ZNKSt8_Rb_treeINSt7__cxx1112basic_stringIcSt11char_traitsIcESaIcEEES5_St9_IdentityIS5_ESt4lessIS5_ESaIS5_EE3endEv
FNDA:1404,_ZNKSt8_Rb_treeINSt7__cxx1112basic_stringIcSt11char_traitsIcESaIcEEES5_St9_IdentityIS5_ESt4lessIS5_ESaIS5_EE3endEv
FN:1771,_ZNSt8_Rb_treeINSt7__cxx1112basic_stringIcSt11char_traitsIcESaIcEEES5_St9_IdentityIS5_ESt4lessIS5_ESaIS5_EE10_M_insert_IRKS5_NSB_11_Alloc_nodeEEESt17_Rb_tree_iteratorIS5_EPSt18_Rb_tree_node_baseSJ_OT_RT0_
FNDA:468,_ZNSt8_Rb_treeINSt7__cxx1112basic_stringIcSt11char_traitsIcESaIcEEES5_St9_IdentityIS5_ESt4lessIS5_ESaIS5_EE10_M_insert_IRKS5_NSB_11_Alloc_nodeEEESt17_Rb_tree_iteratorIS5_EPSt18_Rb_tree_node_baseSJ_OT_RT0_
FN:1883,_ZNSt8_Rb_treeINSt7__cxx1112basic_stringIcSt11char_traitsIcESaIcEEES5_St9_IdentityIS5_ESt4lessIS5_ESaIS5_EE8_M_eraseEPSt13_Rb_tree_nodeIS5_E
FNDA:486,_ZNSt8_Rb_treeINSt7__cxx1112basic_stringIcSt11char_traitsIcESaIcEEES5_St9_IdentityIS5_ESt4lessIS5_ESaIS5_EE8_M_eraseEPSt13_Rb_tree_nodeIS5_E
FN:1916,_ZNKSt8_Rb_treeINSt7__cxx1112basic_stringIcSt11char_traitsIcESaIcEEES5_St9_IdentityIS5_ESt4lessIS5_ESaIS5_EE14_M_lower_boundEPKSt13_Rb_tree_nodeIS5_EPKSt18_Rb_tree_node_baseRKS5_
FNDA:468,_ZNKSt8_Rb_treeINSt7__cxx1112basic_stringIcSt11char_traitsIcESaIcEEES5_St9_IdentityIS5_ESt4lessIS5_ESaIS5_EE14_M_lower_boundEPKSt13_Rb_tree_nodeIS5_EPKSt18_Rb_tree_node_baseRKS5_
FN:2061,_ZNSt8_Rb_treeINSt7__cxx1112basic_stringIcSt11char_traitsIcESaIcEEES5_St9_IdentityIS5_ESt4lessIS5_ESaIS5_EE24_M_get_insert_unique_posERKS5_
FNDA:468,_ZNSt8_Rb_treeINSt7__cxx1112basic_stringIcSt11char_traitsIcESaIcEEES5_St9_IdentityIS5_ESt4lessIS5_ESaIS5_EE24_M_get_insert_unique_posERKS5_
FN:2115,_ZNSt8_Rb_treeINSt7__cxx1112basic_stringIcSt11char_traitsIcESaIcEEES5_St9_IdentityIS5_ESt4lessIS5_ESaIS5_EE16_M_insert_uniqueIRKS5_EESt4pairISt17_Rb_tree_iteratorIS5_EbEOT_
FNDA:468,_ZNSt8_Rb_treeINSt7__cxx1112basic_stringIcSt11char_traitsIcESaIcEEES5_St9_IdentityIS5_ESt4lessIS5_ESaIS5_EE16_M_insert_uniqueIRKS5_EESt4pairISt17_Rb_tree_iteratorIS5_EbEOT_
FN:2533,_ZNKSt8_Rb_treeINSt7__cxx1112basic_stringIcSt11char_traitsIcESaIcEEES5_St9_IdentityIS5_ESt4lessIS5_ESaIS5_EE4findERKS5_
FNDA:468,_ZNKSt8_Rb_treeINSt7__cxx1112basic_stringIcSt11char_traitsIcESaIcEEES5_St9_IdentityIS5_ESt4lessIS5_ESaIS5_EE4findERKS5_
DA:146,18
DA:150,18
DA:173,18
DA:174,18
DA:175,18
DA:176,18
DA:177,18
DA:206,18
DA:208,18
DA:209,18
DA:210,18
DA:211,18
DA:212,18
DA:234,936
DA:235,936
DA:238,5952
DA:239,5952
DA:273,1062
DA:274,1062
DA:300,108
DA:302,108
DA:303,108
DA:315,126
DA:316,126
DA:347,1872
DA:348,1872
DA:350,468
DA:351,468
DA:396,936
DA:397,936
DA:523,468
DA:524,468
DA:528,468
DA:529,468
DA:547,1872
DA:548,1872
DA:560,468
DA:561,468
DA:564,468
DA:565,468
DA:590,468
DA:594,468
DA:595,468
DA:599,0
DA:601,0
DA:602,0
DA:603,0
DA:605,468
DA:609,468
DA:611,468
DA:612,468
DA:613,468
DA:618,468
DA:623,468
DA:624,468
DA:626,468
DA:629,468
DA:631,468
DA:632,468
DA:633,468
DA:667,18
DA:671,18
DA:672,18
DA:734,486
DA:735,486
DA:738,486
DA:739,486
DA:742,468
DA:745,468
DA:749,936
DA:750,936
DA:753,468
DA:754,468
DA:757,5952
DA:775,5952
DA:779,1020
DA:780,1020
DA:783,552
DA:784,552
DA:787,2274
DA:788,2274
DA:791,1806
DA:792,1806
DA:795,1236
DA:796,1236
DA:928,18
DA:983,18
DA:984,18
DA:995,126
DA:996,126
DA:1007,1404
DA:1008,1404
DA:1771,468
DA:1780,468
DA:1781,936
DA:1784,468
DA:1786,468
DA:1787,468
DA:1788,468
DA:1789,468
DA:1883,486
DA:1887,954
DA:1889,468
DA:1890,468
DA:1891,468
DA:1892,468
DA:1894,486
DA:1916,468
DA:1920,2826
DA:1921,2358
DA:1922,552
DA:1924,1806
DA:1925,468
DA:2061,468
DA:2065,468
DA:2066,468
DA:2067,468
DA:2068,2826
DA:2070,2358
DA:2071,2358
DA:2072,2358
DA:2074,468
DA:2075,468
DA:2077,126
DA:2078,18
DA:2080,108
DA:2082,450
DA:2083,450
DA:2084,0
DA:2115,468
DA:2124,468
DA:2126,468
DA:2128,468
DA:2129,468
DA:2131,468
DA:2134,0
DA:2533,468
DA:2536,468
DA:2537,936
DA:2538,336
DA:2539,1272
end_of_record
SF:/usr/include/gtest/internal/gtest-internal.h
FN:435,_ZN7testing8internal9GetTypeIdI11FindFixtureEEPKvv
FNDA:120,_ZN7testing8internal9GetTypeIdI11FindFixtureEEPKvv
FN:435,_ZN7testing8internal9GetTypeIdI11RankFixtureEEPKvv
FNDA:120,_ZN7testing8internal9GetTypeIdI11RankFixtureEEPKvv
FN:435,_ZN7testing8internal9GetTypeIdI14MaximumFixtureEEPKvv
FNDA:120,_ZN7testing8internal9GetTypeIdI14MaximumFixtureEEPKvv
FN:435,_ZN7testing8internal9GetTypeIdI14MinimumFixtureEEPKvv
FNDA:120,_ZN7testing8internal9GetTypeIdI14MinimumFixtureEEPKvv
FN:435,_ZN7testing8internal9GetTypeIdI21RXRotateInsertFixtureEEPKvv
FNDA:12,_ZN7testing8internal9GetTypeIdI21RXRotateInsertFixtureEEPKvv
FN:435,_ZN7testing8internal9GetTypeIdI21LXRotateInsertFixtureEEPKvv
FNDA:12,_ZN7testing8internal9GetTypeIdI21LXRotateInsertFixtureEEPKvv
FN:435,_ZN7testing8internal9GetTypeIdI14SetTestFixtureEEPKvv
FNDA:24,_ZN7testing8internal9GetTypeIdI14SetTestFixtureEEPKvv
FN:454,_ZN7testing8internal15TestFactoryBaseD2Ev
FNDA:531,_ZN7testing8internal15TestFactoryBaseD2Ev
FN:454,_ZN7testing8internal15TestFactoryBaseD0Ev
FNDA:0,_ZN7testing8internal15TestFactoryBaseD0Ev
FN:461,_ZN7testing8internal15TestFactoryBaseC2Ev
FNDA:531,_ZN7testing8internal15TestFactoryBaseC2Ev
FN:472,_ZN7testing8internal15TestFactoryImplI31EraseTest_TestEraseOnEmpty_TestE10CreateTestEv
FNDA:3,_ZN7testing8internal15TestFactoryImplI31EraseTest_TestEraseOnEmpty_TestE10CreateTestEv
FN:472,_ZN7testing8internal15TestFactoryImplI33SetTestFixture_TestRankSetUp_TestE10CreateTestEv
FNDA:3,_ZN7testing8internal15TestFactoryImplI33SetTestFixture_TestRankSetUp_TestE10CreateTestEv
FN:472,_ZN7testing8internal15TestFactoryImplI43SetTestFixture_TestEraseUsingSuccessor_TestE10CreateTestEv
FNDA:3,_ZN7testing8internal15TestFactoryImplI43SetTestFixture_TestEraseUsingSuccessor_TestE10CreateTestEv
FN:472,_ZN7testing8internal15TestFactoryImplI32SetTestFixture_TestFindLeaf_TestE10CreateTestEv
FNDA:3,_ZN7testing8internal15TestFactoryImplI32SetTestFixture_TestFindLeaf_TestE10CreateTestEv
FN:472,_ZN7testing8internal15TestFactoryImplI40SetTestFixture_TestMinimumXIsNotMAx_TestE10CreateTestEv
FNDA:3,_ZN7testing8internal15TestFactoryImplI40SetTestFixture_TestMinimumXIsNotMAx_TestE10CreateTestEv
FN:472,_ZN7testing8internal15TestFactoryImplI40SetTestFixture_TestMaximumXIsNotMAx_TestE10CreateTestEv
FNDA:3,_ZN7testing8internal15TestFactoryImplI40SetTestFixture_TestMaximumXIsNotMAx_TestE10CreateTestEv
FN:472,_ZN7testing8internal15TestFactoryImplI40SetTestFixture_TestInsertRightChild_TestE10CreateTestEv
FNDA:3,_ZN7testing8internal15TestFactoryImplI40SetTestFixture_TestInsertRightChild_TestE10CreateTestEv
FN:472,_ZN7testing8internal15TestFactoryImplI39SetTestFixture_TestInsertLeftChild_TestE10CreateTestEv
FNDA:3,_ZN7testing8internal15TestFactoryImplI39SetTestFixture_TestInsertLeftChild_TestE10CreateTestEv
FN:472,_ZN7testing8internal15TestFactoryImplI35SetTestFixture_TestInsertExist_TestE10CreateTestEv
FNDA:3,_ZN7testing8internal15TestFactoryImplI35SetTestFixture_TestInsertExist_TestE10CreateTestEv
FN:472,_ZN7testing8internal15TestFactoryImplI28AVLtreeTest_AVLtreeTest_TestE10CreateTestEv
FNDA:3,_ZN7testing8internal15TestFactoryImplI28AVLtreeTest_AVLtreeTest_TestE10CreateTestEv
FN:472,_ZN7testing8internal15TestFactoryImplI26RankTest_TestRankRoot_TestE10CreateTestEv
FNDA:3,_ZN7testing8internal15TestFactoryImplI26RankTest_TestRankRoot_TestE10CreateTestEv
FN:472,_ZN7testing8internal15TestFactoryImplI28EraseTest_TestEraseRoot_TestE10CreateTestEv
FNDA:3,_ZN7testing8internal15TestFactoryImplI28EraseTest_TestEraseRoot_TestE10CreateTestEv
FN:472,_ZN7testing8internal15TestFactoryImplI28FindTest_TestFindOnRoot_TestE10CreateTestEv
FNDA:3,_ZN7testing8internal15TestFactoryImplI28FindTest_TestFindOnRoot_TestE10CreateTestEv
FN:472,_ZN7testing8internal15TestFactoryImplI29FindTest_TestFindOnEmpty_TestE10CreateTestEv
FNDA:3,_ZN7testing8internal15TestFactoryImplI29FindTest_TestFindOnEmpty_TestE10CreateTestEv
FN:472,_ZN7testing8internal15TestFactoryImplI34MinimumTest_TestMinimumXIsMin_TestE10CreateTestEv
FNDA:3,_ZN7testing8internal15TestFactoryImplI34MinimumTest_TestMinimumXIsMin_TestE10CreateTestEv
FN:472,_ZN7testing8internal15TestFactoryImplI34MaximumTest_TestMaximumXIsMax_TestE10CreateTestEv
FNDA:3,_ZN7testing8internal15TestFactoryImplI34MaximumTest_TestMaximumXIsMax_TestE10CreateTestEv
FN:472,_ZN7testing8internal15TestFactoryImplI22SizeTest_TestSize_TestE10CreateTestEv
FNDA:3,_ZN7testing8internal15TestFactoryImplI22SizeTest_TestSize_TestE10CreateTestEv
FN:472,_ZN7testing8internal15TestFactoryImplI29SizeTest_TestSizeOnEmpty_TestE10CreateTestEv
FNDA:3,_ZN7testing8internal15TestFactoryImplI29SizeTest_TestSizeOnEmpty_TestE10CreateTestEv
FN:472,_ZN7testing8internal15TestFactoryImplI34EmptyTest_TestEmptyOnNotEmpty_TestE10CreateTestEv
FNDA:3,_ZN7testing8internal15TestFactoryImplI34EmptyTest_TestEmptyOnNotEmpty_TestE10CreateTestEv
FN:472,_ZN7testing8internal15TestFactoryImplI31EmptyTest_TestEmptyOnEmpty_TestE10CreateTestEv
FNDA:3,_ZN7testing8internal15TestFactoryImplI31EmptyTest_TestEmptyOnEmpty_TestE10CreateTestEv
FN:472,_ZN7testing8internal15TestFactoryImplI33InsertTest_TestInsertOnEmpty_TestE10CreateTestEv
FNDA:3,_ZN7testing8internal15TestFactoryImplI33InsertTest_TestInsertOnEmpty_TestE10CreateTestEv
FN:493,_ZN7testing8internal12CodeLocationC2ERKNSt7__cxx1112basic_stringIcSt11char_traitsIcESaIcEEEi
FNDA:117,_ZN7testing8internal12CodeLocationC2ERKNSt7__cxx1112basic_stringIcSt11char_traitsIcESaIcEEEi
FN:506,_ZN7testing8internal19GetNotDefaultOrNullEPFvvES2_
FNDA:2124,_ZN7testing8internal19GetNotDefaultOrNullEPFvvES2_
FN:521,_ZN7testing8internal16SuiteApiResolverI21LXRotateInsertFixtureE19GetSetUpCaseOrSuiteEPKci
FNDA:6,_ZN7testing8internal16SuiteApiResolverI21LXRotateInsertFixtureE19GetSetUpCaseOrSuiteEPKci
FN:521,_ZN7testing8internal16SuiteApiResolverI14SetTestFixtureE19GetSetUpCaseOrSuiteEPKci
FNDA:24,_ZN7testing8internal16SuiteApiResolverI14SetTestFixtureE19GetSetUpCaseOrSuiteEPKci
FN:521,_ZN7testing8internal16SuiteApiResolverINS_4TestEE19GetSetUpCaseOrSuiteEPKci
FNDA:39,_ZN7testing8internal16SuiteApiResolverINS_4TestEE19GetSetUpCaseOrSuiteEPKci
FN:521,_ZN7testing8internal16SuiteApiResolverI11FindFixtureE19GetSetUpCaseOrSuiteEPKci
FNDA:114,_ZN7testing8internal16SuiteApiResolverI11FindFixtureE19GetSetUpCaseOrSuiteEPKci
FN:521,_ZN7testing8internal16SuiteApiResolverI21RXRotateInsertFixtureE19GetSetUpCaseOrSuiteEPKci
FNDA:6,_ZN7testing8internal16SuiteApiResolverI21RXRotateInsertFixtureE19GetSetUpCaseOrSuiteEPKci
FN:521,_ZN7testing8internal16SuiteApiResolverI11RankFixtureE19GetSetUpCaseOrSuiteEPKci
FNDA:114,_ZN7testing8internal16SuiteApiResolverI11RankFixtureE19GetSetUpCaseOrSuiteEPKci
FN:521,_ZN7testing8internal16SuiteApiResolverI14MinimumFixtureE19GetSetUpCaseOrSuiteEPKci
FNDA:114,_ZN7testing8internal16SuiteApiResolverI14MinimumFixtureE19GetSetUpCaseOrSuiteEPKci
FN:521,_ZN7testing8internal16SuiteApiResolverI14MaximumFixtureE19GetSetUpCaseOrSuiteEPKci
FNDA:114,_ZN7testing8internal16SuiteApiResolverI14MaximumFixtureE19GetSetUpCaseOrSuiteEPKci
FN:542,_ZN7testing8internal16SuiteApiResolverI21LXRotateInsertFixtureE22GetTearDownCaseOrSuiteEPKci
FNDA:6,_ZN7testing8internal16SuiteApiResolverI21LXRotateInsertFixtureE22GetTearDownCaseOrSuiteEPKci
FN:542,_ZN7testing8internal16SuiteApiResolverI11FindFixtureE22GetTearDownCaseOrSuiteEPKci
FNDA:114,_ZN7testing8internal16SuiteApiResolverI11FindFixtureE22GetTearDownCaseOrSuiteEPKci
FN:542,_ZN7testing8internal16SuiteApiResolverI14SetTestFixtureE22GetTearDownCaseOrSuiteEPKci
FNDA:24,_ZN7testing8internal16SuiteApiResolverI14SetTestFixtureE22GetTearDownCaseOrSuiteEPKci
FN:542,_ZN7testing8internal16SuiteApiResolverI11RankFixtureE22GetTearDownCaseOrSuiteEPKci
FNDA:114,_ZN7testing8internal16SuiteApiResolverI11RankFixtureE22GetTearDownCaseOrSuiteEPKci
FN:542,_ZN7testing8internal16SuiteApiResolverINS_4TestEE22GetTearDownCaseOrSuiteEPKci
FNDA:39,_ZN7testing8internal16SuiteApiResolverINS_4TestEE22GetTearDownCaseOrSuiteEPKci
FN:542,_ZN7testing8internal16SuiteApiResolverI14MaximumFixtureE22GetTearDownCaseOrSuiteEPKci
FNDA:114,_ZN7testing8internal16SuiteApiResolverI14MaximumFixtureE22GetTearDownCaseOrSuiteEPKci
FN:542,_ZN7testing8internal16SuiteApiResolverI14MinimumFixtureE22GetTearDownCaseOrSuiteEPKci
FNDA:114,_ZN7testing8internal16SuiteApiResolverI14MinimumFixtureE22GetTearDownCaseOrSuiteEPKci
FN:542,_ZN7testing8internal16SuiteApiResolverI21RXRotateInsertFixtureE22GetTearDownCaseOrSuiteEPKci
FNDA:6,_ZN7testing8internal16SuiteApiResolverI21RXRotateInsertFixtureE22GetTearDownCaseOrSuiteEPKci
FN:844,_ZN7testing8internal11AlwaysFalseEv
FNDA:468,_ZN7testing8internal11AlwaysFalseEv
FN:1227,_ZN7testing8internal17FlatTupleElemBaseINS0_9FlatTupleIJSt5tupleIJiiiEES4_S4_S4_S4_S4_S4_S4_S4_S4_S4_S4_S4_S4_S4_S4_S4_S4_S4_S4_S4_S4_S4_S4_S4_S4_S4_S4_S4_S4_S4_S4_S4_S4_S4_S4_S4_S4_EEELm11EEC2IS4_EENS0_21FlatTupleConstructTagEOT_
FNDA:9,_ZN7testing8internal17FlatTupleElemBaseINS0_9FlatTupleIJSt5tupleIJiiiEES4_S4_S4_S4_S4_S4_S4_S4_S4_S4_S4_S4_S4_S4_S4_S4_S4_S4_S4_S4_S4_S4_S4_S4_S4_S4_S4_S4_S4_S4_S4_S4_S4_S4_S4_S4_S4_EEELm11EEC2IS4_EENS0_21FlatTupleConstructTagEOT_
FN:1227,_ZN7testing8internal17FlatTupleElemBaseINS0_9FlatTupleIJSt5tupleIJiiiEES4_S4_S4_S4_S4_S4_S4_S4_S4_S4_S4_S4_S4_S4_S4_S4_S4_S4_S4_S4_S4_S4_S4_S4_S4_S4_S4_S4_S4_S4_S4_S4_S4_S4_S4_S4_S4_EEELm25EEC2IS4_EENS0_21FlatTupleConstructTagEOT_
FNDA:9,_ZN7testing8internal17FlatTupleElemBaseINS0_9FlatTupleIJSt5tupleIJiiiEES4_S4_S4_S4_S4_S4_S4_S4_S4_S4_S4_S4_S4_S4_S4_S4_S4_S4_S4_S4_S4_S4_S4_S4_S4_S4_S4_S4_S4_S4_S4_S4_S4_S4_S4_S4_S4_EEELm25EEC2IS4_EENS0_21FlatTupleConstructTagEOT_
FN:1227,_ZN7testing8internal17FlatTupleElemBaseINS0_9FlatTupleIJSt5tupleIJiiiEES4_S4_S4_S4_S4_S4_S4_S4_S4_S4_S4_S4_S4_S4_S4_S4_S4_S4_S4_S4_S4_S4_S4_S4_S4_S4_S4_S4_S4_S4_S4_S4_S4_S4_S4_S4_S4_EEELm12EEC2IS4_EENS0_21FlatTupleConstructTagEOT_
FNDA:9,_ZN7testing8internal17FlatTupleElemBaseINS0_9FlatTupleIJSt5tupleIJiiiEES4_S4_S4_S4_S4_S4_S4_S4_S4_S4_S4_S4_S4_S4_S4_S4_S4_S4_S4_S4_S4_S4_S4_S4_S4_S4_S4_S4_S4_S4_S4_S4_S4_S4_S4_S4_S4_EEELm12EEC2IS4_EENS0_21FlatTupleConstructTagEOT_
FN:1227,_ZN7testing8internal17FlatTupleElemBaseINS0_9FlatTupleIJSt5tupleIJiiiEES4_S4_S4_S4_S4_S4_S4_S4_S4_S4_S4_S4_S4_S4_S4_S4_S4_S4_S4_S4_S4_S4_S4_S4_S4_S4_S4_S4_S4_S4_S4_S4_S4_S4_S4_S4_S4_EEELm13EEC2IS4_EENS0_21FlatTupleConstructTagEOT_
FNDA:9,_ZN7testing8internal17FlatTupleElemBaseINS0_9FlatTupleIJSt5tupleIJiiiEES4_S4_S4_S4_S4_S4_S4_S4_S4_S4_S4_S4_S4_S4_S4_S4_S4_S4_S4_S4_S4_S4_S4_S4_S4_S4_S4_S4_S4_S4_S4_S4_S4_S4_S4_S4_S4_EEELm13EEC2IS4_EENS0_21FlatTupleConstructTagEOT_
FN:1227,_ZN7testing8internal17FlatTupleElemBaseINS0_9FlatTupleIJSt5tupleIJiiiEES4_S4_S4_S4_S4_S4_S4_S4_S4_S4_S4_S4_S4_S4_S4_S4_S4_S4_S4_S4_S4_S4_S4_S4_S4_S4_S4_S4_S4_S4_S4_S4_S4_S4_S4_S4_S4_EEELm14EEC2IS4_EENS0_21FlatTupleConstructTagEOT_
FNDA:9,_ZN7testing8internal17FlatTupleElemBaseINS0_9FlatTupleIJSt5tupleIJiiiEES4_S4_S4_S4_S4_S4_S4_S4_S4_S4_S4_S4_S4_S4_S4_S4_S4_S4_S4_S4_S4_S4_S4_S4_S4_S4_S4_S4_S4_S4_S4_S4_S4_S4_S4_S4_S4_EEELm14EEC2IS4_EENS0_21FlatTupleConstructTagEOT_
FN:1227,_ZN7testing8internal17FlatTupleElemBaseINS0_9FlatTupleIJSt5tupleIJiiiEES4_S4_S4_S4_S4_S4_S4_S4_S4_S4_S4_S4_S4_S4_S4_S4_S4_S4_S4_S4_S4_S4_S4_S4_S4_S4_S4_S4_S4_S4_S4_S4_S4_S4_S4_S4_S4_EEELm15EEC2IS4_EENS0_21FlatTupleConstructTagEOT_
FNDA:9,_ZN7testing8internal17FlatTupleElemBaseINS0_9FlatTupleIJSt5tupleIJiiiEES4_S4_S4_S4_S4_S4_S4_S4_S4_S4_S4_S4_S4_S4_S4_S4_S4_S4_S4_S4_S4_S4_S4_S4_S4_S4_S4_S4_S4_S4_S4_S4_S4_S4_S4_S4_S4_EEELm15EEC2IS4_EENS0_21FlatTupleConstructTagEOT_
FN:1227,_ZN7testing8internal17FlatTupleElemBaseINS0_9FlatTupleIJSt5tupleIJiiiEES4_S4_S4_S4_S4_S4_S4_S4_S4_S4_S4_S4_S4_S4_S4_S4_S4_S4_S4_S4_S4_S4_S4_S4_S4_S4_S4_S4_S4_S4_S4_S4_S4_S4_S4_S4_S4_EEELm16EEC2IS4_EENS0_21FlatTupleConstructTagEOT_
FNDA:9,_ZN7testing8internal17FlatTupleElemBaseINS0_9FlatTupleIJSt5tupleIJiiiEES4_S4_S4_S4_S4_S4_S4_S4_S4_S4_S4_S4_S4_S4_S4_S4_S4_S4_S4_S4_S4_S4_S4_S4_S4_S4_S4_S4_S4_S4_S4_S4_S4_S4_S4_S4_S4_EEELm16EEC2IS4_EENS0_21FlatTupleConstructTagEOT_
FN:1227,_ZN7testing8internal17FlatTupleElemBaseINS0_9FlatTupleIJSt5tupleIJiiiEES4_S4_S4_S4_S4_S4_S4_S4_S4_S4_S4_S4_S4_S4_S4_S4_S4_S4_S4_S4_S4_S4_S4_S4_S4_S4_S4_S4_S4_S4_S4_S4_S4_S4_S4_S4_S4_EEELm17EEC2IS4_EENS0_21FlatTupleConstructTagEOT_
FNDA:9,_ZN7testing8internal17FlatTupleElemBaseINS0_9FlatTupleIJSt5tupleIJiiiEES4_S4_S4_S4_S4_S4_S4_S4_S4_S4_S4_S4_S4_S4_S4_S4_S4_S4_S4_S4_S4_S4_S4_S4_S4_S4_S4_S4_S4_S4_S4_S4_S4_S4_S4_S4_S4_EEELm17EEC2IS4_EENS0_21FlatTupleConstructTagEOT_
FN:1227,_ZN7testing8internal17FlatTupleElemBaseINS0_9FlatTupleIJSt5tupleIJiiiEES4_S4_S4_S4_S4_S4_S4_S4_S4_S4_S4_S4_S4_S4_S4_S4_S4_S4_S4_S4_S4_S4_S4_S4_S4_S4_S4_S4_S4_S4_S4_S4_S4_S4_S4_S4_S4_EEELm18EEC2IS4_EENS0_21FlatTupleConstructTagEOT_
FNDA:9,_ZN7testing8internal17FlatTupleElemBaseINS0_9FlatTupleIJSt5tupleIJiiiEES4_S4_S4_S4_S4_S4_S4_S4_S4_S4_S4_S4_S4_S4_S4_S4_S4_S4_S4_S4_S4_S4_S4_S4_S4_S4_S4_S4_S4_S4_S4_S4_S4_S4_S4_S4_S4_EEELm18EEC2IS4_EENS0_21FlatTupleConstructTagEOT_
FN:1227,_ZN7testing8internal17FlatTupleElemBaseINS0_9FlatTupleIJSt5tupleIJiiiEES4_S4_S4_S4_S4_S4_S4_S4_S4_S4_S4_S4_S4_S4_S4_S4_S4_S4_S4_S4_S4_S4_S4_S4_S4_S4_S4_S4_S4_S4_S4_S4_S4_S4_S4_S4_S4_EEELm19EEC2IS4_EENS0_21FlatTupleConstructTagEOT_
FNDA:9,_ZN7testing8internal17FlatTupleElemBaseINS0_9FlatTupleIJSt5tupleIJiiiEES4_S4_S4_S4_S4_S4_S4_S4_S4_S4_S4_S4_S4_S4_S4_S4_S4_S4_S4_S4_S4_S4_S4_S4_S4_S4_S4_S4_S4_S4_S4_S4_S4_S4_S4_S4_S4_EEELm19EEC2IS4_EENS0_21FlatTupleConstructTagEOT_
FN:1227,_ZN7testing8internal17FlatTupleElemBaseINS0_9FlatTupleIJSt5tupleIJiiiEES4_S4_S4_S4_S4_S4_S4_S4_S4_S4_S4_S4_S4_S4_S4_S4_S4_S4_S4_S4_S4_S4_S4_S4_S4_S4_S4_S4_S4_S4_S4_S4_S4_S4_S4_S4_S4_EEELm20EEC2IS4_EENS0_21FlatTupleConstructTagEOT_
FNDA:9,_ZN7testing8internal17FlatTupleElemBaseINS0_9FlatTupleIJSt5tupleIJiiiEES4_S4_S4_S4_S4_S4_S4_S4_S4_S4_S4_S4_S4_S4_S4_S4_S4_S4_S4_S4_S4_S4_S4_S4_S4_S4_S4_S4_S4_S4_S4_S4_S4_S4_S4_S4_S4_EEELm20EEC2IS4_EENS0_21FlatTupleConstructTagEOT_
FN:1227,_ZN7testing8internal17FlatTupleElemBaseINS0_9FlatTupleIJSt5tupleIJiiiEES4_S4_S4_S4_S4_S4_S4_S4_S4_S4_S4_S4_S4_S4_S4_S4_S4_S4_S4_S4_S4_S4_S4_S4_S4_S4_S4_S4_S4_S4_S4_S4_S4_S4_S4_S4_S4_EEELm21EEC2IS4_EENS0_21FlatTupleConstructTagEOT_
FNDA:9,_ZN7testing8internal17FlatTupleElemBaseINS0_9FlatTupleIJSt5tupleIJiiiEES4_S4_S4_S4_S4_S4_S4_S4_S4_S4_S4_S4_S4_S4_S4_S4_S4_S4_S4_S4_S4_S4_S4_S4_S4_S4_S4_S4_S4_S4_S4_S4_S4_S4_S4_S4_S4_EEELm21EEC2IS4_EENS0_21FlatTupleConstructTagEOT_
FN:1227,_ZN7testing8internal17FlatTupleElemBaseINS0_9FlatTupleIJSt5tupleIJiiiEES4_S4_S4_S4_S4_S4_S4_S4_S4_S4_S4_S4_S4_S4_S4_S4_S4_S4_S4_S4_S4_S4_S4_S4_S4_S4_S4_S4_S4_S4_S4_S4_S4_S4_S4_S4_S4_EEELm22EEC2IS4_EENS0_21FlatTupleConstructTagEOT_
FNDA:9,_ZN7testing8internal17FlatTupleElemBaseINS0_9FlatTupleIJSt5tupleIJiiiEES4_S4_S4_S4_S4_S4_S4_S4_S4_S4_S4_S4_S4_S4_S4_S4_S4_S4_S4_S4_S4_S4_S4_S4_S4_S4_S4_S4_S4_S4_S4_S4_S4_S4_S4_S4_S4_EEELm22EEC2IS4_EENS0_21FlatTupleConstructTagEOT_
FN:1227,_ZN7testing8internal17FlatTupleElemBaseINS0_9FlatTupleIJSt5tupleIJiiiEES4_S4_S4_S4_S4_S4_S4_S4_S4_S4_S4_S4_S4_S4_S4_S4_S4_S4_S4_S4_S4_S4_S4_S4_S4_S4_S4_S4_S4_S4_S4_S4_S4_S4_S4_S4_S4_EEELm23EEC2IS4_EENS0_21FlatTupleConstructTagEOT_
FNDA:9,_ZN7testing8internal17FlatTupleElemBaseINS0_9FlatTupleIJSt5tupleIJiiiEES4_S4_S4_S4_S4_S4_S4_S4_S4_S4_S4_S4_S4_S4_S4_S4_S4_S4_S4_S4_S4_S4_S4_S4_S4_S4_S4_S4_S4_S4_S4_S4_S4_S4_S4_S4_S4_EEELm23EEC2IS4_EENS0_21FlatTupleConstructTagEOT_
FN:1227,_ZN7testing8internal17FlatTupleElemBaseINS0_9FlatTupleIJSt5tupleIJiiiEES4_S4_S4_S4_S4_S4_S4_S4_S4_S4_S4_S4_S4_S4_S4_S4_S4_S4_S4_S4_S4_S4_S4_S4_S4_S4_S4_S4_S4_S4_S4_S4_S4_S4_S4_S4_S4_EEELm24EEC2IS4_EENS0_21FlatTupleConstructTagEOT_
FNDA:9,_ZN7testing8internal17FlatTupleElemBaseINS0_9FlatTupleIJSt5tupleIJiiiEES4_S4_S4_S4_S4_S4_S4_S4_S4_S4_S4_S4_S4_S4_S4_S4_S4_S4_S4_S4_S4_S4_S4_S4_S4_S4_S4_S4_S4_S4_S4_S4_S4_S4_S4_S4_S4_EEELm24EEC2IS4_EENS0_21FlatTupleConstructTagEOT_
FN:1227,_ZN7testing8internal17FlatTupleElemBaseINS0_9FlatTupleIJSt5tupleIJiiEES4_S4_S4_S4_S4_S4_S4_S4_S4_S4_S4_S4_S4_S4_S4_S4_S4_S4_S4_S4_S4_S4_S4_S4_S4_S4_S4_S4_S4_S4_S4_S4_S4_S4_S4_S4_S4_EEELm33EEC2IS4_EENS0_21FlatTupleConstructTagEOT_
FNDA:3,_ZN7testing8internal17FlatTupleElemBaseINS0_9FlatTupleIJSt5tupleIJiiEES4_S4_S4_S4_S4_S4_S4_S4_S4_S4_S4_S4_S4_S4_S4_S4_S4_S4_S4_S4_S4_S4_S4_S4_S4_S4_S4_S4_S4_S4_S4_S4_S4_S4_S4_S4_S4_EEELm33EEC2IS4_EENS0_21FlatTupleConstructTagEOT_
FN:1227,_ZN7testing8internal17FlatTupleElemBaseINS0_9FlatTupleIJSt5tupleIJiiiEES4_S4_S4_S4_S4_S4_S4_S4_S4_S4_S4_S4_S4_S4_S4_S4_S4_S4_S4_S4_S4_S4_S4_S4_S4_S4_S4_S4_S4_S4_S4_S4_S4_S4_S4_S4_S4_EEELm10EEC2IS4_EENS0_21FlatTupleConstructTagEOT_
FNDA:9,_ZN7testing8internal17FlatTupleElemBaseINS0_9FlatTupleIJSt5tupleIJiiiEES4_S4_S4_S4_S4_S4_S4_S4_S4_S4_S4_S4_S4_S4_S4_S4_S4_S4_S4_S4_S4_S4_S4_S4_S4_S4_S4_S4_S4_S4_S4_S4_S4_S4_S4_S4_S4_EEELm10EEC2IS4_EENS0_21FlatTupleConstructTagEOT_
FN:1227,_ZN7testing8internal17FlatTupleElemBaseINS0_9FlatTupleIJSt5tupleIJiiiEES4_S4_S4_S4_S4_S4_S4_S4_S4_S4_S4_S4_S4_S4_S4_S4_S4_S4_S4_S4_S4_S4_S4_S4_S4_S4_S4_S4_S4_S4_S4_S4_S4_S4_S4_S4_S4_EEELm9EEC2IS4_EENS0_21FlatTupleConstructTagEOT_
FNDA:9,_ZN7testing8internal17FlatTupleElemBaseINS0_9FlatTupleIJSt5tupleIJiiiEES4_S4_S4_S4_S4_S4_S4_S4_S4_S4_S4_S4_S4_S4_S4_S4_S4_S4_S4_S4_S4_S4_S4_S4_S4_S4_S4_S4_S4_S4_S4_S4_S4_S4_S4_S4_S4_EEELm9EEC2IS4_EENS0_21FlatTupleConstructTagEOT_
FN:1227,_ZN7testing8internal17FlatTupleElemBaseINS0_9FlatTupleIJSt5tupleIJiiiEES4_S4_S4_S4_S4_S4_S4_S4_S4_S4_S4_S4_S4_S4_S4_S4_S4_S4_S4_S4_S4_S4_S4_S4_S4_S4_S4_S4_S4_S4_S4_S4_S4_S4_S4_S4_S4_EEELm8EEC2IS4_EENS0_21FlatTupleConstructTagEOT_
FNDA:9,_ZN7testing8internal17FlatTupleElemBaseINS0_9FlatTupleIJSt5tupleIJiiiEES4_S4_S4_S4_S4_S4_S4_S4_S4_S4_S4_S4_S4_S4_S4_S4_S4_S4_S4_S4_S4_S4_S4_S4_S4_S4_S4_S4_S4_S4_S4_S4_S4_S4_S4_S4_S4_EEELm8EEC2IS4_EENS0_21FlatTupleConstructTagEOT_
FN:1227,_ZN7testing8internal17FlatTupleElemBaseINS0_9FlatTupleIJSt5tupleIJiiiEES4_S4_S4_S4_S4_S4_S4_S4_S4_S4_S4_S4_S4_S4_S4_S4_S4_S4_S4_S4_S4_S4_S4_S4_S4_S4_S4_S4_S4_S4_S4_S4_S4_S4_S4_S4_S4_EEELm7EEC2IS4_EENS0_21FlatTupleConstructTagEOT_
FNDA:9,_ZN7testing8internal17FlatTupleElemBaseINS0_9FlatTupleIJSt5tupleIJiiiEES4_S4_S4_S4_S4_S4_S4_S4_S4_S4_S4_S4_S4_S4_S4_S4_S4_S4_S4_S4_S4_S4_S4_S4_S4_S4_S4_S4_S4_S4_S4_S4_S4_S4_S4_S4_S4_EEELm7EEC2IS4_EENS0_21FlatTupleConstructTagEOT_
FN:1227,_ZN7testing8internal17FlatTupleElemBaseINS0_9FlatTupleIJSt5tupleIJiiiEES4_S4_S4_S4_S4_S4_S4_S4_S4_S4_S4_S4_S4_S4_S4_S4_S4_S4_S4_S4_S4_S4_S4_S4_S4_S4_S4_S4_S4_S4_S4_S4_S4_S4_S4_S4_S4_EEELm6EEC2IS4_EENS0_21FlatTupleConstructTagEOT_
FNDA:9,_ZN7testing8internal17FlatTupleElemBaseINS0_9FlatTupleIJSt5tupleIJiiiEES4_S4_S4_S4_S4_S4_S4_S4_S4_S4_S4_S4_S4_S4_S4_S4_S4_S4_S4_S4_S4_S4_S4_S4_S4_S4_S4_S4_S4_S4_S4_S4_S4_S4_S4_S4_S4_EEELm6EEC2IS4_EENS0_21FlatTupleConstructTagEOT_
FN:1227,_ZN7testing8internal17FlatTupleElemBaseINS0_9FlatTupleIJSt5tupleIJiiiEES4_S4_S4_S4_S4_S4_S4_S4_S4_S4_S4_S4_S4_S4_S4_S4_S4_S4_S4_S4_S4_S4_S4_S4_S4_S4_S4_S4_S4_S4_S4_S4_S4_S4_S4_S4_S4_EEELm5EEC2IS4_EENS0_21FlatTupleConstructTagEOT_
FNDA:9,_ZN7testing8internal17FlatTupleElemBaseINS0_9FlatTupleIJSt5tupleIJiiiEES4_S4_S4_S4_S4_S4_S4_S4_S4_S4_S4_S4_S4_S4_S4_S4_S4_S4_S4_S4_S4_S4_S4_S4_S4_S4_S4_S4_S4_S4_S4_S4_S4_S4_S4_S4_S4_EEELm5EEC2IS4_EENS0_21FlatTupleConstructTagEOT_
FN:1227,_ZN7testing8internal17FlatTupleElemBaseINS0_9FlatTupleIJSt5tupleIJiiiEES4_S4_S4_S4_S4_S4_S4_S4_S4_S4_S4_S4_S4_S4_S4_S4_S4_S4_S4_S4_S4_S4_S4_S4_S4_S4_S4_S4_S4_S4_S4_S4_S4_S4_S4_S4_S4_EEELm4EEC2IS4_EENS0_21FlatTupleConstructTagEOT_
FNDA:9,_ZN7testing8internal17FlatTupleElemBaseINS0_9FlatTupleIJSt5tupleIJiiiEES4_S4_S4_S4_S4_S4_S4_S4_S4_S4_S4_S4_S4_S4_S4_S4_S4_S4_S4_S4_S4_S4_S4_S4_S4_S4_S4_S4_S4_S4_S4_S4_S4_S4_S4_S4_S4_EEELm4EEC2IS4_EENS0_21FlatTupleConstructTagEOT_
FN:1227,_ZN7testing8internal17FlatTupleElemBaseINS0_9FlatTupleIJSt5tupleIJiiiEES4_S4_S4_S4_S4_S4_S4_S4_S4_S4_S4_S4_S4_S4_S4_S4_S4_S4_S4_S4_S4_S4_S4_S4_S4_S4_S4_S4_S4_S4_S4_S4_S4_S4_S4_S4_S4_EEELm3EEC2IS4_EENS0_21FlatTupleConstructTagEOT_
FNDA:9,_ZN7testing8internal17FlatTupleElemBaseINS0_9FlatTupleIJSt5tupleIJiiiEES4_S4_S4_S4_S4_S4_S4_S4_S4_S4_S4_S4_S4_S4_S4_S4_S4_S4_S4_S4_S4_S4_S4_S4_S4_S4_S4_S4_S4_S4_S4_S4_S4_S4_S4_S4_S4_EEELm3EEC2IS4_EENS0_21FlatTupleConstructTagEOT_
FN:1227,_ZN7testing8internal17FlatTupleElemBaseINS0_9FlatTupleIJSt5tupleIJiiiEES4_S4_S4_S4_S4_S4_S4_S4_S4_S4_S4_S4_S4_S4_S4_S4_S4_S4_S4_S4_S4_S4_S4_S4_S4_S4_S4_S4_S4_S4_S4_S4_S4_S4_S4_S4_S4_EEELm2EEC2IS4_EENS0_21FlatTupleConstructTagEOT_
FNDA:9,_ZN7testing8internal17FlatTupleElemBaseINS0_9FlatTupleIJSt5tupleIJiiiEES4_S4_S4_S4_S4_S4_S4_S4_S4_S4_S4_S4_S4_S4_S4_S4_S4_S4_S4_S4_S4_S4_S4_S4_S4_S4_S4_S4_S4_S4_S4_S4_S4_S4_S4_S4_S4_EEELm2EEC2IS4_EENS0_21FlatTupleConstructTagEOT_
FN:1227,_ZN7testing8internal17FlatTupleElemBaseINS0_9FlatTupleIJSt5tupleIJiiiEES4_S4_S4_S4_S4_S4_S4_S4_S4_S4_S4_S4_S4_S4_S4_S4_S4_S4_S4_S4_S4_S4_S4_S4_S4_S4_S4_S4_S4_S4_S4_S4_S4_S4_S4_S4_S4_EEELm1EEC2IS4_EENS0_21FlatTupleConstructTagEOT_
FNDA:9,_ZN7testing8internal17FlatTupleElemBaseINS0_9FlatTupleIJSt5tupleIJiiiEES4_S4_S4_S4_S4_S4_S4_S4_S4_S4_S4_S4_S4_S4_S4_S4_S4_S4_S4_S4_S4_S4_S4_S4_S4_S4_S4_S4_S4_S4_S4_S4_S4_S4_S4_S4_S4_EEELm1EEC2IS4_EENS0_21FlatTupleConstructTagEOT_
FN:1227,_ZN7testing8internal17FlatTupleElemBaseINS0_9FlatTupleIJSt5tupleIJiiiEES4_S4_S4_S4_S4_S4_S4_S4_S4_S4_S4_S4_S4_S4_S4_S4_S4_S4_S4_S4_S4_S4_S4_S4_S4_S4_S4_S4_S4_S4_S4_S4_S4_S4_S4_S4_S4_EEELm0EEC2IS4_EENS0_21FlatTupleConstructTagEOT_
FNDA:9,_ZN7testing8internal17FlatTupleElemBaseINS0_9FlatTupleIJSt5tupleIJiiiEES4_S4_S4_S4_S4_S4_S4_S4_S4_S4_S4_S4_S4_S4_S4_S4_S4_S4_S4_S4_S4_S4_S4_S4_S4_S4_S4_S4_S4_S4_S4_S4_S4_S4_S4_S4_S4_EEELm0EEC2IS4_EENS0_21FlatTupleConstructTagEOT_
FN:1227,_ZN7testing8internal17FlatTupleElemBaseINS0_9FlatTupleIJSt5tupleIJiiEES4_EEELm1EEC2IS4_EENS0_21FlatTupleConstructTagEOT_
FNDA:6,_ZN7testing8internal17FlatTupleElemBaseINS0_9FlatTupleIJSt5tupleIJiiEES4_EEELm1EEC2IS4_EENS0_21FlatTupleConstructTagEOT_
FN:1227,_ZN7testing8internal17FlatTupleElemBaseINS0_9FlatTupleIJSt5tupleIJiiEES4_EEELm0EEC2IS4_EENS0_21FlatTupleConstructTagEOT_
FNDA:6,_ZN7testing8internal17FlatTupleElemBaseINS0_9FlatTupleIJSt5tupleIJiiEES4_EEELm0EEC2IS4_EENS0_21FlatTupleConstructTagEOT_
FN:1227,_ZN7testing8internal17FlatTupleElemBaseINS0_9FlatTupleIJSt5tupleIJiiEES4_S4_S4_S4_S4_S4_S4_S4_S4_S4_S4_S4_S4_S4_S4_S4_S4_S4_S4_S4_S4_S4_S4_S4_S4_S4_S4_S4_S4_S4_S4_S4_S4_S4_S4_S4_S4_EEELm35EEC2IS4_EENS0_21FlatTupleConstructTagEOT_
FNDA:3,_ZN7testing8internal17FlatTupleElemBaseINS0_9FlatTupleIJSt5tupleIJiiEES4_S4_S4_S4_S4_S4_S4_S4_S4_S4_S4_S4_S4_S4_S4_S4_S4_S4_S4_S4_S4_S4_S4_S4_S4_S4_S4_S4_S4_S4_S4_S4_S4_S4_S4_S4_S4_EEELm35EEC2IS4_EENS0_21FlatTupleConstructTagEOT_
FN:1227,_ZN7testing8internal17FlatTupleElemBaseINS0_9FlatTupleIJSt5tupleIJiiEES4_S4_S4_S4_S4_S4_S4_S4_S4_S4_S4_S4_S4_S4_S4_S4_S4_S4_S4_S4_S4_S4_S4_S4_S4_S4_S4_S4_S4_S4_S4_S4_S4_S4_S4_S4_S4_EEELm36EEC2IS4_EENS0_21FlatTupleConstructTagEOT_
FNDA:3,_ZN7testing8internal17FlatTupleElemBaseINS0_9FlatTupleIJSt5tupleIJiiEES4_S4_S4_S4_S4_S4_S4_S4_S4_S4_S4_S4_S4_S4_S4_S4_S4_S4_S4_S4_S4_S4_S4_S4_S4_S4_S4_S4_S4_S4_S4_S4_S4_S4_S4_S4_S4_EEELm36EEC2IS4_EENS0_21FlatTupleConstructTagEOT_
FN:1227,_ZN7testing8internal17FlatTupleElemBaseINS0_9FlatTupleIJSt5tupleIJiiEES4_S4_S4_S4_S4_S4_S4_S4_S4_S4_S4_S4_S4_S4_S4_S4_S4_S4_S4_S4_S4_S4_S4_S4_S4_S4_S4_S4_S4_S4_S4_S4_S4_S4_S4_S4_S4_EEELm37EEC2IS4_EENS0_21FlatTupleConstructTagEOT_
FNDA:3,_ZN7testing8internal17FlatTupleElemBaseINS0_9FlatTupleIJSt5tupleIJiiEES4_S4_S4_S4_S4_S4_S4_S4_S4_S4_S4_S4_S4_S4_S4_S4_S4_S4_S4_S4_S4_S4_S4_S4_S4_S4_S4_S4_S4_S4_S4_S4_S4_S4_S4_S4_S4_EEELm37EEC2IS4_EENS0_21FlatTupleConstructTagEOT_
FN:1227,_ZN7testing8internal17FlatTupleElemBaseINS0_9FlatTupleIJSt5tupleIJiiEES4_S4_S4_S4_S4_S4_S4_S4_S4_S4_S4_S4_S4_S4_S4_S4_S4_S4_S4_S4_S4_S4_S4_S4_S4_S4_S4_S4_S4_S4_S4_S4_S4_S4_S4_S4_S4_EEELm23EEC2IS4_EENS0_21FlatTupleConstructTagEOT_
FNDA:3,_ZN7testing8internal17FlatTupleElemBaseINS0_9FlatTupleIJSt5tupleIJiiEES4_S4_S4_S4_S4_S4_S4_S4_S4_S4_S4_S4_S4_S4_S4_S4_S4_S4_S4_S4_S4_S4_S4_S4_S4_S4_S4_S4_S4_S4_S4_S4_S4_S4_S4_S4_S4_EEELm23EEC2IS4_EENS0_21FlatTupleConstructTagEOT_
FN:1227,_ZN7testing8internal17FlatTupleElemBaseINS0_9FlatTupleIJSt5tupleIJiiEES4_S4_S4_S4_S4_S4_S4_S4_S4_S4_S4_S4_S4_S4_S4_S4_S4_S4_S4_S4_S4_S4_S4_S4_S4_S4_S4_S4_S4_S4_S4_S4_S4_S4_S4_S4_S4_EEELm12EEC2IS4_EENS0_21FlatTupleConstructTagEOT_
FNDA:3,_ZN7testing8internal17FlatTupleElemBaseINS0_9FlatTupleIJSt5tupleIJiiEES4_S4_S4_S4_S4_S4_S4_S4_S4_S4_S4_S4_S4_S4_S4_S4_S4_S4_S4_S4_S4_S4_S4_S4_S4_S4_S4_S4_S4_S4_S4_S4_S4_S4_S4_S4_S4_EEELm12EEC2IS4_EENS0_21FlatTupleConstructTagEOT_
FN:1227,_ZN7testing8internal17FlatTupleElemBaseINS0_9FlatTupleIJSt5tupleIJiiEES4_S4_S4_S4_S4_S4_S4_S4_S4_S4_S4_S4_S4_S4_S4_S4_S4_S4_S4_S4_S4_S4_S4_S4_S4_S4_S4_S4_S4_S4_S4_S4_S4_S4_S4_S4_S4_EEELm13EEC2IS4_EENS0_21FlatTupleConstructTagEOT_
FNDA:3,_ZN7testing8internal17FlatTupleElemBaseINS0_9FlatTupleIJSt5tupleIJiiEES4_S4_S4_S4_S4_S4_S4_S4_S4_S4_S4_S4_S4_S4_S4_S4_S4_S4_S4_S4_S4_S4_S4_S4_S4_S4_S4_S4_S4_S4_S4_S4_S4_S4_S4_S4_S4_EEELm13EEC2IS4_EENS0_21FlatTupleConstructTagEOT_
FN:1227,_ZN7testing8internal17FlatTupleElemBaseINS0_9FlatTupleIJSt5tupleIJiiEES4_S4_S4_S4_S4_S4_S4_S4_S4_S4_S4_S4_S4_S4_S4_S4_S4_S4_S4_S4_S4_S4_S4_S4_S4_S4_S4_S4_S4_S4_S4_S4_S4_S4_S4_S4_S4_EEELm14EEC2IS4_EENS0_21FlatTupleConstructTagEOT_
FNDA:3,_ZN7testing8internal17FlatTupleElemBaseINS0_9FlatTupleIJSt5tupleIJiiEES4_S4_S4_S4_S4_S4_S4_S4_S4_S4_S4_S4_S4_S4_S4_S4_S4_S4_S4_S4_S4_S4_S4_S4_S4_S4_S4_S4_S4_S4_S4_S4_S4_S4_S4_S4_S4_EEELm14EEC2IS4_EENS0_21FlatTupleConstructTagEOT_
FN:1227,_ZN7testing8internal17FlatTupleElemBaseINS0_9FlatTupleIJSt5tupleIJiiEES4_S4_S4_S4_S4_S4_S4_S4_S4_S4_S4_S4_S4_S4_S4_S4_S4_S4_S4_S4_S4_S4_S4_S4_S4_S4_S4_S4_S4_S4_S4_S4_S4_S4_S4_S4_S4_EEELm15EEC2IS4_EENS0_21FlatTupleConstructTagEOT_
FNDA:3,_ZN7testing8internal17FlatTupleElemBaseINS0_9FlatTupleIJSt5tupleIJiiEES4_S4_S4_S4_S4_S4_S4_S4_S4_S4_S4_S4_S4_S4_S4_S4_S4_S4_S4_S4_S4_S4_S4_S4_S4_S4_S4_S4_S4_S4_S4_S4_S4_S4_S4_S4_S4_EEELm15EEC2IS4_EENS0_21FlatTupleConstructTagEOT_
FN:1227,_ZN7testing8internal17FlatTupleElemBaseINS0_9FlatTupleIJSt5tupleIJiiEES4_S4_S4_S4_S4_S4_S4_S4_S4_S4_S4_S4_S4_S4_S4_S4_S4_S4_S4_S4_S4_S4_S4_S4_S4_S4_S4_S4_S4_S4_S4_S4_S4_S4_S4_S4_S4_EEELm16EEC2IS4_EENS0_21FlatTupleConstructTagEOT_
FNDA:3,_ZN7testing8internal17FlatTupleElemBaseINS0_9FlatTupleIJSt5tupleIJiiEES4_S4_S4_S4_S4_S4_S4_S4_S4_S4_S4_S4_S4_S4_S4_S4_S4_S4_S4_S4_S4_S4_S4_S4_S4_S4_S4_S4_S4_S4_S4_S4_S4_S4_S4_S4_S4_EEELm16EEC2IS4_EENS0_21FlatTupleConstructTagEOT_
FN:1227,_ZN7testing8internal17FlatTupleElemBaseINS0_9FlatTupleIJSt5tupleIJiiEES4_S4_S4_S4_S4_S4_S4_S4_S4_S4_S4_S4_S4_S4_S4_S4_S4_S4_S4_S4_S4_S4_S4_S4_S4_S4_S4_S4_S4_S4_S4_S4_S4_S4_S4_S4_S4_EEELm17EEC2IS4_EENS0_21FlatTupleConstructTagEOT_
FNDA:3,_ZN7testing8internal17FlatTupleElemBaseINS0_9FlatTupleIJSt5tupleIJiiEES4_S4_S4_S4_S4_S4_S4_S4_S4_S4_S4_S4_S4_S4_S4_S4_S4_S4_S4_S4_S4_S4_S4_S4_S4_S4_S4_S4_S4_S4_S4_S4_S4_S4_S4_S4_S4_EEELm17EEC2IS4_EENS0_21FlatTupleConstructTagEOT_
FN:1227,_ZN7testing8internal17FlatTupleElemBaseINS0_9FlatTupleIJSt5tupleIJiiEES4_S4_S4_S4_S4_S4_S4_S4_S4_S4_S4_S4_S4_S4_S4_S4_S4_S4_S4_S4_S4_S4_S4_S4_S4_S4_S4_S4_S4_S4_S4_S4_S4_S4_S4_S4_S4_EEELm18EEC2IS4_EENS0_21FlatTupleConstructTagEOT_
FNDA:3,_ZN7testing8internal17FlatTupleElemBaseINS0_9FlatTupleIJSt5tupleIJiiEES4_S4_S4_S4_S4_S4_S4_S4_S4_S4_S4_S4_S4_S4_S4_S4_S4_S4_S4_S4_S4_S4_S4_S4_S4_S4_S4_S4_S4_S4_S4_S4_S4_S4_S4_S4_S4_EEELm18EEC2IS4_EENS0_21FlatTupleConstructTagEOT_
FN:1227,_ZN7testing8internal17FlatTupleElemBaseINS0_9FlatTupleIJSt5tupleIJiiEES4_S4_S4_S4_S4_S4_S4_S4_S4_S4_S4_S4_S4_S4_S4_S4_S4_S4_S4_S4_S4_S4_S4_S4_S4_S4_S4_S4_S4_S4_S4_S4_S4_S4_S4_S4_S4_EEELm19EEC2IS4_EENS0_21FlatTupleConstructTagEOT_
FNDA:3,_ZN7testing8internal17FlatTupleElemBaseINS0_9FlatTupleIJSt5tupleIJiiEES4_S4_S4_S4_S4_S4_S4_S4_S4_S4_S4_S4_S4_S4_S4_S4_S4_S4_S4_S4_S4_S4_S4_S4_S4_S4_S4_S4_S4_S4_S4_S4_S4_S4_S4_S4_S4_EEELm19EEC2IS4_EENS0_21FlatTupleConstructTagEOT_
FN:1227,_ZN7testing8internal17FlatTupleElemBaseINS0_9FlatTupleIJSt5tupleIJiiEES4_S4_S4_S4_S4_S4_S4_S4_S4_S4_S4_S4_S4_S4_S4_S4_S4_S4_S4_S4_S4_S4_S4_S4_S4_S4_S4_S4_S4_S4_S4_S4_S4_S4_S4_S4_S4_EEELm20EEC2IS4_EENS0_21FlatTupleConstructTagEOT_
FNDA:3,_ZN7testing8internal17FlatTupleElemBaseINS0_9FlatTupleIJSt5tupleIJiiEES4_S4_S4_S4_S4_S4_S4_S4_S4_S4_S4_S4_S4_S4_S4_S4_S4_S4_S4_S4_S4_S4_S4_S4_S4_S4_S4_S4_S4_S4_S4_S4_S4_S4_S4_S4_S4_EEELm20EEC2IS4_EENS0_21FlatTupleConstructTagEOT_
FN:1227,_ZN7testing8internal17FlatTupleElemBaseINS0_9FlatTupleIJSt5tupleIJiiEES4_S4_S4_S4_S4_S4_S4_S4_S4_S4_S4_S4_S4_S4_S4_S4_S4_S4_S4_S4_S4_S4_S4_S4_S4_S4_S4_S4_S4_S4_S4_S4_S4_S4_S4_S4_S4_EEELm21EEC2IS4_EENS0_21FlatTupleConstructTagEOT_
FNDA:3,_ZN7testing8internal17FlatTupleElemBaseINS0_9FlatTupleIJSt5tupleIJiiEES4_S4_S4_S4_S4_S4_S4_S4_S4_S4_S4_S4_S4_S4_S4_S4_S4_S4_S4_S4_S4_S4_S4_S4_S4_S4_S4_S4_S4_S4_S4_S4_S4_S4_S4_S4_S4_EEELm21EEC2IS4_EENS0_21FlatTupleConstructTagEOT_
FN:1227,_ZN7testing8internal17FlatTupleElemBaseINS0_9FlatTupleIJSt5tupleIJiiEES4_S4_S4_S4_S4_S4_S4_S4_S4_S4_S4_S4_S4_S4_S4_S4_S4_S4_S4_S4_S4_S4_S4_S4_S4_S4_S4_S4_S4_S4_S4_S4_S4_S4_S4_S4_S4_EEELm22EEC2IS4_EENS0_21FlatTupleConstructTagEOT_
FNDA:3,_ZN7testing8internal17FlatTupleElemBaseINS0_9FlatTupleIJSt5tupleIJiiEES4_S4_S4_S4_S4_S4_S4_S4_S4_S4_S4_S4_S4_S4_S4_S4_S4_S4_S4_S4_S4_S4_S4_S4_S4_S4_S4_S4_S4_S4_S4_S4_S4_S4_S4_S4_S4_EEELm22EEC2IS4_EENS0_21FlatTupleConstructTagEOT_
FN:1227,_ZN7testing8internal17FlatTupleElemBaseINS0_9FlatTupleIJSt5tupleIJiiiEES4_S4_S4_S4_S4_S4_S4_S4_S4_S4_S4_S4_S4_S4_S4_S4_S4_S4_S4_S4_S4_S4_S4_S4_S4_S4_S4_S4_S4_S4_S4_S4_S4_S4_S4_S4_S4_EEELm27EEC2IS4_EENS0_21FlatTupleConstructTagEOT_
FNDA:9,_ZN7testing8internal17FlatTupleElemBaseINS0_9FlatTupleIJSt5tupleIJiiiEES4_S4_S4_S4_S4_S4_S4_S4_S4_S4_S4_S4_S4_S4_S4_S4_S4_S4_S4_S4_S4_S4_S4_S4_S4_S4_S4_S4_S4_S4_S4_S4_S4_S4_S4_S4_S4_EEELm27EEC2IS4_EENS0_21FlatTupleConstructTagEOT_
FN:1227,_ZN7testing8internal17FlatTupleElemBaseINS0_9FlatTupleIJSt5tupleIJiiEES4_S4_S4_S4_S4_S4_S4_S4_S4_S4_S4_S4_S4_S4_S4_S4_S4_S4_S4_S4_S4_S4_S4_S4_S4_S4_S4_S4_S4_S4_S4_S4_S4_S4_S4_S4_S4_EEELm24EEC2IS4_EENS0_21FlatTupleConstructTagEOT_
FNDA:3,_ZN7testing8internal17FlatTupleElemBaseINS0_9FlatTupleIJSt5tupleIJiiEES4_S4_S4_S4_S4_S4_S4_S4_S4_S4_S4_S4_S4_S4_S4_S4_S4_S4_S4_S4_S4_S4_S4_S4_S4_S4_S4_S4_S4_S4_S4_S4_S4_S4_S4_S4_S4_EEELm24EEC2IS4_EENS0_21FlatTupleConstructTagEOT_
FN:1227,_ZN7testing8internal17FlatTupleElemBaseINS0_9FlatTupleIJSt5tupleIJiiEES4_S4_S4_S4_S4_S4_S4_S4_S4_S4_S4_S4_S4_S4_S4_S4_S4_S4_S4_S4_S4_S4_S4_S4_S4_S4_S4_S4_S4_S4_S4_S4_S4_S4_S4_S4_S4_EEELm25EEC2IS4_EENS0_21FlatTupleConstructTagEOT_
FNDA:3,_ZN7testing8internal17FlatTupleElemBaseINS0_9FlatTupleIJSt5tupleIJiiEES4_S4_S4_S4_S4_S4_S4_S4_S4_S4_S4_S4_S4_S4_S4_S4_S4_S4_S4_S4_S4_S4_S4_S4_S4_S4_S4_S4_S4_S4_S4_S4_S4_S4_S4_S4_S4_EEELm25EEC2IS4_EENS0_21FlatTupleConstructTagEOT_
FN:1227,_ZN7testing8internal17FlatTupleElemBaseINS0_9FlatTupleIJSt5tupleIJiiEES4_S4_S4_S4_S4_S4_S4_S4_S4_S4_S4_S4_S4_S4_S4_S4_S4_S4_S4_S4_S4_S4_S4_S4_S4_S4_S4_S4_S4_S4_S4_S4_S4_S4_S4_S4_S4_EEELm26EEC2IS4_EENS0_21FlatTupleConstructTagEOT_
FNDA:3,_ZN7testing8internal17FlatTupleElemBaseINS0_9FlatTupleIJSt5tupleIJiiEES4_S4_S4_S4_S4_S4_S4_S4_S4_S4_S4_S4_S4_S4_S4_S4_S4_S4_S4_S4_S4_S4_S4_S4_S4_S4_S4_S4_S4_S4_S4_S4_S4_S4_S4_S4_S4_EEELm26EEC2IS4_EENS0_21FlatTupleConstructTagEOT_
FN:1227,_ZN7testing8internal17FlatTupleElemBaseINS0_9FlatTupleIJSt5tupleIJiiEES4_S4_S4_S4_S4_S4_S4_S4_S4_S4_S4_S4_S4_S4_S4_S4_S4_S4_S4_S4_S4_S4_S4_S4_S4_S4_S4_S4_S4_S4_S4_S4_S4_S4_S4_S4_S4_EEELm27EEC2IS4_EENS0_21FlatTupleConstructTagEOT_
FNDA:3,_ZN7testing8internal17FlatTupleElemBaseINS0_9FlatTupleIJSt5tupleIJiiEES4_S4_S4_S4_S4_S4_S4_S4_S4_S4_S4_S4_S4_S4_S4_S4_S4_S4_S4_S4_S4_S4_S4_S4_S4_S4_S4_S4_S4_S4_S4_S4_S4_S4_S4_S4_S4_EEELm27EEC2IS4_EENS0_21FlatTupleConstructTagEOT_
FN:1227,_ZN7testing8internal17FlatTupleElemBaseINS0_9FlatTupleIJSt5tupleIJiiEES4_S4_S4_S4_S4_S4_S4_S4_S4_S4_S4_S4_S4_S4_S4_S4_S4_S4_S4_S4_S4_S4_S4_S4_S4_S4_S4_S4_S4_S4_S4_S4_S4_S4_S4_S4_S4_EEELm28EEC2IS4_EENS0_21FlatTupleConstructTagEOT_
FNDA:3,_ZN7testing8internal17FlatTupleElemBaseINS0_9FlatTupleIJSt5tupleIJiiEES4_S4_S4_S4_S4_S4_S4_S4_S4_S4_S4_S4_S4_S4_S4_S4_S4_S4_S4_S4_S4_S4_S4_S4_S4_S4_S4_S4_S4_S4_S4_S4_S4_S4_S4_S4_S4_EEELm28EEC2IS4_EENS0_21FlatTupleConstructTagEOT_
FN:1227,_ZN7testing8internal17FlatTupleElemBaseINS0_9FlatTupleIJSt5tupleIJiiEES4_S4_S4_S4_S4_S4_S4_S4_S4_S4_S4_S4_S4_S4_S4_S4_S4_S4_S4_S4_S4_S4_S4_S4_S4_S4_S4_S4_S4_S4_S4_S4_S4_S4_S4_S4_S4_EEELm29EEC2IS4_EENS0_21FlatTupleConstructTagEOT_
FNDA:3,_ZN7testing8internal17FlatTupleElemBaseINS0_9FlatTupleIJSt5tupleIJiiEES4_S4_S4_S4_S4_S4_S4_S4_S4_S4_S4_S4_S4_S4_S4_S4_S4_S4_S4_S4_S4_S4_S4_S4_S4_S4_S4_S4_S4_S4_S4_S4_S4_S4_S4_S4_S4_EEELm29EEC2IS4_EENS0_21FlatTupleConstructTagEOT_
FN:1227,_ZN7testing8internal17FlatTupleElemBaseINS0_9FlatTupleIJSt5tupleIJiiEES4_S4_S4_S4_S4_S4_S4_S4_S4_S4_S4_S4_S4_S4_S4_S4_S4_S4_S4_S4_S4_S4_S4_S4_S4_S4_S4_S4_S4_S4_S4_S4_S4_S4_S4_S4_S4_EEELm30EEC2IS4_EENS0_21FlatTupleConstructTagEOT_
FNDA:3,_ZN7testing8internal17FlatTupleElemBaseINS0_9FlatTupleIJSt5tupleIJiiEES4_S4_S4_S4_S4_S4_S4_S4_S4_S4_S4_S4_S4_S4_S4_S4_S4_S4_S4_S4_S4_S4_S4_S4_S4_S4_S4_S4_S4_S4_S4_S4_S4_S4_S4_S4_S4_EEELm30EEC2IS4_EENS0_21FlatTupleConstructTagEOT_
FN:1227,_ZN7testing8internal17FlatTupleElemBaseINS0_9FlatTupleIJSt5tupleIJiiEES4_S4_S4_S4_S4_S4_S4_S4_S4_S4_S4_S4_S4_S4_S4_S4_S4_S4_S4_S4_S4_S4_S4_S4_S4_S4_S4_S4_S4_S4_S4_S4_S4_S4_S4_S4_S4_EEELm31EEC2IS4_EENS0_21FlatTupleConstructTagEOT_
FNDA:3,_ZN7testing8internal17FlatTupleElemBaseINS0_9FlatTupleIJSt5tupleIJiiEES4_S4_S4_S4_S4_S4_S4_S4_S4_S4_S4_S4_S4_S4_S4_S4_S4_S4_S4_S4_S4_S4_S4_S4_S4_S4_S4_S4_S4_S4_S4_S4_S4_S4_S4_S4_S4_EEELm31EEC2IS4_EENS0_21FlatTupleConstructTagEOT_
FN:1227,_ZN7testing8internal17FlatTupleElemBaseINS0_9FlatTupleIJSt5tupleIJiiEES4_S4_S4_S4_S4_S4_S4_S4_S4_S4_S4_S4_S4_S4_S4_S4_S4_S4_S4_S4_S4_S4_S4_S4_S4_S4_S4_S4_S4_S4_S4_S4_S4_S4_S4_S4_S4_EEELm32EEC2IS4_EENS0_21FlatTupleConstructTagEOT_
FNDA:3,_ZN7testing8internal17FlatTupleElemBaseINS0_9FlatTupleIJSt5tupleIJiiEES4_S4_S4_S4_S4_S4_S4_S4_S4_S4_S4_S4_S4_S4_S4_S4_S4_S4_S4_S4_S4_S4_S4_S4_S4_S4_S4_S4_S4_S4_S4_S4_S4_S4_S4_S4_S4_EEELm32EEC2IS4_EENS0_21FlatTupleConstructTagEOT_
FN:1227,_ZN7testing8internal17FlatTupleElemBaseINS0_9FlatTupleIJSt5tupleIJiiEES4_S4_S4_S4_S4_S4_S4_S4_S4_S4_S4_S4_S4_S4_S4_S4_S4_S4_S4_S4_S4_S4_S4_S4_S4_S4_S4_S4_S4_S4_S4_S4_S4_S4_S4_S4_S4_EEELm34EEC2IS4_EENS0_21FlatTupleConstructTagEOT_
FNDA:3,_ZN7testing8internal17FlatTupleElemBaseINS0_9FlatTupleIJSt5tupleIJiiEES4_S4_S4_S4_S4_S4_S4_S4_S4_S4_S4_S4_S4_S4_S4_S4_S4_S4_S4_S4_S4_S4_S4_S4_S4_S4_S4_S4_S4_S4_S4_S4_S4_S4_S4_S4_S4_EEELm34EEC2IS4_EENS0_21FlatTupleConstructTagEOT_
FN:1227,_ZN7testing8internal17FlatTupleElemBaseINS0_9FlatTupleIJSt5tupleIJiiiEES4_S4_S4_S4_S4_S4_S4_S4_S4_S4_S4_S4_S4_S4_S4_S4_S4_S4_S4_S4_S4_S4_S4_S4_S4_S4_S4_S4_S4_S4_S4_S4_S4_S4_S4_S4_S4_EEELm35EEC2IS4_EENS0_21FlatTupleConstructTagEOT_
FNDA:9,_ZN7testing8internal17FlatTupleElemBaseINS0_9FlatTupleIJSt5tupleIJiiiEES4_S4_S4_S4_S4_S4_S4_S4_S4_S4_S4_S4_S4_S4_S4_S4_S4_S4_S4_S4_S4_S4_S4_S4_S4_S4_S4_S4_S4_S4_S4_S4_S4_S4_S4_S4_S4_EEELm35EEC2IS4_EENS0_21FlatTupleConstructTagEOT_
FN:1227,_ZN7testing8internal17FlatTupleElemBaseINS0_9FlatTupleIJSt5tupleIJiiEES4_S4_S4_S4_S4_S4_S4_S4_S4_S4_S4_S4_S4_S4_S4_S4_S4_S4_S4_S4_S4_S4_S4_S4_S4_S4_S4_S4_S4_S4_S4_S4_S4_S4_S4_S4_S4_EEELm5EEC2IS4_EENS0_21FlatTupleConstructTagEOT_
FNDA:3,_ZN7testing8internal17FlatTupleElemBaseINS0_9FlatTupleIJSt5tupleIJiiEES4_S4_S4_S4_S4_S4_S4_S4_S4_S4_S4_S4_S4_S4_S4_S4_S4_S4_S4_S4_S4_S4_S4_S4_S4_S4_S4_S4_S4_S4_S4_S4_S4_S4_S4_S4_S4_EEELm5EEC2IS4_EENS0_21FlatTupleConstructTagEOT_
FN:1227,_ZN7testing8internal17FlatTupleElemBaseINS0_9FlatTupleIJSt5tupleIJiiEES4_S4_S4_S4_S4_S4_S4_S4_S4_S4_S4_S4_S4_S4_S4_S4_S4_S4_S4_S4_S4_S4_S4_S4_S4_S4_S4_S4_S4_S4_S4_S4_S4_S4_S4_S4_S4_EEELm4EEC2IS4_EENS0_21FlatTupleConstructTagEOT_
FNDA:3,_ZN7testing8internal17FlatTupleElemBaseINS0_9FlatTupleIJSt5tupleIJiiEES4_S4_S4_S4_S4_S4_S4_S4_S4_S4_S4_S4_S4_S4_S4_S4_S4_S4_S4_S4_S4_S4_S4_S4_S4_S4_S4_S4_S4_S4_S4_S4_S4_S4_S4_S4_S4_EEELm4EEC2IS4_EENS0_21FlatTupleConstructTagEOT_
FN:1227,_ZN7testing8internal17FlatTupleElemBaseINS0_9FlatTupleIJSt5tupleIJiiEES4_S4_S4_S4_S4_S4_S4_S4_S4_S4_S4_S4_S4_S4_S4_S4_S4_S4_S4_S4_S4_S4_S4_S4_S4_S4_S4_S4_S4_S4_S4_S4_S4_S4_S4_S4_S4_EEELm3EEC2IS4_EENS0_21FlatTupleConstructTagEOT_
FNDA:3,_ZN7testing8internal17FlatTupleElemBaseINS0_9FlatTupleIJSt5tupleIJiiEES4_S4_S4_S4_S4_S4_S4_S4_S4_S4_S4_S4_S4_S4_S4_S4_S4_S4_S4_S4_S4_S4_S4_S4_S4_S4_S4_S4_S4_S4_S4_S4_S4_S4_S4_S4_S4_EEELm3EEC2IS4_EENS0_21FlatTupleConstructTagEOT_
FN:1227,_ZN7testing8internal17FlatTupleElemBaseINS0_9FlatTupleIJSt5tupleIJiiEES4_S4_S4_S4_S4_S4_S4_S4_S4_S4_S4_S4_S4_S4_S4_S4_S4_S4_S4_S4_S4_S4_S4_S4_S4_S4_S4_S4_S4_S4_S4_S4_S4_S4_S4_S4_S4_EEELm2EEC2IS4_EENS0_21FlatTupleConstructTagEOT_
FNDA:3,_ZN7testing8internal17FlatTupleElemBaseINS0_9FlatTupleIJSt5tupleIJiiEES4_S4_S4_S4_S4_S4_S4_S4_S4_S4_S4_S4_S4_S4_S4_S4_S4_S4_S4_S4_S4_S4_S4_S4_S4_S4_S4_S4_S4_S4_S4_S4_S4_S4_S4_S4_S4_EEELm2EEC2IS4_EENS0_21FlatTupleConstructTagEOT_
FN:1227,_ZN7testing8internal17FlatTupleElemBaseINS0_9FlatTupleIJSt5tupleIJiiEES4_S4_S4_S4_S4_S4_S4_S4_S4_S4_S4_S4_S4_S4_S4_S4_S4_S4_S4_S4_S4_S4_S4_S4_S4_S4_S4_S4_S4_S4_S4_S4_S4_S4_S4_S4_S4_EEELm1EEC2IS4_EENS0_21FlatTupleConstructTagEOT_
FNDA:3,_ZN7testing8internal17FlatTupleElemBaseINS0_9FlatTupleIJSt5tupleIJiiEES4_S4_S4_S4_S4_S4_S4_S4_S4_S4_S4_S4_S4_S4_S4_S4_S4_S4_S4_S4_S4_S4_S4_S4_S4_S4_S4_S4_S4_S4_S4_S4_S4_S4_S4_S4_S4_EEELm1EEC2IS4_EENS0_21FlatTupleConstructTagEOT_
FN:1227,_ZN7testing8internal17FlatTupleElemBaseINS0_9FlatTupleIJSt5tupleIJiiEES4_S4_S4_S4_S4_S4_S4_S4_S4_S4_S4_S4_S4_S4_S4_S4_S4_S4_S4_S4_S4_S4_S4_S4_S4_S4_S4_S4_S4_S4_S4_S4_S4_S4_S4_S4_S4_EEELm0EEC2IS4_EENS0_21FlatTupleConstructTagEOT_
FNDA:3,_ZN7testing8internal17FlatTupleElemBaseINS0_9FlatTupleIJSt5tupleIJiiEES4_S4_S4_S4_S4_S4_S4_S4_S4_S4_S4_S4_S4_S4_S4_S4_S4_S4_S4_S4_S4_S4_S4_S4_S4_S4_S4_S4_S4_S4_S4_S4_S4_S4_S4_S4_S4_EEELm0EEC2IS4_EENS0_21FlatTupleConstructTagEOT_
FN:1227,_ZN7testing8internal17FlatTupleElemBaseINS0_9FlatTupleIJSt5tupleIJiiiEES4_S4_S4_S4_S4_S4_S4_S4_S4_S4_S4_S4_S4_S4_S4_S4_S4_S4_S4_S4_S4_S4_S4_S4_S4_S4_S4_S4_S4_S4_S4_S4_S4_S4_S4_S4_S4_EEELm37EEC2IS4_EENS0_21FlatTupleConstructTagEOT_
FNDA:9,_ZN7testing8internal17FlatTupleElemBaseINS0_9FlatTupleIJSt5tupleIJiiiEES4_S4_S4_S4_S4_S4_S4_S4_S4_S4_S4_S4_S4_S4_S4_S4_S4_S4_S4_S4_S4_S4_S4_S4_S4_S4_S4_S4_S4_S4_S4_S4_S4_S4_S4_S4_S4_EEELm37EEC2IS4_EENS0_21FlatTupleConstructTagEOT_
FN:1227,_ZN7testing8internal17FlatTupleElemBaseINS0_9FlatTupleIJSt5tupleIJiiiEES4_S4_S4_S4_S4_S4_S4_S4_S4_S4_S4_S4_S4_S4_S4_S4_S4_S4_S4_S4_S4_S4_S4_S4_S4_S4_S4_S4_S4_S4_S4_S4_S4_S4_S4_S4_S4_EEELm36EEC2IS4_EENS0_21FlatTupleConstructTagEOT_
FNDA:9,_ZN7testing8internal17FlatTupleElemBaseINS0_9FlatTupleIJSt5tupleIJiiiEES4_S4_S4_S4_S4_S4_S4_S4_S4_S4_S4_S4_S4_S4_S4_S4_S4_S4_S4_S4_S4_S4_S4_S4_S4_S4_S4_S4_S4_S4_S4_S4_S4_S4_S4_S4_S4_EEELm36EEC2IS4_EENS0_21FlatTupleConstructTagEOT_
FN:1227,_ZN7testing8internal17FlatTupleElemBaseINS0_9FlatTupleIJSt5tupleIJiiEES4_S4_S4_S4_S4_S4_S4_S4_S4_S4_S4_S4_S4_S4_S4_S4_S4_S4_S4_S4_S4_S4_S4_S4_S4_S4_S4_S4_S4_S4_S4_S4_S4_S4_S4_S4_S4_EEELm10EEC2IS4_EENS0_21FlatTupleConstructTagEOT_
FNDA:3,_ZN7testing8internal17FlatTupleElemBaseINS0_9FlatTupleIJSt5tupleIJiiEES4_S4_S4_S4_S4_S4_S4_S4_S4_S4_S4_S4_S4_S4_S4_S4_S4_S4_S4_S4_S4_S4_S4_S4_S4_S4_S4_S4_S4_S4_S4_S4_S4_S4_S4_S4_S4_EEELm10EEC2IS4_EENS0_21FlatTupleConstructTagEOT_
FN:1227,_ZN7testing8internal17FlatTupleElemBaseINS0_9FlatTupleIJSt5tupleIJiiiEES4_S4_S4_S4_S4_S4_S4_S4_S4_S4_S4_S4_S4_S4_S4_S4_S4_S4_S4_S4_S4_S4_S4_S4_S4_S4_S4_S4_S4_S4_S4_S4_S4_S4_S4_S4_S4_EEELm34EEC2IS4_EENS0_21FlatTupleConstructTagEOT_
FNDA:9,_ZN7testing8internal17FlatTupleElemBaseINS0_9FlatTupleIJSt5tupleIJiiiEES4_S4_S4_S4_S4_S4_S4_S4_S4_S4_S4_S4_S4_S4_S4_S4_S4_S4_S4_S4_S4_S4_S4_S4_S4_S4_S4_S4_S4_S4_S4_S4_S4_S4_S4_S4_S4_EEELm34EEC2IS4_EENS0_21FlatTupleConstructTagEOT_
FN:1227,_ZN7testing8internal17FlatTupleElemBaseINS0_9FlatTupleIJSt5tupleIJiiiEES4_S4_S4_S4_S4_S4_S4_S4_S4_S4_S4_S4_S4_S4_S4_S4_S4_S4_S4_S4_S4_S4_S4_S4_S4_S4_S4_S4_S4_S4_S4_S4_S4_S4_S4_S4_S4_EEELm33EEC2IS4_EENS0_21FlatTupleConstructTagEOT_
FNDA:9,_ZN7testing8internal17FlatTupleElemBaseINS0_9FlatTupleIJSt5tupleIJiiiEES4_S4_S4_S4_S4_S4_S4_S4_S4_S4_S4_S4_S4_S4_S4_S4_S4_S4_S4_S4_S4_S4_S4_S4_S4_S4_S4_S4_S4_S4_S4_S4_S4_S4_S4_S4_S4_EEELm33EEC2IS4_EENS0_21FlatTupleConstructTagEOT_
FN:1227,_ZN7testing8internal17FlatTupleElemBaseINS0_9FlatTupleIJSt5tupleIJiiiEES4_S4_S4_S4_S4_S4_S4_S4_S4_S4_S4_S4_S4_S4_S4_S4_S4_S4_S4_S4_S4_S4_S4_S4_S4_S4_S4_S4_S4_S4_S4_S4_S4_S4_S4_S4_S4_EEELm32EEC2IS4_EENS0_21FlatTupleConstructTagEOT_
FNDA:9,_ZN7testing8internal17FlatTupleElemBaseINS0_9FlatTupleIJSt5tupleIJiiiEES4_S4_S4_S4_S4_S4_S4_S4_S4_S4_S4_S4_S4_S4_S4_S4_S4_S4_S4_S4_S4_S4_S4_S4_S4_S4_S4_S4_S4_S4_S4_S4_S4_S4_S4_S4_S4_EEELm32EEC2IS4_EENS0_21FlatTupleConstructTagEOT_
FN:1227,_ZN7testing8internal17FlatTupleElemBaseINS0_9FlatTupleIJSt5tupleIJiiiEES4_S4_S4_S4_S4_S4_S4_S4_S4_S4_S4_S4_S4_S4_S4_S4_S4_S4_S4_S4_S4_S4_S4_S4_S4_S4_S4_S4_S4_S4_S4_S4_S4_S4_S4_S4_S4_EEELm31EEC2IS4_EENS0_21FlatTupleConstructTagEOT_
FNDA:9,_ZN7testing8internal17FlatTupleElemBaseINS0_9FlatTupleIJSt5tupleIJiiiEES4_S4_S4_S4_S4_S4_S4_S4_S4_S4_S4_S4_S4_S4_S4_S4_S4_S4_S4_S4_S4_S4_S4_S4_S4_S4_S4_S4_S4_S4_S4_S4_S4_S4_S4_S4_S4_EEELm31EEC2IS4_EENS0_21FlatTupleConstructTagEOT_
FN:1227,_ZN7testing8internal17FlatTupleElemBaseINS0_9FlatTupleIJSt5tupleIJiiiEES4_S4_S4_S4_S4_S4_S4_S4_S4_S4_S4_S4_S4_S4_S4_S4_S4_S4_S4_S4_S4_S4_S4_S4_S4_S4_S4_S4_S4_S4_S4_S4_S4_S4_S4_S4_S4_EEELm30EEC2IS4_EENS0_21FlatTupleConstructTagEOT_
FNDA:9,_ZN7testing8internal17FlatTupleElemBaseINS0_9FlatTupleIJSt5tupleIJiiiEES4_S4_S4_S4_S4_S4_S4_S4_S4_S4_S4_S4_S4_S4_S4_S4_S4_S4_S4_S4_S4_S4_S4_S4_S4_S4_S4_S4_S4_S4_S4_S4_S4_S4_S4_S4_S4_EEELm30EEC2IS4_EENS0_21FlatTupleConstructTagEOT_
FN:1227,_ZN7testing8internal17FlatTupleElemBaseINS0_9FlatTupleIJSt5tupleIJiiiEES4_S4_S4_S4_S4_S4_S4_S4_S4_S4_S4_S4_S4_S4_S4_S4_S4_S4_S4_S4_S4_S4_S4_S4_S4_S4_S4_S4_S4_S4_S4_S4_S4_S4_S4_S4_S4_EEELm29EEC2IS4_EENS0_21FlatTupleConstructTagEOT_
FNDA:9,_ZN7testing8internal17FlatTupleElemBaseINS0_9FlatTupleIJSt5tupleIJiiiEES4_S4_S4_S4_S4_S4_S4_S4_S4_S4_S4_S4_S4_S4_S4_S4_S4_S4_S4_S4_S4_S4_S4_S4_S4_S4_S4_S4_S4_S4_S4_S4_S4_S4_S4_S4_S4_EEELm29EEC2IS4_EENS0_21FlatTupleConstructTagEOT_
FN:1227,_ZN7testing8internal17FlatTupleElemBaseINS0_9FlatTupleIJSt5tupleIJiiiEES4_S4_S4_S4_S4_S4_S4_S4_S4_S4_S4_S4_S4_S4_S4_S4_S4_S4_S4_S4_S4_S4_S4_S4_S4_S4_S4_S4_S4_S4_S4_S4_S4_S4_S4_S4_S4_EEELm28EEC2IS4_EENS0_21FlatTupleConstructTagEOT_
FNDA:9,_ZN7testing8internal17FlatTupleElemBaseINS0_9FlatTupleIJSt5tupleIJiiiEES4_S4_S4_S4_S4_S4_S4_S4_S4_S4_S4_S4_S4_S4_S4_S4_S4_S4_S4_S4_S4_S4_S4_S4_S4_S4_S4_S4_S4_S4_S4_S4_S4_S4_S4_S4_S4_EEELm28EEC2IS4_EENS0_21FlatTupleConstructTagEOT_
FN:1227,_ZN7testing8internal17FlatTupleElemBaseINS0_9FlatTupleIJSt5tupleIJiiiEES4_S4_S4_S4_S4_S4_S4_S4_S4_S4_S4_S4_S4_S4_S4_S4_S4_S4_S4_S4_S4_S4_S4_S4_S4_S4_S4_S4_S4_S4_S4_S4_S4_S4_S4_S4_S4_EEELm26EEC2IS4_EENS0_21FlatTupleConstructTagEOT_
FNDA:9,_ZN7testing8internal17FlatTupleElemBaseINS0_9FlatTupleIJSt5tupleIJiiiEES4_S4_S4_S4_S4_S4_S4_S4_S4_S4_S4_S4_S4_S4_S4_S4_S4_S4_S4_S4_S4_S4_S4_S4_S4_S4_S4_S4_S4_S4_S4_S4_S4_S4_S4_S4_S4_EEELm26EEC2IS4_EENS0_21FlatTupleConstructTagEOT_
FN:1227,_ZN7testing8internal17FlatTupleElemBaseINS0_9FlatTupleIJSt5tupleIJiiEES4_S4_S4_S4_S4_S4_S4_S4_S4_S4_S4_S4_S4_S4_S4_S4_S4_S4_S4_S4_S4_S4_S4_S4_S4_S4_S4_S4_S4_S4_S4_S4_S4_S4_S4_S4_S4_EEELm11EEC2IS4_EENS0_21FlatTupleConstructTagEOT_
FNDA:3,_ZN7testing8internal17FlatTupleElemBaseINS0_9FlatTupleIJSt5tupleIJiiEES4_S4_S4_S4_S4_S4_S4_S4_S4_S4_S4_S4_S4_S4_S4_S4_S4_S4_S4_S4_S4_S4_S4_S4_S4_S4_S4_S4_S4_S4_S4_S4_S4_S4_S4_S4_S4_EEELm11EEC2IS4_EENS0_21FlatTupleConstructTagEOT_
FN:1227,_ZN7testing8internal17FlatTupleElemBaseINS0_9FlatTupleIJSt5tupleIJiiEES4_S4_S4_S4_S4_S4_S4_S4_S4_S4_S4_S4_S4_S4_S4_S4_S4_S4_S4_S4_S4_S4_S4_S4_S4_S4_S4_S4_S4_S4_S4_S4_S4_S4_S4_S4_S4_EEELm9EEC2IS4_EENS0_21FlatTupleConstructTagEOT_
FNDA:3,_ZN7testing8internal17FlatTupleElemBaseINS0_9FlatTupleIJSt5tupleIJiiEES4_S4_S4_S4_S4_S4_S4_S4_S4_S4_S4_S4_S4_S4_S4_S4_S4_S4_S4_S4_S4_S4_S4_S4_S4_S4_S4_S4_S4_S4_S4_S4_S4_S4_S4_S4_S4_EEELm9EEC2IS4_EENS0_21FlatTupleConstructTagEOT_
FN:1227,_ZN7testing8internal17FlatTupleElemBaseINS0_9FlatTupleIJSt5tupleIJiiEES4_S4_S4_S4_S4_S4_S4_S4_S4_S4_S4_S4_S4_S4_S4_S4_S4_S4_S4_S4_S4_S4_S4_S4_S4_S4_S4_S4_S4_S4_S4_S4_S4_S4_S4_S4_S4_EEELm8EEC2IS4_EENS0_21FlatTupleConstructTagEOT_
FNDA:3,_ZN7testing8internal17FlatTupleElemBaseINS0_9FlatTupleIJSt5tupleIJiiEES4_S4_S4_S4_S4_S4_S4_S4_S4_S4_S4_S4_S4_S4_S4_S4_S4_S4_S4_S4_S4_S4_S4_S4_S4_S4_S4_S4_S4_S4_S4_S4_S4_S4_S4_S4_S4_EEELm8EEC2IS4_EENS0_21FlatTupleConstructTagEOT_
FN:1227,_ZN7testing8internal17FlatTupleElemBaseINS0_9FlatTupleIJSt5tupleIJiiEES4_S4_S4_S4_S4_S4_S4_S4_S4_S4_S4_S4_S4_S4_S4_S4_S4_S4_S4_S4_S4_S4_S4_S4_S4_S4_S4_S4_S4_S4_S4_S4_S4_S4_S4_S4_S4_EEELm7EEC2IS4_EENS0_21FlatTupleConstructTagEOT_
FNDA:3,_ZN7testing8internal17FlatTupleElemBaseINS0_9FlatTupleIJSt5tupleIJiiEES4_S4_S4_S4_S4_S4_S4_S4_S4_S4_S4_S4_S4_S4_S4_S4_S4_S4_S4_S4_S4_S4_S4_S4_S4_S4_S4_S4_S4_S4_S4_S4_S4_S4_S4_S4_S4_EEELm7EEC2IS4_EENS0_21FlatTupleConstructTagEOT_
FN:1227,_ZN7testing8internal17FlatTupleElemBaseINS0_9FlatTupleIJSt5tupleIJiiEES4_S4_S4_S4_S4_S4_S4_S4_S4_S4_S4_S4_S4_S4_S4_S4_S4_S4_S4_S4_S4_S4_S4_S4_S4_S4_S4_S4_S4_S4_S4_S4_S4_S4_S4_S4_S4_EEELm6EEC2IS4_EENS0_21FlatTupleConstructTagEOT_
FNDA:3,_ZN7testing8internal17FlatTupleElemBaseINS0_9FlatTupleIJSt5tupleIJiiEES4_S4_S4_S4_S4_S4_S4_S4_S4_S4_S4_S4_S4_S4_S4_S4_S4_S4_S4_S4_S4_S4_S4_S4_S4_S4_S4_S4_S4_S4_S4_S4_S4_S4_S4_S4_S4_EEELm6EEC2IS4_EENS0_21FlatTupleConstructTagEOT_
FN:1241,_ZN7testing8internal13FlatTupleBaseINS0_9FlatTupleIJSt5tupleIJiiEES4_EEENS0_13IndexSequenceIJLm0ELm1EEEEEC2IJS4_S4_EEENS0_21FlatTupleConstructTagEDpOT_
FNDA:6,_ZN7testing8internal13FlatTupleBaseINS0_9FlatTupleIJSt5tupleIJiiEES4_EEENS0_13IndexSequenceIJLm0ELm1EEEEEC2IJS4_S4_EEENS0_21FlatTupleConstructTagEDpOT_
FN:1241,_ZN7testing8internal13FlatTupleBaseINS0_9FlatTupleIJSt5tupleIJiiiEES4_S4_S4_S4_S4_S4_S4_S4_S4_S4_S4_S4_S4_S4_S4_S4_S4_S4_S4_S4_S4_S4_S4_S4_S4_S4_S4_S4_S4_S4_S4_S4_S4_S4_S4_S4_S4_EEENS0_13IndexSequenceIJLm0ELm1ELm2ELm3ELm4ELm5ELm6ELm7ELm8ELm9ELm10ELm11ELm12ELm13ELm14ELm15ELm16ELm17ELm18ELm19ELm20ELm21ELm22ELm23ELm24ELm25ELm26ELm27ELm28ELm29ELm30ELm31ELm32ELm33ELm34ELm35ELm36ELm37EEEEEC2IJS4_S4_S4_S4_S4_S4_S4_S4_S4_S4_S4_S4_S4_S4_S4_S4_S4_S4_S4_S4_S4_S4_S4_S4_S4_S4_S4_S4_S4_S4_S4_S4_S4_S4_S4_S4_S4_S4_EEENS0_21FlatTupleConstructTagEDpOT_
FNDA:9,_ZN7testing8internal13FlatTupleBaseINS0_9FlatTupleIJSt5tupleIJiiiEES4_S4_S4_S4_S4_S4_S4_S4_S4_S4_S4_S4_S4_S4_S4_S4_S4_S4_S4_S4_S4_S4_S4_S4_S4_S4_S4_S4_S4_S4_S4_S4_S4_S4_S4_S4_S4_EEENS0_13IndexSequenceIJLm0ELm1ELm2ELm3ELm4ELm5ELm6ELm7ELm8ELm9ELm10ELm11ELm12ELm13ELm14ELm15ELm16ELm17ELm18ELm19ELm20ELm21ELm22ELm23ELm24ELm25ELm26ELm27ELm28ELm29ELm30ELm31ELm32ELm33ELm34ELm35ELm36ELm37EEEEEC2IJS4_S4_S4_S4_S4_S4_S4_S4_S4_S4_S4_S4_S4_S4_S4_S4_S4_S4_S4_S4_S4_S4_S4_S4_S4_S4_S4_S4_S4_S4_S4_S4_S4_S4_S4_S4_S4_S4_EEENS0_21FlatTupleConstructTagEDpOT_
FN:1241,_ZN7testing8internal13FlatTupleBaseINS0_9FlatTupleIJSt5tupleIJiiEES4_S4_S4_S4_S4_S4_S4_S4_S4_S4_S4_S4_S4_S4_S4_S4_S4_S4_S4_S4_S4_S4_S4_S4_S4_S4_S4_S4_S4_S4_S4_S4_S4_S4_S4_S4_S4_EEENS0_13IndexSequenceIJLm0ELm1ELm2ELm3ELm4ELm5ELm6ELm7ELm8ELm9ELm10ELm11ELm12ELm13ELm14ELm15ELm16ELm17ELm18ELm19ELm20ELm21ELm22ELm23ELm24ELm25ELm26ELm27ELm28ELm29ELm30ELm31ELm32ELm33ELm34ELm35ELm36ELm37EEEEEC2IJS4_S4_S4_S4_S4_S4_S4_S4_S4_S4_S4_S4_S4_S4_S4_S4_S4_S4_S4_S4_S4_S4_S4_S4_S4_S4_S4_S4_S4_S4_S4_S4_S4_S4_S4_S4_S4_S4_EEENS0_21FlatTupleConstructTagEDpOT_
FNDA:3,_ZN7testing8internal13FlatTupleBaseINS0_9FlatTupleIJSt5tupleIJiiEES4_S4_S4_S4_S4_S4_S4_S4_S4_S4_S4_S4_S4_S4_S4_S4_S4_S4_S4_S4_S4_S4_S4_S4_S4_S4_S4_S4_S4_S4_S4_S4_S4_S4_S4_S4_S4_EEENS0_13IndexSequenceIJLm0ELm1ELm2ELm3ELm4ELm5ELm6ELm7ELm8ELm9ELm10ELm11ELm12ELm13ELm14ELm15ELm16ELm17ELm18ELm19ELm20ELm21ELm22ELm23ELm24ELm25ELm26ELm27ELm28ELm29ELm30ELm31ELm32ELm33ELm34ELm35ELm36ELm37EEEEEC2IJS4_S4_S4_S4_S4_S4_S4_S4_S4_S4_S4_S4_S4_S4_S4_S4_S4_S4_S4_S4_S4_S4_S4_S4_S4_S4_S4_S4_S4_S4_S4_S4_S4_S4_S4_S4_S4_S4_EEENS0_21FlatTupleConstructTagEDpOT_
FN:1246,_ZNK7testing8internal13FlatTupleBaseINS0_9FlatTupleIJSt5tupleIJiiiEES4_S4_S4_S4_S4_S4_S4_S4_S4_S4_S4_S4_S4_S4_S4_S4_S4_S4_S4_S4_S4_S4_S4_S4_S4_S4_S4_S4_S4_S4_S4_S4_S4_S4_S4_S4_S4_EEENS0_13IndexSequenceIJLm0ELm1ELm2ELm3ELm4ELm5ELm6ELm7ELm8ELm9ELm10ELm11ELm12ELm13ELm14ELm15ELm16ELm17ELm18ELm19ELm20ELm21ELm22ELm23ELm24ELm25ELm26ELm27ELm28ELm29ELm30ELm31ELm32ELm33ELm34ELm35ELm36ELm37EEEEE3GetILm7EEERKNS0_12ElemFromListIXT_EJS4_S4_S4_S4_S4_S4_S4_S4_S4_S4_S4_S4_S4_S4_S4_S4_S4_S4_S4_S4_S4_S4_S4_S4_S4_S4_S4_S4_S4_S4_S4_S4_S4_S4_S4_S4_S4_S4_EE4typeEv
FNDA:9,_ZNK7testing8internal13FlatTupleBaseINS0_9FlatTupleIJSt5tupleIJiiiEES4_S4_S4_S4_S4_S4_S4_S4_S4_S4_S4_S4_S4_S4_S4_S4_S4_S4_S4_S4_S4_S4_S4_S4_S4_S4_S4_S4_S4_S4_S4_S4_S4_S4_S4_S4_S4_EEENS0_13IndexSequenceIJLm0ELm1ELm2ELm3ELm4ELm5ELm6ELm7ELm8ELm9ELm10ELm11ELm12ELm13ELm14ELm15ELm16ELm17ELm18ELm19ELm20ELm21ELm22ELm23ELm24ELm25ELm26ELm27ELm28ELm29ELm30ELm31ELm32ELm33ELm34ELm35ELm36ELm37EEEEE3GetILm7EEERKNS0_12ElemFromListIXT_EJS4_S4_S4_S4_S4_S4_S4_S4_S4_S4_S4_S4_S4_S4_S4_S4_S4_S4_S4_S4_S4_S4_S4_S4_S4_S4_S4_S4_S4_S4_S4_S4_S4_S4_S4_S4_S4_S4_EE4typeEv
FN:1246,_ZNK7testing8internal13FlatTupleBaseINS0_9FlatTupleIJSt5tupleIJiiEES4_S4_S4_S4_S4_S4_S4_S4_S4_S4_S4_S4_S4_S4_S4_S4_S4_S4_S4_S4_S4_S4_S4_S4_S4_S4_S4_S4_S4_S4_S4_S4_S4_S4_S4_S4_S4_EEENS0_13IndexSequenceIJLm0ELm1ELm2ELm3ELm4ELm5ELm6ELm7ELm8ELm9ELm10ELm11ELm12ELm13ELm14ELm15ELm16ELm17ELm18ELm19ELm20ELm21ELm22ELm23ELm24ELm25ELm26ELm27ELm28ELm29ELm30ELm31ELm32ELm33ELm34ELm35ELm36ELm37EEEEE3GetILm28EEERKNS0_12ElemFromListIXT_EJS4_S4_S4_S4_S4_S4_S4_S4_S4_S4_S4_S4_S4_S4_S4_S4_S4_S4_S4_S4_S4_S4_S4_S4_S4_S4_S4_S4_S4_S4_S4_S4_S4_S4_S4_S4_S4_S4_EE4typeEv
FNDA:3,_ZNK7testing8internal13FlatTupleBaseINS0_9FlatTupleIJSt5tupleIJiiEES4_S4_S4_S4_S4_S4_S4_S4_S4_S4_S4_S4_S4_S4_S4_S4_S4_S4_S4_S4_S4_S4_S4_S4_S4_S4_S4_S4_S4_S4_S4_S4_S4_S4_S4_S4_S4_EEENS0_13IndexSequenceIJLm0ELm1ELm2ELm3ELm4ELm5ELm6ELm7ELm8ELm9ELm10ELm11ELm12ELm13ELm14ELm15ELm16ELm17ELm18ELm19ELm20ELm21ELm22ELm23ELm24ELm25ELm26ELm27ELm28ELm29ELm30ELm31ELm32ELm33ELm34ELm35ELm36ELm37EEEEE3GetILm28EEERKNS0_12ElemFromListIXT_EJS4_S4_S4_S4_S4_S4_S4_S4_S4_S4_S4_S4_S4_S4_S4_S4_S4_S4_S4_S4_S4_S4_S4_S4_S4_S4_S4_S4_S4_S4_S4_S4_S4_S4_S4_S4_S4_S4_EE4typeEv
FN:1246,_ZNK7testing8internal13FlatTupleBaseINS0_9FlatTupleIJSt5tupleIJiiiEES4_S4_S4_S4_S4_S4_S4_S4_S4_S4_S4_S4_S4_S4_S4_S4_S4_S4_S4_S4_S4_S4_S4_S4_S4_S4_S4_S4_S4_S4_S4_S4_S4_S4_S4_S4_S4_EEENS0_13IndexSequenceIJLm0ELm1ELm2ELm3ELm4ELm5ELm6ELm7ELm8ELm9ELm10ELm11ELm12ELm13ELm14ELm15ELm16ELm17ELm18ELm19ELm20ELm21ELm22ELm23ELm24ELm25ELm26ELm27ELm28ELm29ELm30ELm31ELm32ELm33ELm34ELm35ELm36ELm37EEEEE3GetILm8EEERKNS0_12ElemFromListIXT_EJS4_S4_S4_S4_S4_S4_S4_S4_S4_S4_S4_S4_S4_S4_S4_S4_S4_S4_S4_S4_S4_S4_S4_S4_S4_S4_S4_S4_S4_S4_S4_S4_S4_S4_S4_S4_S4_S4_EE4typeEv
FNDA:9,_ZNK7testing8internal13FlatTupleBaseINS0_9FlatTupleIJSt5tupleIJiiiEES4_S4_S4_S4_S4_S4_S4_S4_S4_S4_S4_S4_S4_S4_S4_S4_S4_S4_S4_S4_S4_S4_S4_S4_S4_S4_S4_S4_S4_S4_S4_S4_S4_S4_S4_S4_S4_EEENS0_13IndexSequenceIJLm0ELm1ELm2ELm3ELm4ELm5ELm6ELm7ELm8ELm9ELm10ELm11ELm12ELm13ELm14ELm15ELm16ELm17ELm18ELm19ELm20ELm21ELm22ELm23ELm24ELm25ELm26ELm27ELm28ELm29ELm30ELm31ELm32ELm33ELm34ELm35ELm36ELm37EEEEE3GetILm8EEERKNS0_12ElemFromListIXT_EJS4_S4_S4_S4_S4_S4_S4_S4_S4_S4_S4_S4_S4_S4_S4_S4_S4_S4_S4_S4_S4_S4_S4_S4_S4_S4_S4_S4_S4_S4_S4_S4_S4_S4_S4_S4_S4_S4_EE4typeEv
FN:1246,_ZNK7testing8internal13FlatTupleBaseINS0_9FlatTupleIJSt5tupleIJiiiEES4_S4_S4_S4_S4_S4_S4_S4_S4_S4_S4_S4_S4_S4_S4_S4_S4_S4_S4_S4_S4_S4_S4_S4_S4_S4_S4_S4_S4_S4_S4_S4_S4_S4_S4_S4_S4_EEENS0_13IndexSequenceIJLm0ELm1ELm2ELm3ELm4ELm5ELm6ELm7ELm8ELm9ELm10ELm11ELm12ELm13ELm14ELm15ELm16ELm17ELm18ELm19ELm20ELm21ELm22ELm23ELm24ELm25ELm26ELm27ELm28ELm29ELm30ELm31ELm32ELm33ELm34ELm35ELm36ELm37EEEEE3GetILm9EEERKNS0_12ElemFromListIXT_EJS4_S4_S4_S4_S4_S4_S4_S4_S4_S4_S4_S4_S4_S4_S4_S4_S4_S4_S4_S4_S4_S4_S4_S4_S4_S4_S4_S4_S4_S4_S4_S4_S4_S4_S4_S4_S4_S4_EE4typeEv
FNDA:9,_ZNK7testing8internal13FlatTupleBaseINS0_9FlatTupleIJSt5tupleIJiiiEES4_S4_S4_S4_S4_S4_S4_S4_S4_S4_S4_S4_S4_S4_S4_S4_S4_S4_S4_S4_S4_S4_S4_S4_S4_S4_S4_S4_S4_S4_S4_S4_S4_S4_S4_S4_S4_EEENS0_13IndexSequenceIJLm0ELm1ELm2ELm3ELm4ELm5ELm6ELm7ELm8ELm9ELm10ELm11ELm12ELm13ELm14ELm15ELm16ELm17ELm18ELm19ELm20ELm21ELm22ELm23ELm24ELm25ELm26ELm27ELm28ELm29ELm30ELm31ELm32ELm33ELm34ELm35ELm36ELm37EEEEE3GetILm9EEERKNS0_12ElemFromListIXT_EJS4_S4_S4_S4_S4_S4_S4_S4_S4_S4_S4_S4_S4_S4_S4_S4_S4_S4_S4_S4_S4_S4_S4_S4_S4_S4_S4_S4_S4_S4_S4_S4_S4_S4_S4_S4_S4_S4_EE4typeEv
FN:1246,_ZNK7testing8internal13FlatTupleBaseINS0_9FlatTupleIJSt5tupleIJiiiEES4_S4_S4_S4_S4_S4_S4_S4_S4_S4_S4_S4_S4_S4_S4_S4_S4_S4_S4_S4_S4_S4_S4_S4_S4_S4_S4_S4_S4_S4_S4_S4_S4_S4_S4_S4_S4_EEENS0_13IndexSequenceIJLm0ELm1ELm2ELm3ELm4ELm5ELm6ELm7ELm8ELm9ELm10ELm11ELm12ELm13ELm14ELm15ELm16ELm17ELm18ELm19ELm20ELm21ELm22ELm23ELm24ELm25ELm26ELm27ELm28ELm29ELm30ELm31ELm32ELm33ELm34ELm35ELm36ELm37EEEEE3GetILm10EEERKNS0_12ElemFromListIXT_EJS4_S4_S4_S4_S4_S4_S4_S4_S4_S4_S4_S4_S4_S4_S4_S4_S4_S4_S4_S4_S4_S4_S4_S4_S4_S4_S4_S4_S4_S4_S4_S4_S4_S4_S4_S4_S4_S4_EE4typeEv
FNDA:9,_ZNK7testing8internal13FlatTupleBaseINS0_9FlatTupleIJSt5tupleIJiiiEES4_S4_S4_S4_S4_S4_S4_S4_S4_S4_S4_S4_S4_S4_S4_S4_S4_S4_S4_S4_S4_S4_S4_S4_S4_S4_S4_S4_S4_S4_S4_S4_S4_S4_S4_S4_S4_EEENS0_13IndexSequenceIJLm0ELm1ELm2ELm3ELm4ELm5ELm6ELm7ELm8ELm9ELm10ELm11ELm12ELm13ELm14ELm15ELm16ELm17ELm18ELm19ELm20ELm21ELm22ELm23ELm24ELm25ELm26ELm27ELm28ELm29ELm30ELm31ELm32ELm33ELm34ELm35ELm36ELm37EEEEE3GetILm10EEERKNS0_12ElemFromListIXT_EJS4_S4_S4_S4_S4_S4_S4_S4_S4_S4_S4_S4_S4_S4_S4_S4_S4_S4_S4_S4_S4_S4_S4_S4_S4_S4_S4_S4_S4_S4_S4_S4_S4_S4_S4_S4_S4_S4_EE4typeEv
FN:1246,_ZNK7testing8internal13FlatTupleBaseINS0_9FlatTupleIJSt5tupleIJiiiEES4_S4_S4_S4_S4_S4_S4_S4_S4_S4_S4_S4_S4_S4_S4_S4_S4_S4_S4_S4_S4_S4_S4_S4_S4_S4_S4_S4_S4_S4_S4_S4_S4_S4_S4_S4_S4_EEENS0_13IndexSequenceIJLm0ELm1ELm2ELm3ELm4ELm5ELm6ELm7ELm8ELm9ELm10ELm11ELm12ELm13ELm14ELm15ELm16ELm17ELm18ELm19ELm20ELm21ELm22ELm23ELm24ELm25ELm26ELm27ELm28ELm29ELm30ELm31ELm32ELm33ELm34ELm35ELm36ELm37EEEEE3GetILm11EEERKNS0_12ElemFromListIXT_EJS4_S4_S4_S4_S4_S4_S4_S4_S4_S4_S4_S4_S4_S4_S4_S4_S4_S4_S4_S4_S4_S4_S4_S4_S4_S4_S4_S4_S4_S4_S4_S4_S4_S4_S4_S4_S4_S4_EE4typeEv
FNDA:9,_ZNK7testing8internal13FlatTupleBaseINS0_9FlatTupleIJSt5tupleIJiiiEES4_S4_S4_S4_S4_S4_S4_S4_S4_S4_S4_S4_S4_S4_S4_S4_S4_S4_S4_S4_S4_S4_S4_S4_S4_S4_S4_S4_S4_S4_S4_S4_S4_S4_S4_S4_S4_EEENS0_13IndexSequenceIJLm0ELm1ELm2ELm3ELm4ELm5ELm6ELm7ELm8ELm9ELm10ELm11ELm12ELm13ELm14ELm15ELm16ELm17ELm18ELm19ELm20ELm21ELm22ELm23ELm24ELm25ELm26ELm27ELm28ELm29ELm30ELm31ELm32ELm33ELm34ELm35ELm36ELm37EEEEE3GetILm11EEERKNS0_12ElemFromListIXT_EJS4_S4_S4_S4_S4_S4_S4_S4_S4_S4_S4_S4_S4_S4_S4_S4_S4_S4_S4_S4_S4_S4_S4_S4_S4_S4_S4_S4_S4_S4_S4_S4_S4_S4_S4_S4_S4_S4_EE4typeEv
FN:1246,_ZNK7testing8internal13FlatTupleBaseINS0_9FlatTupleIJSt5tupleIJiiiEES4_S4_S4_S4_S4_S4_S4_S4_S4_S4_S4_S4_S4_S4_S4_S4_S4_S4_S4_S4_S4_S4_S4_S4_S4_S4_S4_S4_S4_S4_S4_S4_S4_S4_S4_S4_S4_EEENS0_13IndexSequenceIJLm0ELm1ELm2ELm3ELm4ELm5ELm6ELm7ELm8ELm9ELm10ELm11ELm12ELm13ELm14ELm15ELm16ELm17ELm18ELm19ELm20ELm21ELm22ELm23ELm24ELm25ELm26ELm27ELm28ELm29ELm30ELm31ELm32ELm33ELm34ELm35ELm36ELm37EEEEE3GetILm12EEERKNS0_12ElemFromListIXT_EJS4_S4_S4_S4_S4_S4_S4_S4_S4_S4_S4_S4_S4_S4_S4_S4_S4_S4_S4_S4_S4_S4_S4_S4_S4_S4_S4_S4_S4_S4_S4_S4_S4_S4_S4_S4_S4_S4_EE4typeEv
FNDA:9,_ZNK7testing8internal13FlatTupleBaseINS0_9FlatTupleIJSt5tupleIJiiiEES4_S4_S4_S4_S4_S4_S4_S4_S4_S4_S4_S4_S4_S4_S4_S4_S4_S4_S4_S4_S4_S4_S4_S4_S4_S4_S4_S4_S4_S4_S4_S4_S4_S4_S4_S4_S4_EEENS0_13IndexSequenceIJLm0ELm1ELm2ELm3ELm4ELm5ELm6ELm7ELm8ELm9ELm10ELm11ELm12ELm13ELm14ELm15ELm16ELm17ELm18ELm19ELm20ELm21ELm22ELm23ELm24ELm25ELm26ELm27ELm28ELm29ELm30ELm31ELm32ELm33ELm34ELm35ELm36ELm37EEEEE3GetILm12EEERKNS0_12ElemFromListIXT_EJS4_S4_S4_S4_S4_S4_S4_S4_S4_S4_S4_S4_S4_S4_S4_S4_S4_S4_S4_S4_S4_S4_S4_S4_S4_S4_S4_S4_S4_S4_S4_S4_S4_S4_S4_S4_S4_S4_EE4typeEv
FN:1246,_ZNK7testing8internal13FlatTupleBaseINS0_9FlatTupleIJSt5tupleIJiiiEES4_S4_S4_S4_S4_S4_S4_S4_S4_S4_S4_S4_S4_S4_S4_S4_S4_S4_S4_S4_S4_S4_S4_S4_S4_S4_S4_S4_S4_S4_S4_S4_S4_S4_S4_S4_S4_EEENS0_13IndexSequenceIJLm0ELm1ELm2ELm3ELm4ELm5ELm6ELm7ELm8ELm9ELm10ELm11ELm12ELm13ELm14ELm15ELm16ELm17ELm18ELm19ELm20ELm21ELm22ELm23ELm24ELm25ELm26ELm27ELm28ELm29ELm30ELm31ELm32ELm33ELm34ELm35ELm36ELm37EEEEE3GetILm13EEERKNS0_12ElemFromListIXT_EJS4_S4_S4_S4_S4_S4_S4_S4_S4_S4_S4_S4_S4_S4_S4_S4_S4_S4_S4_S4_S4_S4_S4_S4_S4_S4_S4_S4_S4_S4_S4_S4_S4_S4_S4_S4_S4_S4_EE4typeEv
FNDA:9,_ZNK7testing8internal13FlatTupleBaseINS0_9FlatTupleIJSt5tupleIJiiiEES4_S4_S4_S4_S4_S4_S4_S4_S4_S4_S4_S4_S4_S4_S4_S4_S4_S4_S4_S4_S4_S4_S4_S4_S4_S4_S4_S4_S4_S4_S4_S4_S4_S4_S4_S4_S4_EEENS0_13IndexSequenceIJLm0ELm1ELm2ELm3ELm4ELm5ELm6ELm7ELm8ELm9ELm10ELm11ELm12ELm13ELm14ELm15ELm16ELm17ELm18ELm19ELm20ELm21ELm22ELm23ELm24ELm25ELm26ELm27ELm28ELm29ELm30ELm31ELm32ELm33ELm34ELm35ELm36ELm37EEEEE3GetILm13EEERKNS0_12ElemFromListIXT_EJS4_S4_S4_S4_S4_S4_S4_S4_S4_S4_S4_S4_S4_S4_S4_S4_S4_S4_S4_S4_S4_S4_S4_S4_S4_S4_S4_S4_S4_S4_S4_S4_S4_S4_S4_S4_S4_S4_EE4typeEv
FN:1246,_ZNK7testing8internal13FlatTupleBaseINS0_9FlatTupleIJSt5tupleIJiiiEES4_S4_S4_S4_S4_S4_S4_S4_S4_S4_S4_S4_S4_S4_S4_S4_S4_S4_S4_S4_S4_S4_S4_S4_S4_S4_S4_S4_S4_S4_S4_S4_S4_S4_S4_S4_S4_EEENS0_13IndexSequenceIJLm0ELm1ELm2ELm3ELm4ELm5ELm6ELm7ELm8ELm9ELm10ELm11ELm12ELm13ELm14ELm15ELm16ELm17ELm18ELm19ELm20ELm21ELm22ELm23ELm24ELm25ELm26ELm27ELm28ELm29ELm30ELm31ELm32ELm33ELm34ELm35ELm36ELm37EEEEE3GetILm14EEERKNS0_12ElemFromListIXT_EJS4_S4_S4_S4_S4_S4_S4_S4_S4_S4_S4_S4_S4_S4_S4_S4_S4_S4_S4_S4_S4_S4_S4_S4_S4_S4_S4_S4_S4_S4_S4_S4_S4_S4_S4_S4_S4_S4_EE4typeEv
FNDA:9,_ZNK7testing8internal13FlatTupleBaseINS0_9FlatTupleIJSt5tupleIJiiiEES4_S4_S4_S4_S4_S4_S4_S4_S4_S4_S4_S4_S4_S4_S4_S4_S4_S4_S4_S4_S4_S4_S4_S4_S4_S4_S4_S4_S4_S4_S4_S4_S4_S4_S4_S4_S4_EEENS0_13IndexSequenceIJLm0ELm1ELm2ELm3ELm4ELm5ELm6ELm7ELm8ELm9ELm10ELm11ELm12ELm13ELm14ELm15ELm16ELm17ELm18ELm19ELm20ELm21ELm22ELm23ELm24ELm25ELm26ELm27ELm28ELm29ELm30ELm31ELm32ELm33ELm34ELm35ELm36ELm37EEEEE3GetILm14EEERKNS0_12ElemFromListIXT_EJS4_S4_S4_S4_S4_S4_S4_S4_S4_S4_S4_S4_S4_S4_S4_S4_S4_S4_S4_S4_S4_S4_S4_S4_S4_S4_S4_S4_S4_S4_S4_S4_S4_S4_S4_S4_S4_S4_EE4typeEv
FN:1246,_ZNK7testing8internal13FlatTupleBaseINS0_9FlatTupleIJSt5tupleIJiiiEES4_S4_S4_S4_S4_S4_S4_S4_S4_S4_S4_S4_S4_S4_S4_S4_S4_S4_S4_S4_S4_S4_S4_S4_S4_S4_S4_S4_S4_S4_S4_S4_S4_S4_S4_S4_S4_EEENS0_13IndexSequenceIJLm0ELm1ELm2ELm3ELm4ELm5ELm6ELm7ELm8ELm9ELm10ELm11ELm12ELm13ELm14ELm15ELm16ELm17ELm18ELm19ELm20ELm21ELm22ELm23ELm24ELm25ELm26ELm27ELm28ELm29ELm30ELm31ELm32ELm33ELm34ELm35ELm36ELm37EEEEE3GetILm15EEERKNS0_12ElemFromListIXT_EJS4_S4_S4_S4_S4_S4_S4_S4_S4_S4_S4_S4_S4_S4_S4_S4_S4_S4_S4_S4_S4_S4_S4_S4_S4_S4_S4_S4_S4_S4_S4_S4_S4_S4_S4_S4_S4_S4_EE4typeEv
FNDA:9,_ZNK7testing8internal13FlatTupleBaseINS0_9FlatTupleIJSt5tupleIJiiiEES4_S4_S4_S4_S4_S4_S4_S4_S4_S4_S4_S4_S4_S4_S4_S4_S4_S4_S4_S4_S4_S4_S4_S4_S4_S4_S4_S4_S4_S4_S4_S4_S4_S4_S4_S4_S4_EEENS0_13IndexSequenceIJLm0ELm1ELm2ELm3ELm4ELm5ELm6ELm7ELm8ELm9ELm10ELm11ELm12ELm13ELm14ELm15ELm16ELm17ELm18ELm19ELm20ELm21ELm22ELm23ELm24ELm25ELm26ELm27ELm28ELm29ELm30ELm31ELm32ELm33ELm34ELm35ELm36ELm37EEEEE3GetILm15EEERKNS0_12ElemFromListIXT_EJS4_S4_S4_S4_S4_S4_S4_S4_S4_S4_S4_S4_S4_S4_S4_S4_S4_S4_S4_S4_S4_S4_S4_S4_S4_S4_S4_S4_S4_S4_S4_S4_S4_S4_S4_S4_S4_S4_EE4typeEv
FN:1246,_ZNK7testing8internal13FlatTupleBaseINS0_9FlatTupleIJSt5tupleIJiiiEES4_S4_S4_S4_S4_S4_S4_S4_S4_S4_S4_S4_S4_S4_S4_S4_S4_S4_S4_S4_S4_S4_S4_S4_S4_S4_S4_S4_S4_S4_S4_S4_S4_S4_S4_S4_S4_EEENS0_13IndexSequenceIJLm0ELm1ELm2ELm3ELm4ELm5ELm6ELm7ELm8ELm9ELm10ELm11ELm12ELm13ELm14ELm15ELm16ELm17ELm18ELm19ELm20ELm21ELm22ELm23ELm24ELm25ELm26ELm27ELm28ELm29ELm30ELm31ELm32ELm33ELm34ELm35ELm36ELm37EEEEE3GetILm16EEERKNS0_12ElemFromListIXT_EJS4_S4_S4_S4_S4_S4_S4_S4_S4_S4_S4_S4_S4_S4_S4_S4_S4_S4_S4_S4_S4_S4_S4_S4_S4_S4_S4_S4_S4_S4_S4_S4_S4_S4_S4_S4_S4_S4_EE4typeEv
FNDA:9,_ZNK7testing8internal13FlatTupleBaseINS0_9FlatTupleIJSt5tupleIJiiiEES4_S4_S4_S4_S4_S4_S4_S4_S4_S4_S4_S4_S4_S4_S4_S4_S4_S4_S4_S4_S4_S4_S4_S4_S4_S4_S4_S4_S4_S4_S4_S4_S4_S4_S4_S4_S4_EEENS0_13IndexSequenceIJLm0ELm1ELm2ELm3ELm4ELm5ELm6ELm7ELm8ELm9ELm10ELm11ELm12ELm13ELm14ELm15ELm16ELm17ELm18ELm19ELm20ELm21ELm22ELm23ELm24ELm25ELm26ELm27ELm28ELm29ELm30ELm31ELm32ELm33ELm34ELm35ELm36ELm37EEEEE3GetILm16EEERKNS0_12ElemFromListIXT_EJS4_S4_S4_S4_S4_S4_S4_S4_S4_S4_S4_S4_S4_S4_S4_S4_S4_S4_S4_S4_S4_S4_S4_S4_S4_S4_S4_S4_S4_S4_S4_S4_S4_S4_S4_S4_S4_S4_EE4typeEv
FN:1246,_ZNK7testing8internal13FlatTupleBaseINS0_9FlatTupleIJSt5tupleIJiiiEES4_S4_S4_S4_S4_S4_S4_S4_S4_S4_S4_S4_S4_S4_S4_S4_S4_S4_S4_S4_S4_S4_S4_S4_S4_S4_S4_S4_S4_S4_S4_S4_S4_S4_S4_S4_S4_EEENS0_13IndexSequenceIJLm0ELm1ELm2ELm3ELm4ELm5ELm6ELm7ELm8ELm9ELm10ELm11ELm12ELm13ELm14ELm15ELm16ELm17ELm18ELm19ELm20ELm21ELm22ELm23ELm24ELm25ELm26ELm27ELm28ELm29ELm30ELm31ELm32ELm33ELm34ELm35ELm36ELm37EEEEE3GetILm17EEERKNS0_12ElemFromListIXT_EJS4_S4_S4_S4_S4_S4_S4_S4_S4_S4_S4_S4_S4_S4_S4_S4_S4_S4_S4_S4_S4_S4_S4_S4_S4_S4_S4_S4_S4_S4_S4_S4_S4_S4_S4_S4_S4_S4_EE4typeEv
FNDA:9,_ZNK7testing8internal13FlatTupleBaseINS0_9FlatTupleIJSt5tupleIJiiiEES4_S4_S4_S4_S4_S4_S4_S4_S4_S4_S4_S4_S4_S4_S4_S4_S4_S4_S4_S4_S4_S4_S4_S4_S4_S4_S4_S4_S4_S4_S4_S4_S4_S4_S4_S4_S4_EEENS0_13IndexSequenceIJLm0ELm1ELm2ELm3ELm4ELm5ELm6ELm7ELm8ELm9ELm10ELm11ELm12ELm13ELm14ELm15ELm16ELm17ELm18ELm19ELm20ELm21ELm22ELm23ELm24ELm25ELm26ELm27ELm28ELm29ELm30ELm31ELm32ELm33ELm34ELm35ELm36ELm37EEEEE3GetILm17EEERKNS0_12ElemFromListIXT_EJS4_S4_S4_S4_S4_S4_S4_S4_S4_S4_S4_S4_S4_S4_S4_S4_S4_S4_S4_S4_S4_S4_S4_S4_S4_S4_S4_S4_S4_S4_S4_S4_S4_S4_S4_S4_S4_S4_EE4typeEv
FN:1246,_ZNK7testing8internal13FlatTupleBaseINS0_9FlatTupleIJSt5tupleIJiiiEES4_S4_S4_S4_S4_S4_S4_S4_S4_S4_S4_S4_S4_S4_S4_S4_S4_S4_S4_S4_S4_S4_S4_S4_S4_S4_S4_S4_S4_S4_S4_S4_S4_S4_S4_S4_S4_EEENS0_13IndexSequenceIJLm0ELm1ELm2ELm3ELm4ELm5ELm6ELm7ELm8ELm9ELm10ELm11ELm12ELm13ELm14ELm15ELm16ELm17ELm18ELm19ELm20ELm21ELm22ELm23ELm24ELm25ELm26ELm27ELm28ELm29ELm30ELm31ELm32ELm33ELm34ELm35ELm36ELm37EEEEE3GetILm18EEERKNS0_12ElemFromListIXT_EJS4_S4_S4_S4_S4_S4_S4_S4_S4_S4_S4_S4_S4_S4_S4_S4_S4_S4_S4_S4_S4_S4_S4_S4_S4_S4_S4_S4_S4_S4_S4_S4_S4_S4_S4_S4_S4_S4_EE4typeEv
FNDA:9,_ZNK7testing8internal13FlatTupleBaseINS0_9FlatTupleIJSt5tupleIJiiiEES4_S4_S4_S4_S4_S4_S4_S4_S4_S4_S4_S4_S4_S4_S4_S4_S4_S4_S4_S4_S4_S4_S4_S4_S4_S4_S4_S4_S4_S4_S4_S4_S4_S4_S4_S4_S4_EEENS0_13IndexSequenceIJLm0ELm1ELm2ELm3ELm4ELm5ELm6ELm7ELm8ELm9ELm10ELm11ELm12ELm13ELm14ELm15ELm16ELm17ELm18ELm19ELm20ELm21ELm22ELm23ELm24ELm25ELm26ELm27ELm28ELm29ELm30ELm31ELm32ELm33ELm34ELm35ELm36ELm37EEEEE3GetILm18EEERKNS0_12ElemFromListIXT_EJS4_S4_S4_S4_S4_S4_S4_S4_S4_S4_S4_S4_S4_S4_S4_S4_S4_S4_S4_S4_S4_S4_S4_S4_S4_S4_S4_S4_S4_S4_S4_S4_S4_S4_S4_S4_S4_S4_EE4typeEv
FN:1246,_ZNK7testing8internal13FlatTupleBaseINS0_9FlatTupleIJSt5tupleIJiiiEES4_S4_S4_S4_S4_S4_S4_S4_S4_S4_S4_S4_S4_S4_S4_S4_S4_S4_S4_S4_S4_S4_S4_S4_S4_S4_S4_S4_S4_S4_S4_S4_S4_S4_S4_S4_S4_EEENS0_13IndexSequenceIJLm0ELm1ELm2ELm3ELm4ELm5ELm6ELm7ELm8ELm9ELm10ELm11ELm12ELm13ELm14ELm15ELm16ELm17ELm18ELm19ELm20ELm21ELm22ELm23ELm24ELm25ELm26ELm27ELm28ELm29ELm30ELm31ELm32ELm33ELm34ELm35ELm36ELm37EEEEE3GetILm19EEERKNS0_12ElemFromListIXT_EJS4_S4_S4_S4_S4_S4_S4_S4_S4_S4_S4_S4_S4_S4_S4_S4_S4_S4_S4_S4_S4_S4_S4_S4_S4_S4_S4_S4_S4_S4_S4_S4_S4_S4_S4_S4_S4_S4_EE4typeEv
FNDA:9,_ZNK7testing8internal13FlatTupleBaseINS0_9FlatTupleIJSt5tupleIJiiiEES4_S4_S4_S4_S4_S4_S4_S4_S4_S4_S4_S4_S4_S4_S4_S4_S4_S4_S4_S4_S4_S4_S4_S4_S4_S4_S4_S4_S4_S4_S4_S4_S4_S4_S4_S4_S4_EEENS0_13IndexSequenceIJLm0ELm1ELm2ELm3ELm4ELm5ELm6ELm7ELm8ELm9ELm10ELm11ELm12ELm13ELm14ELm15ELm16ELm17ELm18ELm19ELm20ELm21ELm22ELm23ELm24ELm25ELm26ELm27ELm28ELm29ELm30ELm31ELm32ELm33ELm34ELm35ELm36ELm37EEEEE3GetILm19EEERKNS0_12ElemFromListIXT_EJS4_S4_S4_S4_S4_S4_S4_S4_S4_S4_S4_S4_S4_S4_S4_S4_S4_S4_S4_S4_S4_S4_S4_S4_S4_S4_S4_S4_S4_S4_S4_S4_S4_S4_S4_S4_S4_S4_EE4typeEv
FN:1246,_ZNK7testing8internal13FlatTupleBaseINS0_9FlatTupleIJSt5tupleIJiiiEES4_S4_S4_S4_S4_S4_S4_S4_S4_S4_S4_S4_S4_S4_S4_S4_S4_S4_S4_S4_S4_S4_S4_S4_S4_S4_S4_S4_S4_S4_S4_S4_S4_S4_S4_S4_S4_EEENS0_13IndexSequenceIJLm0ELm1ELm2ELm3ELm4ELm5ELm6ELm7ELm8ELm9ELm10ELm11ELm12ELm13ELm14ELm15ELm16ELm17ELm18ELm19ELm20ELm21ELm22ELm23ELm24ELm25ELm26ELm27ELm28ELm29ELm30ELm31ELm32ELm33ELm34ELm35ELm36ELm37EEEEE3GetILm20EEERKNS0_12ElemFromListIXT_EJS4_S4_S4_S4_S4_S4_S4_S4_S4_S4_S4_S4_S4_S4_S4_S4_S4_S4_S4_S4_S4_S4_S4_S4_S4_S4_S4_S4_S4_S4_S4_S4_S4_S4_S4_S4_S4_S4_EE4typeEv
FNDA:9,_ZNK7testing8internal13FlatTupleBaseINS0_9FlatTupleIJSt5tupleIJiiiEES4_S4_S4_S4_S4_S4_S4_S4_S4_S4_S4_S4_S4_S4_S4_S4_S4_S4_S4_S4_S4_S4_S4_S4_S4_S4_S4_S4_S4_S4_S4_S4_S4_S4_S4_S4_S4_EEENS0_13IndexSequenceIJLm0ELm1ELm2ELm3ELm4ELm5ELm6ELm7ELm8ELm9ELm10ELm11ELm12ELm13ELm14ELm15ELm16ELm17ELm18ELm19ELm20ELm21ELm22ELm23ELm24ELm25ELm26ELm27ELm28ELm29ELm30ELm31ELm32ELm33ELm34ELm35ELm36ELm37EEEEE3GetILm20EEERKNS0_12ElemFromListIXT_EJS4_S4_S4_S4_S4_S4_S4_S4_S4_S4_S4_S4_S4_S4_S4_S4_S4_S4_S4_S4_S4_S4_S4_S4_S4_S4_S4_S4_S4_S4_S4_S4_S4_S4_S4_S4_S4_S4_EE4typeEv
FN:1246,_ZNK7testing8internal13FlatTupleBaseINS0_9FlatTupleIJSt5tupleIJiiiEES4_S4_S4_S4_S4_S4_S4_S4_S4_S4_S4_S4_S4_S4_S4_S4_S4_S4_S4_S4_S4_S4_S4_S4_S4_S4_S4_S4_S4_S4_S4_S4_S4_S4_S4_S4_S4_EEENS0_13IndexSequenceIJLm0ELm1ELm2ELm3ELm4ELm5ELm6ELm7ELm8ELm9ELm10ELm11ELm12ELm13ELm14ELm15ELm16ELm17ELm18ELm19ELm20ELm21ELm22ELm23ELm24ELm25ELm26ELm27ELm28ELm29ELm30ELm31ELm32ELm33ELm34ELm35ELm36ELm37EEEEE3GetILm21EEERKNS0_12ElemFromListIXT_EJS4_S4_S4_S4_S4_S4_S4_S4_S4_S4_S4_S4_S4_S4_S4_S4_S4_S4_S4_S4_S4_S4_S4_S4_S4_S4_S4_S4_S4_S4_S4_S4_S4_S4_S4_S4_S4_S4_EE4typeEv
FNDA:9,_ZNK7testing8internal13FlatTupleBaseINS0_9FlatTupleIJSt5tupleIJiiiEES4_S4_S4_S4_S4_S4_S4_S4_S4_S4_S4_S4_S4_S4_S4_S4_S4_S4_S4_S4_S4_S4_S4_S4_S4_S4_S4_S4_S4_S4_S4_S4_S4_S4_S4_S4_S4_EEENS0_13IndexSequenceIJLm0ELm1ELm2ELm3ELm4ELm5ELm6ELm7ELm8ELm9ELm10ELm11ELm12ELm13ELm14ELm15ELm16ELm17ELm18ELm19ELm20ELm21ELm22ELm23ELm24ELm25ELm26ELm27ELm28ELm29ELm30ELm31ELm32ELm33ELm34ELm35ELm36ELm37EEEEE3GetILm21EEERKNS0_12ElemFromListIXT_EJS4_S4_S4_S4_S4_S4_S4_S4_S4_S4_S4_S4_S4_S4_S4_S4_S4_S4_S4_S4_S4_S4_S4_S4_S4_S4_S4_S4_S4_S4_S4_S4_S4_S4_S4_S4_S4_S4_EE4typeEv
FN:1246,_ZNK7testing8internal13FlatTupleBaseINS0_9FlatTupleIJSt5tupleIJiiiEES4_S4_S4_S4_S4_S4_S4_S4_S4_S4_S4_S4_S4_S4_S4_S4_S4_S4_S4_S4_S4_S4_S4_S4_S4_S4_S4_S4_S4_S4_S4_S4_S4_S4_S4_S4_S4_EEENS0_13IndexSequenceIJLm0ELm1ELm2ELm3ELm4ELm5ELm6ELm7ELm8ELm9ELm10ELm11ELm12ELm13ELm14ELm15ELm16ELm17ELm18ELm19ELm20ELm21ELm22ELm23ELm24ELm25ELm26ELm27ELm28ELm29ELm30ELm31ELm32ELm33ELm34ELm35ELm36ELm37EEEEE3GetILm22EEERKNS0_12ElemFromListIXT_EJS4_S4_S4_S4_S4_S4_S4_S4_S4_S4_S4_S4_S4_S4_S4_S4_S4_S4_S4_S4_S4_S4_S4_S4_S4_S4_S4_S4_S4_S4_S4_S4_S4_S4_S4_S4_S4_S4_EE4typeEv
FNDA:9,_ZNK7testing8internal13FlatTupleBaseINS0_9FlatTupleIJSt5tupleIJiiiEES4_S4_S4_S4_S4_S4_S4_S4_S4_S4_S4_S4_S4_S4_S4_S4_S4_S4_S4_S4_S4_S4_S4_S4_S4_S4_S4_S4_S4_S4_S4_S4_S4_S4_S4_S4_S4_EEENS0_13IndexSequenceIJLm0ELm1ELm2ELm3ELm4ELm5ELm6ELm7ELm8ELm9ELm10ELm11ELm12ELm13ELm14ELm15ELm16ELm17ELm18ELm19ELm20ELm21ELm22ELm23ELm24ELm25ELm26ELm27ELm28ELm29ELm30ELm31ELm32ELm33ELm34ELm35ELm36ELm37EEEEE3GetILm22EEERKNS0_12ElemFromListIXT_EJS4_S4_S4_S4_S4_S4_S4_S4_S4_S4_S4_S4_S4_S4_S4_S4_S4_S4_S4_S4_S4_S4_S4_S4_S4_S4_S4_S4_S4_S4_S4_S4_S4_S4_S4_S4_S4_S4_EE4typeEv
FN:1246,_ZNK7testing8internal13FlatTupleBaseINS0_9FlatTupleIJSt5tupleIJiiiEES4_S4_S4_S4_S4_S4_S4_S4_S4_S4_S4_S4_S4_S4_S4_S4_S4_S4_S4_S4_S4_S4_S4_S4_S4_S4_S4_S4_S4_S4_S4_S4_S4_S4_S4_S4_S4_EEENS0_13IndexSequenceIJLm0ELm1ELm2ELm3ELm4ELm5ELm6ELm7ELm8ELm9ELm10ELm11ELm12ELm13ELm14ELm15ELm16ELm17ELm18ELm19ELm20ELm21ELm22ELm23ELm24ELm25ELm26ELm27ELm28ELm29ELm30ELm31ELm32ELm33ELm34ELm35ELm36ELm37EEEEE3GetILm23EEERKNS0_12ElemFromListIXT_EJS4_S4_S4_S4_S4_S4_S4_S4_S4_S4_S4_S4_S4_S4_S4_S4_S4_S4_S4_S4_S4_S4_S4_S4_S4_S4_S4_S4_S4_S4_S4_S4_S4_S4_S4_S4_S4_S4_EE4typeEv
FNDA:9,_ZNK7testing8internal13FlatTupleBaseINS0_9FlatTupleIJSt5tupleIJiiiEES4_S4_S4_S4_S4_S4_S4_S4_S4_S4_S4_S4_S4_S4_S4_S4_S4_S4_S4_S4_S4_S4_S4_S4_S4_S4_S4_S4_S4_S4_S4_S4_S4_S4_S4_S4_S4_EEENS0_13IndexSequenceIJLm0ELm1ELm2ELm3ELm4ELm5ELm6ELm7ELm8ELm9ELm10ELm11ELm12ELm13ELm14ELm15ELm16ELm17ELm18ELm19ELm20ELm21ELm22ELm23ELm24ELm25ELm26ELm27ELm28ELm29ELm30ELm31ELm32ELm33ELm34ELm35ELm36ELm37EEEEE3GetILm23EEERKNS0_12ElemFromListIXT_EJS4_S4_S4_S4_S4_S4_S4_S4_S4_S4_S4_S4_S4_S4_S4_S4_S4_S4_S4_S4_S4_S4_S4_S4_S4_S4_S4_S4_S4_S4_S4_S4_S4_S4_S4_S4_S4_S4_EE4typeEv
FN:1246,_ZNK7testing8internal13FlatTupleBaseINS0_9FlatTupleIJSt5tupleIJiiEES4_S4_S4_S4_S4_S4_S4_S4_S4_S4_S4_S4_S4_S4_S4_S4_S4_S4_S4_S4_S4_S4_S4_S4_S4_S4_S4_S4_S4_S4_S4_S4_S4_S4_S4_S4_S4_EEENS0_13IndexSequenceIJLm0ELm1ELm2ELm3ELm4ELm5ELm6ELm7ELm8ELm9ELm10ELm11ELm12ELm13ELm14ELm15ELm16ELm17ELm18ELm19ELm20ELm21ELm22ELm23ELm24ELm25ELm26ELm27ELm28ELm29ELm30ELm31ELm32ELm33ELm34ELm35ELm36ELm37EEEEE3GetILm29EEERKNS0_12ElemFromListIXT_EJS4_S4_S4_S4_S4_S4_S4_S4_S4_S4_S4_S4_S4_S4_S4_S4_S4_S4_S4_S4_S4_S4_S4_S4_S4_S4_S4_S4_S4_S4_S4_S4_S4_S4_S4_S4_S4_S4_EE4typeEv
FNDA:3,_ZNK7testing8internal13FlatTupleBaseINS0_9FlatTupleIJSt5tupleIJiiEES4_S4_S4_S4_S4_S4_S4_S4_S4_S4_S4_S4_S4_S4_S4_S4_S4_S4_S4_S4_S4_S4_S4_S4_S4_S4_S4_S4_S4_S4_S4_S4_S4_S4_S4_S4_S4_EEENS0_13IndexSequenceIJLm0ELm1ELm2ELm3ELm4ELm5ELm6ELm7ELm8ELm9ELm10ELm11ELm12ELm13ELm14ELm15ELm16ELm17ELm18ELm19ELm20ELm21ELm22ELm23ELm24ELm25ELm26ELm27ELm28ELm29ELm30ELm31ELm32ELm33ELm34ELm35ELm36ELm37EEEEE3GetILm29EEERKNS0_12ElemFromListIXT_EJS4_S4_S4_S4_S4_S4_S4_S4_S4_S4_S4_S4_S4_S4_S4_S4_S4_S4_S4_S4_S4_S4_S4_S4_S4_S4_S4_S4_S4_S4_S4_S4_S4_S4_S4_S4_S4_S4_EE4typeEv
FN:1246,_ZNK7testing8internal13FlatTupleBaseINS0_9FlatTupleIJSt5tupleIJiiEES4_S4_S4_S4_S4_S4_S4_S4_S4_S4_S4_S4_S4_S4_S4_S4_S4_S4_S4_S4_S4_S4_S4_S4_S4_S4_S4_S4_S4_S4_S4_S4_S4_S4_S4_S4_S4_EEENS0_13IndexSequenceIJLm0ELm1ELm2ELm3ELm4ELm5ELm6ELm7ELm8ELm9ELm10ELm11ELm12ELm13ELm14ELm15ELm16ELm17ELm18ELm19ELm20ELm21ELm22ELm23ELm24ELm25ELm26ELm27ELm28ELm29ELm30ELm31ELm32ELm33ELm34ELm35ELm36ELm37EEEEE3GetILm37EEERKNS0_12ElemFromListIXT_EJS4_S4_S4_S4_S4_S4_S4_S4_S4_S4_S4_S4_S4_S4_S4_S4_S4_S4_S4_S4_S4_S4_S4_S4_S4_S4_S4_S4_S4_S4_S4_S4_S4_S4_S4_S4_S4_S4_EE4typeEv
FNDA:3,_ZNK7testing8internal13FlatTupleBaseINS0_9FlatTupleIJSt5tupleIJiiEES4_S4_S4_S4_S4_S4_S4_S4_S4_S4_S4_S4_S4_S4_S4_S4_S4_S4_S4_S4_S4_S4_S4_S4_S4_S4_S4_S4_S4_S4_S4_S4_S4_S4_S4_S4_S4_EEENS0_13IndexSequenceIJLm0ELm1ELm2ELm3ELm4ELm5ELm6ELm7ELm8ELm9ELm10ELm11ELm12ELm13ELm14ELm15ELm16ELm17ELm18ELm19ELm20ELm21ELm22ELm23ELm24ELm25ELm26ELm27ELm28ELm29ELm30ELm31ELm32ELm33ELm34ELm35ELm36ELm37EEEEE3GetILm37EEERKNS0_12ElemFromListIXT_EJS4_S4_S4_S4_S4_S4_S4_S4_S4_S4_S4_S4_S4_S4_S4_S4_S4_S4_S4_S4_S4_S4_S4_S4_S4_S4_S4_S4_S4_S4_S4_S4_S4_S4_S4_S4_S4_S4_EE4typeEv
FN:1246,_ZNK7testing8internal13FlatTupleBaseINS0_9FlatTupleIJSt5tupleIJiiEES4_S4_S4_S4_S4_S4_S4_S4_S4_S4_S4_S4_S4_S4_S4_S4_S4_S4_S4_S4_S4_S4_S4_S4_S4_S4_S4_S4_S4_S4_S4_S4_S4_S4_S4_S4_S4_EEENS0_13IndexSequenceIJLm0ELm1ELm2ELm3ELm4ELm5ELm6ELm7ELm8ELm9ELm10ELm11ELm12ELm13ELm14ELm15ELm16ELm17ELm18ELm19ELm20ELm21ELm22ELm23ELm24ELm25ELm26ELm27ELm28ELm29ELm30ELm31ELm32ELm33ELm34ELm35ELm36ELm37EEEEE3GetILm36EEERKNS0_12ElemFromListIXT_EJS4_S4_S4_S4_S4_S4_S4_S4_S4_S4_S4_S4_S4_S4_S4_S4_S4_S4_S4_S4_S4_S4_S4_S4_S4_S4_S4_S4_S4_S4_S4_S4_S4_S4_S4_S4_S4_S4_EE4typeEv
FNDA:3,_ZNK7testing8internal13FlatTupleBaseINS0_9FlatTupleIJSt5tupleIJiiEES4_S4_S4_S4_S4_S4_S4_S4_S4_S4_S4_S4_S4_S4_S4_S4_S4_S4_S4_S4_S4_S4_S4_S4_S4_S4_S4_S4_S4_S4_S4_S4_S4_S4_S4_S4_S4_EEENS0_13IndexSequenceIJLm0ELm1ELm2ELm3ELm4ELm5ELm6ELm7ELm8ELm9ELm10ELm11ELm12ELm13ELm14ELm15ELm16ELm17ELm18ELm19ELm20ELm21ELm22ELm23ELm24ELm25ELm26ELm27ELm28ELm29ELm30ELm31ELm32ELm33ELm34ELm35ELm36ELm37EEEEE3GetILm36EEERKNS0_12ElemFromListIXT_EJS4_S4_S4_S4_S4_S4_S4_S4_S4_S4_S4_S4_S4_S4_S4_S4_S4_S4_S4_S4_S4_S4_S4_S4_S4_S4_S4_S4_S4_S4_S4_S4_S4_S4_S4_S4_S4_S4_EE4typeEv
FN:1246,_ZNK7testing8internal13FlatTupleBaseINS0_9FlatTupleIJSt5tupleIJiiEES4_S4_S4_S4_S4_S4_S4_S4_S4_S4_S4_S4_S4_S4_S4_S4_S4_S4_S4_S4_S4_S4_S4_S4_S4_S4_S4_S4_S4_S4_S4_S4_S4_S4_S4_S4_S4_EEENS0_13IndexSequenceIJLm0ELm1ELm2ELm3ELm4ELm5ELm6ELm7ELm8ELm9ELm10ELm11ELm12ELm13ELm14ELm15ELm16ELm17ELm18ELm19ELm20ELm21ELm22ELm23ELm24ELm25ELm26ELm27ELm28ELm29ELm30ELm31ELm32ELm33ELm34ELm35ELm36ELm37EEEEE3GetILm35EEERKNS0_12ElemFromListIXT_EJS4_S4_S4_S4_S4_S4_S4_S4_S4_S4_S4_S4_S4_S4_S4_S4_S4_S4_S4_S4_S4_S4_S4_S4_S4_S4_S4_S4_S4_S4_S4_S4_S4_S4_S4_S4_S4_S4_EE4typeEv
FNDA:3,_ZNK7testing8internal13FlatTupleBaseINS0_9FlatTupleIJSt5tupleIJiiEES4_S4_S4_S4_S4_S4_S4_S4_S4_S4_S4_S4_S4_S4_S4_S4_S4_S4_S4_S4_S4_S4_S4_S4_S4_S4_S4_S4_S4_S4_S4_S4_S4_S4_S4_S4_S4_EEENS0_13IndexSequenceIJLm0ELm1ELm2ELm3ELm4ELm5ELm6ELm7ELm8ELm9ELm10ELm11ELm12ELm13ELm14ELm15ELm16ELm17ELm18ELm19ELm20ELm21ELm22ELm23ELm24ELm25ELm26ELm27ELm28ELm29ELm30ELm31ELm32ELm33ELm34ELm35ELm36ELm37EEEEE3GetILm35EEERKNS0_12ElemFromListIXT_EJS4_S4_S4_S4_S4_S4_S4_S4_S4_S4_S4_S4_S4_S4_S4_S4_S4_S4_S4_S4_S4_S4_S4_S4_S4_S4_S4_S4_S4_S4_S4_S4_S4_S4_S4_S4_S4_S4_EE4typeEv
FN:1246,_ZNK7testing8internal13FlatTupleBaseINS0_9FlatTupleIJSt5tupleIJiiEES4_S4_S4_S4_S4_S4_S4_S4_S4_S4_S4_S4_S4_S4_S4_S4_S4_S4_S4_S4_S4_S4_S4_S4_S4_S4_S4_S4_S4_S4_S4_S4_S4_S4_S4_S4_S4_EEENS0_13IndexSequenceIJLm0ELm1ELm2ELm3ELm4ELm5ELm6ELm7ELm8ELm9ELm10ELm11ELm12ELm13ELm14ELm15ELm16ELm17ELm18ELm19ELm20ELm21ELm22ELm23ELm24ELm25ELm26ELm27ELm28ELm29ELm30ELm31ELm32ELm33ELm34ELm35ELm36ELm37EEEEE3GetILm34EEERKNS0_12ElemFromListIXT_EJS4_S4_S4_S4_S4_S4_S4_S4_S4_S4_S4_S4_S4_S4_S4_S4_S4_S4_S4_S4_S4_S4_S4_S4_S4_S4_S4_S4_S4_S4_S4_S4_S4_S4_S4_S4_S4_S4_EE4typeEv
FNDA:3,_ZNK7testing8internal13FlatTupleBaseINS0_9FlatTupleIJSt5tupleIJiiEES4_S4_S4_S4_S4_S4_S4_S4_S4_S4_S4_S4_S4_S4_S4_S4_S4_S4_S4_S4_S4_S4_S4_S4_S4_S4_S4_S4_S4_S4_S4_S4_S4_S4_S4_S4_S4_EEENS0_13IndexSequenceIJLm0ELm1ELm2ELm3ELm4ELm5ELm6ELm7ELm8ELm9ELm10ELm11ELm12ELm13ELm14ELm15ELm16ELm17ELm18ELm19ELm20ELm21ELm22ELm23ELm24ELm25ELm26ELm27ELm28ELm29ELm30ELm31ELm32ELm33ELm34ELm35ELm36ELm37EEEEE3GetILm34EEERKNS0_12ElemFromListIXT_EJS4_S4_S4_S4_S4_S4_S4_S4_S4_S4_S4_S4_S4_S4_S4_S4_S4_S4_S4_S4_S4_S4_S4_S4_S4_S4_S4_S4_S4_S4_S4_S4_S4_S4_S4_S4_S4_S4_EE4typeEv
FN:1246,_ZNK7testing8internal13FlatTupleBaseINS0_9FlatTupleIJSt5tupleIJiiEES4_S4_S4_S4_S4_S4_S4_S4_S4_S4_S4_S4_S4_S4_S4_S4_S4_S4_S4_S4_S4_S4_S4_S4_S4_S4_S4_S4_S4_S4_S4_S4_S4_S4_S4_S4_S4_EEENS0_13IndexSequenceIJLm0ELm1ELm2ELm3ELm4ELm5ELm6ELm7ELm8ELm9ELm10ELm11ELm12ELm13ELm14ELm15ELm16ELm17ELm18ELm19ELm20ELm21ELm22ELm23ELm24ELm25ELm26ELm27ELm28ELm29ELm30ELm31ELm32ELm33ELm34ELm35ELm36ELm37EEEEE3GetILm33EEERKNS0_12ElemFromListIXT_EJS4_S4_S4_S4_S4_S4_S4_S4_S4_S4_S4_S4_S4_S4_S4_S4_S4_S4_S4_S4_S4_S4_S4_S4_S4_S4_S4_S4_S4_S4_S4_S4_S4_S4_S4_S4_S4_S4_EE4typeEv
FNDA:3,_ZNK7testing8internal13FlatTupleBaseINS0_9FlatTupleIJSt5tupleIJiiEES4_S4_S4_S4_S4_S4_S4_S4_S4_S4_S4_S4_S4_S4_S4_S4_S4_S4_S4_S4_S4_S4_S4_S4_S4_S4_S4_S4_S4_S4_S4_S4_S4_S4_S4_S4_S4_EEENS0_13IndexSequenceIJLm0ELm1ELm2ELm3ELm4ELm5ELm6ELm7ELm8ELm9ELm10ELm11ELm12ELm13ELm14ELm15ELm16ELm17ELm18ELm19ELm20ELm21ELm22ELm23ELm24ELm25ELm26ELm27ELm28ELm29ELm30ELm31ELm32ELm33ELm34ELm35ELm36ELm37EEEEE3GetILm33EEERKNS0_12ElemFromListIXT_EJS4_S4_S4_S4_S4_S4_S4_S4_S4_S4_S4_S4_S4_S4_S4_S4_S4_S4_S4_S4_S4_S4_S4_S4_S4_S4_S4_S4_S4_S4_S4_S4_S4_S4_S4_S4_S4_S4_EE4typeEv
FN:1246,_ZNK7testing8internal13FlatTupleBaseINS0_9FlatTupleIJSt5tupleIJiiEES4_S4_S4_S4_S4_S4_S4_S4_S4_S4_S4_S4_S4_S4_S4_S4_S4_S4_S4_S4_S4_S4_S4_S4_S4_S4_S4_S4_S4_S4_S4_S4_S4_S4_S4_S4_S4_EEENS0_13IndexSequenceIJLm0ELm1ELm2ELm3ELm4ELm5ELm6ELm7ELm8ELm9ELm10ELm11ELm12ELm13ELm14ELm15ELm16ELm17ELm18ELm19ELm20ELm21ELm22ELm23ELm24ELm25ELm26ELm27ELm28ELm29ELm30ELm31ELm32ELm33ELm34ELm35ELm36ELm37EEEEE3GetILm32EEERKNS0_12ElemFromListIXT_EJS4_S4_S4_S4_S4_S4_S4_S4_S4_S4_S4_S4_S4_S4_S4_S4_S4_S4_S4_S4_S4_S4_S4_S4_S4_S4_S4_S4_S4_S4_S4_S4_S4_S4_S4_S4_S4_S4_EE4typeEv
FNDA:3,_ZNK7testing8internal13FlatTupleBaseINS0_9FlatTupleIJSt5tupleIJiiEES4_S4_S4_S4_S4_S4_S4_S4_S4_S4_S4_S4_S4_S4_S4_S4_S4_S4_S4_S4_S4_S4_S4_S4_S4_S4_S4_S4_S4_S4_S4_S4_S4_S4_S4_S4_S4_EEENS0_13IndexSequenceIJLm0ELm1ELm2ELm3ELm4ELm5ELm6ELm7ELm8ELm9ELm10ELm11ELm12ELm13ELm14ELm15ELm16ELm17ELm18ELm19ELm20ELm21ELm22ELm23ELm24ELm25ELm26ELm27ELm28ELm29ELm30ELm31ELm32ELm33ELm34ELm35ELm36ELm37EEEEE3GetILm32EEERKNS0_12ElemFromListIXT_EJS4_S4_S4_S4_S4_S4_S4_S4_S4_S4_S4_S4_S4_S4_S4_S4_S4_S4_S4_S4_S4_S4_S4_S4_S4_S4_S4_S4_S4_S4_S4_S4_S4_S4_S4_S4_S4_S4_EE4typeEv
FN:1246,_ZNK7testing8internal13FlatTupleBaseINS0_9FlatTupleIJSt5tupleIJiiEES4_S4_S4_S4_S4_S4_S4_S4_S4_S4_S4_S4_S4_S4_S4_S4_S4_S4_S4_S4_S4_S4_S4_S4_S4_S4_S4_S4_S4_S4_S4_S4_S4_S4_S4_S4_S4_EEENS0_13IndexSequenceIJLm0ELm1ELm2ELm3ELm4ELm5ELm6ELm7ELm8ELm9ELm10ELm11ELm12ELm13ELm14ELm15ELm16ELm17ELm18ELm19ELm20ELm21ELm22ELm23ELm24ELm25ELm26ELm27ELm28ELm29ELm30ELm31ELm32ELm33ELm34ELm35ELm36ELm37EEEEE3GetILm31EEERKNS0_12ElemFromListIXT_EJS4_S4_S4_S4_S4_S4_S4_S4_S4_S4_S4_S4_S4_S4_S4_S4_S4_S4_S4_S4_S4_S4_S4_S4_S4_S4_S4_S4_S4_S4_S4_S4_S4_S4_S4_S4_S4_S4_EE4typeEv
FNDA:3,_ZNK7testing8internal13FlatTupleBaseINS0_9FlatTupleIJSt5tupleIJiiEES4_S4_S4_S4_S4_S4_S4_S4_S4_S4_S4_S4_S4_S4_S4_S4_S4_S4_S4_S4_S4_S4_S4_S4_S4_S4_S4_S4_S4_S4_S4_S4_S4_S4_S4_S4_S4_EEENS0_13IndexSequenceIJLm0ELm1ELm2ELm3ELm4ELm5ELm6ELm7ELm8ELm9ELm10ELm11ELm12ELm13ELm14ELm15ELm16ELm17ELm18ELm19ELm20ELm21ELm22ELm23ELm24ELm25ELm26ELm27ELm28ELm29ELm30ELm31ELm32ELm33ELm34ELm35ELm36ELm37EEEEE3GetILm31EEERKNS0_12ElemFromListIXT_EJS4_S4_S4_S4_S4_S4_S4_S4_S4_S4_S4_S4_S4_S4_S4_S4_S4_S4_S4_S4_S4_S4_S4_S4_S4_S4_S4_S4_S4_S4_S4_S4_S4_S4_S4_S4_S4_S4_EE4typeEv
FN:1246,_ZNK7testing8internal13FlatTupleBaseINS0_9FlatTupleIJSt5tupleIJiiEES4_S4_S4_S4_S4_S4_S4_S4_S4_S4_S4_S4_S4_S4_S4_S4_S4_S4_S4_S4_S4_S4_S4_S4_S4_S4_S4_S4_S4_S4_S4_S4_S4_S4_S4_S4_S4_EEENS0_13IndexSequenceIJLm0ELm1ELm2ELm3ELm4ELm5ELm6ELm7ELm8ELm9ELm10ELm11ELm12ELm13ELm14ELm15ELm16ELm17ELm18ELm19ELm20ELm21ELm22ELm23ELm24ELm25ELm26ELm27ELm28ELm29ELm30ELm31ELm32ELm33ELm34ELm35ELm36ELm37EEEEE3GetILm30EEERKNS0_12ElemFromListIXT_EJS4_S4_S4_S4_S4_S4_S4_S4_S4_S4_S4_S4_S4_S4_S4_S4_S4_S4_S4_S4_S4_S4_S4_S4_S4_S4_S4_S4_S4_S4_S4_S4_S4_S4_S4_S4_S4_S4_EE4typeEv
FNDA:3,_ZNK7testing8internal13FlatTupleBaseINS0_9FlatTupleIJSt5tupleIJiiEES4_S4_S4_S4_S4_S4_S4_S4_S4_S4_S4_S4_S4_S4_S4_S4_S4_S4_S4_S4_S4_S4_S4_S4_S4_S4_S4_S4_S4_S4_S4_S4_S4_S4_S4_S4_S4_EEENS0_13IndexSequenceIJLm0ELm1ELm2ELm3ELm4ELm5ELm6ELm7ELm8ELm9ELm10ELm11ELm12ELm13ELm14ELm15ELm16ELm17ELm18ELm19ELm20ELm21ELm22ELm23ELm24ELm25ELm26ELm27ELm28ELm29ELm30ELm31ELm32ELm33ELm34ELm35ELm36ELm37EEEEE3GetILm30EEERKNS0_12ElemFromListIXT_EJS4_S4_S4_S4_S4_S4_S4_S4_S4_S4_S4_S4_S4_S4_S4_S4_S4_S4_S4_S4_S4_S4_S4_S4_S4_S4_S4_S4_S4_S4_S4_S4_S4_S4_S4_S4_S4_S4_EE4typeEv
FN:1246,_ZNK7testing8internal13FlatTupleBaseINS0_9FlatTupleIJSt5tupleIJiiiEES4_S4_S4_S4_S4_S4_S4_S4_S4_S4_S4_S4_S4_S4_S4_S4_S4_S4_S4_S4_S4_S4_S4_S4_S4_S4_S4_S4_S4_S4_S4_S4_S4_S4_S4_S4_S4_EEENS0_13IndexSequenceIJLm0ELm1ELm2ELm3ELm4ELm5ELm6ELm7ELm8ELm9ELm10ELm11ELm12ELm13ELm14ELm15ELm16ELm17ELm18ELm19ELm20ELm21ELm22ELm23ELm24ELm25ELm26ELm27ELm28ELm29ELm30ELm31ELm32ELm33ELm34ELm35ELm36ELm37EEEEE3GetILm6EEERKNS0_12ElemFromListIXT_EJS4_S4_S4_S4_S4_S4_S4_S4_S4_S4_S4_S4_S4_S4_S4_S4_S4_S4_S4_S4_S4_S4_S4_S4_S4_S4_S4_S4_S4_S4_S4_S4_S4_S4_S4_S4_S4_S4_EE4typeEv
FNDA:9,_ZNK7testing8internal13FlatTupleBaseINS0_9FlatTupleIJSt5tupleIJiiiEES4_S4_S4_S4_S4_S4_S4_S4_S4_S4_S4_S4_S4_S4_S4_S4_S4_S4_S4_S4_S4_S4_S4_S4_S4_S4_S4_S4_S4_S4_S4_S4_S4_S4_S4_S4_S4_EEENS0_13IndexSequenceIJLm0ELm1ELm2ELm3ELm4ELm5ELm6ELm7ELm8ELm9ELm10ELm11ELm12ELm13ELm14ELm15ELm16ELm17ELm18ELm19ELm20ELm21ELm22ELm23ELm24ELm25ELm26ELm27ELm28ELm29ELm30ELm31ELm32ELm33ELm34ELm35ELm36ELm37EEEEE3GetILm6EEERKNS0_12ElemFromListIXT_EJS4_S4_S4_S4_S4_S4_S4_S4_S4_S4_S4_S4_S4_S4_S4_S4_S4_S4_S4_S4_S4_S4_S4_S4_S4_S4_S4_S4_S4_S4_S4_S4_S4_S4_S4_S4_S4_S4_EE4typeEv
FN:1246,_ZNK7testing8internal13FlatTupleBaseINS0_9FlatTupleIJSt5tupleIJiiEES4_EEENS0_13IndexSequenceIJLm0ELm1EEEEE3GetILm0EEERKNS0_12ElemFromListIXT_EJS4_S4_EE4typeEv
FNDA:6,_ZNK7testing8internal13FlatTupleBaseINS0_9FlatTupleIJSt5tupleIJiiEES4_EEENS0_13IndexSequenceIJLm0ELm1EEEEE3GetILm0EEERKNS0_12ElemFromListIXT_EJS4_S4_EE4typeEv
FN:1246,_ZNK7testing8internal13FlatTupleBaseINS0_9FlatTupleIJSt5tupleIJiiEES4_EEENS0_13IndexSequenceIJLm0ELm1EEEEE3GetILm1EEERKNS0_12ElemFromListIXT_EJS4_S4_EE4typeEv
FNDA:6,_ZNK7testing8internal13FlatTupleBaseINS0_9FlatTupleIJSt5tupleIJiiEES4_EEENS0_13IndexSequenceIJLm0ELm1EEEEE3GetILm1EEERKNS0_12ElemFromListIXT_EJS4_S4_EE4typeEv
FN:1246,_ZNK7testing8internal13FlatTupleBaseINS0_9FlatTupleIJSt5tupleIJiiiEES4_S4_S4_S4_S4_S4_S4_S4_S4_S4_S4_S4_S4_S4_S4_S4_S4_S4_S4_S4_S4_S4_S4_S4_S4_S4_S4_S4_S4_S4_S4_S4_S4_S4_S4_S4_S4_EEENS0_13IndexSequenceIJLm0ELm1ELm2ELm3ELm4ELm5ELm6ELm7ELm8ELm9ELm10ELm11ELm12ELm13ELm14ELm15ELm16ELm17ELm18ELm19ELm20ELm21ELm22ELm23ELm24ELm25ELm26ELm27ELm28ELm29ELm30ELm31ELm32ELm33ELm34ELm35ELm36ELm37EEEEE3GetILm0EEERKNS0_12ElemFromListIXT_EJS4_S4_S4_S4_S4_S4_S4_S4_S4_S4_S4_S4_S4_S4_S4_S4_S4_S4_S4_S4_S4_S4_S4_S4_S4_S4_S4_S4_S4_S4_S4_S4_S4_S4_S4_S4_S4_S4_EE4typeEv
FNDA:9,_ZNK7testing8internal13FlatTupleBaseINS0_9FlatTupleIJSt5tupleIJiiiEES4_S4_S4_S4_S4_S4_S4_S4_S4_S4_S4_S4_S4_S4_S4_S4_S4_S4_S4_S4_S4_S4_S4_S4_S4_S4_S4_S4_S4_S4_S4_S4_S4_S4_S4_S4_S4_EEENS0_13IndexSequenceIJLm0ELm1ELm2ELm3ELm4ELm5ELm6ELm7ELm8ELm9ELm10ELm11ELm12ELm13ELm14ELm15ELm16ELm17ELm18ELm19ELm20ELm21ELm22ELm23ELm24ELm25ELm26ELm27ELm28ELm29ELm30ELm31ELm32ELm33ELm34ELm35ELm36ELm37EEEEE3GetILm0EEERKNS0_12ElemFromListIXT_EJS4_S4_S4_S4_S4_S4_S4_S4_S4_S4_S4_S4_S4_S4_S4_S4_S4_S4_S4_S4_S4_S4_S4_S4_S4_S4_S4_S4_S4_S4_S4_S4_S4_S4_S4_S4_S4_S4_EE4typeEv
FN:1246,_ZNK7testing8internal13FlatTupleBaseINS0_9FlatTupleIJSt5tupleIJiiiEES4_S4_S4_S4_S4_S4_S4_S4_S4_S4_S4_S4_S4_S4_S4_S4_S4_S4_S4_S4_S4_S4_S4_S4_S4_S4_S4_S4_S4_S4_S4_S4_S4_S4_S4_S4_S4_EEENS0_13IndexSequenceIJLm0ELm1ELm2ELm3ELm4ELm5ELm6ELm7ELm8ELm9ELm10ELm11ELm12ELm13ELm14ELm15ELm16ELm17ELm18ELm19ELm20ELm21ELm22ELm23ELm24ELm25ELm26ELm27ELm28ELm29ELm30ELm31ELm32ELm33ELm34ELm35ELm36ELm37EEEEE3GetILm1EEERKNS0_12ElemFromListIXT_EJS4_S4_S4_S4_S4_S4_S4_S4_S4_S4_S4_S4_S4_S4_S4_S4_S4_S4_S4_S4_S4_S4_S4_S4_S4_S4_S4_S4_S4_S4_S4_S4_S4_S4_S4_S4_S4_S4_EE4typeEv
FNDA:9,_ZNK7testing8internal13FlatTupleBaseINS0_9FlatTupleIJSt5tupleIJiiiEES4_S4_S4_S4_S4_S4_S4_S4_S4_S4_S4_S4_S4_S4_S4_S4_S4_S4_S4_S4_S4_S4_S4_S4_S4_S4_S4_S4_S4_S4_S4_S4_S4_S4_S4_S4_S4_EEENS0_13IndexSequenceIJLm0ELm1ELm2ELm3ELm4ELm5ELm6ELm7ELm8ELm9ELm10ELm11ELm12ELm13ELm14ELm15ELm16ELm17ELm18ELm19ELm20ELm21ELm22ELm23ELm24ELm25ELm26ELm27ELm28ELm29ELm30ELm31ELm32ELm33ELm34ELm35ELm36ELm37EEEEE3GetILm1EEERKNS0_12ElemFromListIXT_EJS4_S4_S4_S4_S4_S4_S4_S4_S4_S4_S4_S4_S4_S4_S4_S4_S4_S4_S4_S4_S4_S4_S4_S4_S4_S4_S4_S4_S4_S4_S4_S4_S4_S4_S4_S4_S4_S4_EE4typeEv
FN:1246,_ZNK7testing8internal13FlatTupleBaseINS0_9FlatTupleIJSt5tupleIJiiiEES4_S4_S4_S4_S4_S4_S4_S4_S4_S4_S4_S4_S4_S4_S4_S4_S4_S4_S4_S4_S4_S4_S4_S4_S4_S4_S4_S4_S4_S4_S4_S4_S4_S4_S4_S4_S4_EEENS0_13IndexSequenceIJLm0ELm1ELm2ELm3ELm4ELm5ELm6ELm7ELm8ELm9ELm10ELm11ELm12ELm13ELm14ELm15ELm16ELm17ELm18ELm19ELm20ELm21ELm22ELm23ELm24ELm25ELm26ELm27ELm28ELm29ELm30ELm31ELm32ELm33ELm34ELm35ELm36ELm37EEEEE3GetILm2EEERKNS0_12ElemFromListIXT_EJS4_S4_S4_S4_S4_S4_S4_S4_S4_S4_S4_S4_S4_S4_S4_S4_S4_S4_S4_S4_S4_S4_S4_S4_S4_S4_S4_S4_S4_S4_S4_S4_S4_S4_S4_S4_S4_S4_EE4typeEv
FNDA:9,_ZNK7testing8internal13FlatTupleBaseINS0_9FlatTupleIJSt5tupleIJiiiEES4_S4_S4_S4_S4_S4_S4_S4_S4_S4_S4_S4_S4_S4_S4_S4_S4_S4_S4_S4_S4_S4_S4_S4_S4_S4_S4_S4_S4_S4_S4_S4_S4_S4_S4_S4_S4_EEENS0_13IndexSequenceIJLm0ELm1ELm2ELm3ELm4ELm5ELm6ELm7ELm8ELm9ELm10ELm11ELm12ELm13ELm14ELm15ELm16ELm17ELm18ELm19ELm20ELm21ELm22ELm23ELm24ELm25ELm26ELm27ELm28ELm29ELm30ELm31ELm32ELm33ELm34ELm35ELm36ELm37EEEEE3GetILm2EEERKNS0_12ElemFromListIXT_EJS4_S4_S4_S4_S4_S4_S4_S4_S4_S4_S4_S4_S4_S4_S4_S4_S4_S4_S4_S4_S4_S4_S4_S4_S4_S4_S4_S4_S4_S4_S4_S4_S4_S4_S4_S4_S4_S4_EE4typeEv
FN:1246,_ZNK7testing8internal13FlatTupleBaseINS0_9FlatTupleIJSt5tupleIJiiiEES4_S4_S4_S4_S4_S4_S4_S4_S4_S4_S4_S4_S4_S4_S4_S4_S4_S4_S4_S4_S4_S4_S4_S4_S4_S4_S4_S4_S4_S4_S4_S4_S4_S4_S4_S4_S4_EEENS0_13IndexSequenceIJLm0ELm1ELm2ELm3ELm4ELm5ELm6ELm7ELm8ELm9ELm10ELm11ELm12ELm13ELm14ELm15ELm16ELm17ELm18ELm19ELm20ELm21ELm22ELm23ELm24ELm25ELm26ELm27ELm28ELm29ELm30ELm31ELm32ELm33ELm34ELm35ELm36ELm37EEEEE3GetILm3EEERKNS0_12ElemFromListIXT_EJS4_S4_S4_S4_S4_S4_S4_S4_S4_S4_S4_S4_S4_S4_S4_S4_S4_S4_S4_S4_S4_S4_S4_S4_S4_S4_S4_S4_S4_S4_S4_S4_S4_S4_S4_S4_S4_S4_EE4typeEv
FNDA:9,_ZNK7testing8internal13FlatTupleBaseINS0_9FlatTupleIJSt5tupleIJiiiEES4_S4_S4_S4_S4_S4_S4_S4_S4_S4_S4_S4_S4_S4_S4_S4_S4_S4_S4_S4_S4_S4_S4_S4_S4_S4_S4_S4_S4_S4_S4_S4_S4_S4_S4_S4_S4_EEENS0_13IndexSequenceIJLm0ELm1ELm2ELm3ELm4ELm5ELm6ELm7ELm8ELm9ELm10ELm11ELm12ELm13ELm14ELm15ELm16ELm17ELm18ELm19ELm20ELm21ELm22ELm23ELm24ELm25ELm26ELm27ELm28ELm29ELm30ELm31ELm32ELm33ELm34ELm35ELm36ELm37EEEEE3GetILm3EEERKNS0_12ElemFromListIXT_EJS4_S4_S4_S4_S4_S4_S4_S4_S4_S4_S4_S4_S4_S4_S4_S4_S4_S4_S4_S4_S4_S4_S4_S4_S4_S4_S4_S4_S4_S4_S4_S4_S4_S4_S4_S4_S4_S4_EE4typeEv
FN:1246,_ZNK7testing8internal13FlatTupleBaseINS0_9FlatTupleIJSt5tupleIJiiiEES4_S4_S4_S4_S4_S4_S4_S4_S4_S4_S4_S4_S4_S4_S4_S4_S4_S4_S4_S4_S4_S4_S4_S4_S4_S4_S4_S4_S4_S4_S4_S4_S4_S4_S4_S4_S4_EEENS0_13IndexSequenceIJLm0ELm1ELm2ELm3ELm4ELm5ELm6ELm7ELm8ELm9ELm10ELm11ELm12ELm13ELm14ELm15ELm16ELm17ELm18ELm19ELm20ELm21ELm22ELm23ELm24ELm25ELm26ELm27ELm28ELm29ELm30ELm31ELm32ELm33ELm34ELm35ELm36ELm37EEEEE3GetILm4EEERKNS0_12ElemFromListIXT_EJS4_S4_S4_S4_S4_S4_S4_S4_S4_S4_S4_S4_S4_S4_S4_S4_S4_S4_S4_S4_S4_S4_S4_S4_S4_S4_S4_S4_S4_S4_S4_S4_S4_S4_S4_S4_S4_S4_EE4typeEv
FNDA:9,_ZNK7testing8internal13FlatTupleBaseINS0_9FlatTupleIJSt5tupleIJiiiEES4_S4_S4_S4_S4_S4_S4_S4_S4_S4_S4_S4_S4_S4_S4_S4_S4_S4_S4_S4_S4_S4_S4_S4_S4_S4_S4_S4_S4_S4_S4_S4_S4_S4_S4_S4_S4_EEENS0_13IndexSequenceIJLm0ELm1ELm2ELm3ELm4ELm5ELm6ELm7ELm8ELm9ELm10ELm11ELm12ELm13ELm14ELm15ELm16ELm17ELm18ELm19ELm20ELm21ELm22ELm23ELm24ELm25ELm26ELm27ELm28ELm29ELm30ELm31ELm32ELm33ELm34ELm35ELm36ELm37EEEEE3GetILm4EEERKNS0_12ElemFromListIXT_EJS4_S4_S4_S4_S4_S4_S4_S4_S4_S4_S4_S4_S4_S4_S4_S4_S4_S4_S4_S4_S4_S4_S4_S4_S4_S4_S4_S4_S4_S4_S4_S4_S4_S4_S4_S4_S4_S4_EE4typeEv
FN:1246,_ZNK7testing8internal13FlatTupleBaseINS0_9FlatTupleIJSt5tupleIJiiiEES4_S4_S4_S4_S4_S4_S4_S4_S4_S4_S4_S4_S4_S4_S4_S4_S4_S4_S4_S4_S4_S4_S4_S4_S4_S4_S4_S4_S4_S4_S4_S4_S4_S4_S4_S4_S4_EEENS0_13IndexSequenceIJLm0ELm1ELm2ELm3ELm4ELm5ELm6ELm7ELm8ELm9ELm10ELm11ELm12ELm13ELm14ELm15ELm16ELm17ELm18ELm19ELm20ELm21ELm22ELm23ELm24ELm25ELm26ELm27ELm28ELm29ELm30ELm31ELm32ELm33ELm34ELm35ELm36ELm37EEEEE3GetILm5EEERKNS0_12ElemFromListIXT_EJS4_S4_S4_S4_S4_S4_S4_S4_S4_S4_S4_S4_S4_S4_S4_S4_S4_S4_S4_S4_S4_S4_S4_S4_S4_S4_S4_S4_S4_S4_S4_S4_S4_S4_S4_S4_S4_S4_EE4typeEv
FNDA:9,_ZNK7testing8internal13FlatTupleBaseINS0_9FlatTupleIJSt5tupleIJiiiEES4_S4_S4_S4_S4_S4_S4_S4_S4_S4_S4_S4_S4_S4_S4_S4_S4_S4_S4_S4_S4_S4_S4_S4_S4_S4_S4_S4_S4_S4_S4_S4_S4_S4_S4_S4_S4_EEENS0_13IndexSequenceIJLm0ELm1ELm2ELm3ELm4ELm5ELm6ELm7ELm8ELm9ELm10ELm11ELm12ELm13ELm14ELm15ELm16ELm17ELm18ELm19ELm20ELm21ELm22ELm23ELm24ELm25ELm26ELm27ELm28ELm29ELm30ELm31ELm32ELm33ELm34ELm35ELm36ELm37EEEEE3GetILm5EEERKNS0_12ElemFromListIXT_EJS4_S4_S4_S4_S4_S4_S4_S4_S4_S4_S4_S4_S4_S4_S4_S4_S4_S4_S4_S4_S4_S4_S4_S4_S4_S4_S4_S4_S4_S4_S4_S4_S4_S4_S4_S4_S4_S4_EE4typeEv
FN:1246,_ZNK7testing8internal13FlatTupleBaseINS0_9FlatTupleIJSt5tupleIJiiEES4_S4_S4_S4_S4_S4_S4_S4_S4_S4_S4_S4_S4_S4_S4_S4_S4_S4_S4_S4_S4_S4_S4_S4_S4_S4_S4_S4_S4_S4_S4_S4_S4_S4_S4_S4_S4_EEENS0_13IndexSequenceIJLm0ELm1ELm2ELm3ELm4ELm5ELm6ELm7ELm8ELm9ELm10ELm11ELm12ELm13ELm14ELm15ELm16ELm17ELm18ELm19ELm20ELm21ELm22ELm23ELm24ELm25ELm26ELm27ELm28ELm29ELm30ELm31ELm32ELm33ELm34ELm35ELm36ELm37EEEEE3GetILm17EEERKNS0_12ElemFromListIXT_EJS4_S4_S4_S4_S4_S4_S4_S4_S4_S4_S4_S4_S4_S4_S4_S4_S4_S4_S4_S4_S4_S4_S4_S4_S4_S4_S4_S4_S4_S4_S4_S4_S4_S4_S4_S4_S4_S4_EE4typeEv
FNDA:3,_ZNK7testing8internal13FlatTupleBaseINS0_9FlatTupleIJSt5tupleIJiiEES4_S4_S4_S4_S4_S4_S4_S4_S4_S4_S4_S4_S4_S4_S4_S4_S4_S4_S4_S4_S4_S4_S4_S4_S4_S4_S4_S4_S4_S4_S4_S4_S4_S4_S4_S4_S4_EEENS0_13IndexSequenceIJLm0ELm1ELm2ELm3ELm4ELm5ELm6ELm7ELm8ELm9ELm10ELm11ELm12ELm13ELm14ELm15ELm16ELm17ELm18ELm19ELm20ELm21ELm22ELm23ELm24ELm25ELm26ELm27ELm28ELm29ELm30ELm31ELm32ELm33ELm34ELm35ELm36ELm37EEEEE3GetILm17EEERKNS0_12ElemFromListIXT_EJS4_S4_S4_S4_S4_S4_S4_S4_S4_S4_S4_S4_S4_S4_S4_S4_S4_S4_S4_S4_S4_S4_S4_S4_S4_S4_S4_S4_S4_S4_S4_S4_S4_S4_S4_S4_S4_S4_EE4typeEv
FN:1246,_ZNK7testing8internal13FlatTupleBaseINS0_9FlatTupleIJSt5tupleIJiiiEES4_S4_S4_S4_S4_S4_S4_S4_S4_S4_S4_S4_S4_S4_S4_S4_S4_S4_S4_S4_S4_S4_S4_S4_S4_S4_S4_S4_S4_S4_S4_S4_S4_S4_S4_S4_S4_EEENS0_13IndexSequenceIJLm0ELm1ELm2ELm3ELm4ELm5ELm6ELm7ELm8ELm9ELm10ELm11ELm12ELm13ELm14ELm15ELm16ELm17ELm18ELm19ELm20ELm21ELm22ELm23ELm24ELm25ELm26ELm27ELm28ELm29ELm30ELm31ELm32ELm33ELm34ELm35ELm36ELm37EEEEE3GetILm24EEERKNS0_12ElemFromListIXT_EJS4_S4_S4_S4_S4_S4_S4_S4_S4_S4_S4_S4_S4_S4_S4_S4_S4_S4_S4_S4_S4_S4_S4_S4_S4_S4_S4_S4_S4_S4_S4_S4_S4_S4_S4_S4_S4_S4_EE4typeEv
FNDA:9,_ZNK7testing8internal13FlatTupleBaseINS0_9FlatTupleIJSt5tupleIJiiiEES4_S4_S4_S4_S4_S4_S4_S4_S4_S4_S4_S4_S4_S4_S4_S4_S4_S4_S4_S4_S4_S4_S4_S4_S4_S4_S4_S4_S4_S4_S4_S4_S4_S4_S4_S4_S4_EEENS0_13IndexSequenceIJLm0ELm1ELm2ELm3ELm4ELm5ELm6ELm7ELm8ELm9ELm10ELm11ELm12ELm13ELm14ELm15ELm16ELm17ELm18ELm19ELm20ELm21ELm22ELm23ELm24ELm25ELm26ELm27ELm28ELm29ELm30ELm31ELm32ELm33ELm34ELm35ELm36ELm37EEEEE3GetILm24EEERKNS0_12ElemFromListIXT_EJS4_S4_S4_S4_S4_S4_S4_S4_S4_S4_S4_S4_S4_S4_S4_S4_S4_S4_S4_S4_S4_S4_S4_S4_S4_S4_S4_S4_S4_S4_S4_S4_S4_S4_S4_S4_S4_S4_EE4typeEv
FN:1246,_ZNK7testing8internal13FlatTupleBaseINS0_9FlatTupleIJSt5tupleIJiiEES4_S4_S4_S4_S4_S4_S4_S4_S4_S4_S4_S4_S4_S4_S4_S4_S4_S4_S4_S4_S4_S4_S4_S4_S4_S4_S4_S4_S4_S4_S4_S4_S4_S4_S4_S4_S4_EEENS0_13IndexSequenceIJLm0ELm1ELm2ELm3ELm4ELm5ELm6ELm7ELm8ELm9ELm10ELm11ELm12ELm13ELm14ELm15ELm16ELm17ELm18ELm19ELm20ELm21ELm22ELm23ELm24ELm25ELm26ELm27ELm28ELm29ELm30ELm31ELm32ELm33ELm34ELm35ELm36ELm37EEEEE3GetILm8EEERKNS0_12ElemFromListIXT_EJS4_S4_S4_S4_S4_S4_S4_S4_S4_S4_S4_S4_S4_S4_S4_S4_S4_S4_S4_S4_S4_S4_S4_S4_S4_S4_S4_S4_S4_S4_S4_S4_S4_S4_S4_S4_S4_S4_EE4typeEv
FNDA:3,_ZNK7testing8internal13FlatTupleBaseINS0_9FlatTupleIJSt5tupleIJiiEES4_S4_S4_S4_S4_S4_S4_S4_S4_S4_S4_S4_S4_S4_S4_S4_S4_S4_S4_S4_S4_S4_S4_S4_S4_S4_S4_S4_S4_S4_S4_S4_S4_S4_S4_S4_S4_EEENS0_13IndexSequenceIJLm0ELm1ELm2ELm3ELm4ELm5ELm6ELm7ELm8ELm9ELm10ELm11ELm12ELm13ELm14ELm15ELm16ELm17ELm18ELm19ELm20ELm21ELm22ELm23ELm24ELm25ELm26ELm27ELm28ELm29ELm30ELm31ELm32ELm33ELm34ELm35ELm36ELm37EEEEE3GetILm8EEERKNS0_12ElemFromListIXT_EJS4_S4_S4_S4_S4_S4_S4_S4_S4_S4_S4_S4_S4_S4_S4_S4_S4_S4_S4_S4_S4_S4_S4_S4_S4_S4_S4_S4_S4_S4_S4_S4_S4_S4_S4_S4_S4_S4_EE4typeEv
FN:1246,_ZNK7testing8internal13FlatTupleBaseINS0_9FlatTupleIJSt5tupleIJiiEES4_S4_S4_S4_S4_S4_S4_S4_S4_S4_S4_S4_S4_S4_S4_S4_S4_S4_S4_S4_S4_S4_S4_S4_S4_S4_S4_S4_S4_S4_S4_S4_S4_S4_S4_S4_S4_EEENS0_13IndexSequenceIJLm0ELm1ELm2ELm3ELm4ELm5ELm6ELm7ELm8ELm9ELm10ELm11ELm12ELm13ELm14ELm15ELm16ELm17ELm18ELm19ELm20ELm21ELm22ELm23ELm24ELm25ELm26ELm27ELm28ELm29ELm30ELm31ELm32ELm33ELm34ELm35ELm36ELm37EEEEE3GetILm9EEERKNS0_12ElemFromListIXT_EJS4_S4_S4_S4_S4_S4_S4_S4_S4_S4_S4_S4_S4_S4_S4_S4_S4_S4_S4_S4_S4_S4_S4_S4_S4_S4_S4_S4_S4_S4_S4_S4_S4_S4_S4_S4_S4_S4_EE4typeEv
FNDA:3,_ZNK7testing8internal13FlatTupleBaseINS0_9FlatTupleIJSt5tupleIJiiEES4_S4_S4_S4_S4_S4_S4_S4_S4_S4_S4_S4_S4_S4_S4_S4_S4_S4_S4_S4_S4_S4_S4_S4_S4_S4_S4_S4_S4_S4_S4_S4_S4_S4_S4_S4_S4_EEENS0_13IndexSequenceIJLm0ELm1ELm2ELm3ELm4ELm5ELm6ELm7ELm8ELm9ELm10ELm11ELm12ELm13ELm14ELm15ELm16ELm17ELm18ELm19ELm20ELm21ELm22ELm23ELm24ELm25ELm26ELm27ELm28ELm29ELm30ELm31ELm32ELm33ELm34ELm35ELm36ELm37EEEEE3GetILm9EEERKNS0_12ElemFromListIXT_EJS4_S4_S4_S4_S4_S4_S4_S4_S4_S4_S4_S4_S4_S4_S4_S4_S4_S4_S4_S4_S4_S4_S4_S4_S4_S4_S4_S4_S4_S4_S4_S4_S4_S4_S4_S4_S4_S4_EE4typeEv
FN:1246,_ZNK7testing8internal13FlatTupleBaseINS0_9FlatTupleIJSt5tupleIJiiEES4_S4_S4_S4_S4_S4_S4_S4_S4_S4_S4_S4_S4_S4_S4_S4_S4_S4_S4_S4_S4_S4_S4_S4_S4_S4_S4_S4_S4_S4_S4_S4_S4_S4_S4_S4_S4_EEENS0_13IndexSequenceIJLm0ELm1ELm2ELm3ELm4ELm5ELm6ELm7ELm8ELm9ELm10ELm11ELm12ELm13ELm14ELm15ELm16ELm17ELm18ELm19ELm20ELm21ELm22ELm23ELm24ELm25ELm26ELm27ELm28ELm29ELm30ELm31ELm32ELm33ELm34ELm35ELm36ELm37EEEEE3GetILm10EEERKNS0_12ElemFromListIXT_EJS4_S4_S4_S4_S4_S4_S4_S4_S4_S4_S4_S4_S4_S4_S4_S4_S4_S4_S4_S4_S4_S4_S4_S4_S4_S4_S4_S4_S4_S4_S4_S4_S4_S4_S4_S4_S4_S4_EE4typeEv
FNDA:3,_ZNK7testing8internal13FlatTupleBaseINS0_9FlatTupleIJSt5tupleIJiiEES4_S4_S4_S4_S4_S4_S4_S4_S4_S4_S4_S4_S4_S4_S4_S4_S4_S4_S4_S4_S4_S4_S4_S4_S4_S4_S4_S4_S4_S4_S4_S4_S4_S4_S4_S4_S4_EEENS0_13IndexSequenceIJLm0ELm1ELm2ELm3ELm4ELm5ELm6ELm7ELm8ELm9ELm10ELm11ELm12ELm13ELm14ELm15ELm16ELm17ELm18ELm19ELm20ELm21ELm22ELm23ELm24ELm25ELm26ELm27ELm28ELm29ELm30ELm31ELm32ELm33ELm34ELm35ELm36ELm37EEEEE3GetILm10EEERKNS0_12ElemFromListIXT_EJS4_S4_S4_S4_S4_S4_S4_S4_S4_S4_S4_S4_S4_S4_S4_S4_S4_S4_S4_S4_S4_S4_S4_S4_S4_S4_S4_S4_S4_S4_S4_S4_S4_S4_S4_S4_S4_S4_EE4typeEv
FN:1246,_ZNK7testing8internal13FlatTupleBaseINS0_9FlatTupleIJSt5tupleIJiiEES4_S4_S4_S4_S4_S4_S4_S4_S4_S4_S4_S4_S4_S4_S4_S4_S4_S4_S4_S4_S4_S4_S4_S4_S4_S4_S4_S4_S4_S4_S4_S4_S4_S4_S4_S4_S4_EEENS0_13IndexSequenceIJLm0ELm1ELm2ELm3ELm4ELm5ELm6ELm7ELm8ELm9ELm10ELm11ELm12ELm13ELm14ELm15ELm16ELm17ELm18ELm19ELm20ELm21ELm22ELm23ELm24ELm25ELm26ELm27ELm28ELm29ELm30ELm31ELm32ELm33ELm34ELm35ELm36ELm37EEEEE3GetILm11EEERKNS0_12ElemFromListIXT_EJS4_S4_S4_S4_S4_S4_S4_S4_S4_S4_S4_S4_S4_S4_S4_S4_S4_S4_S4_S4_S4_S4_S4_S4_S4_S4_S4_S4_S4_S4_S4_S4_S4_S4_S4_S4_S4_S4_EE4typeEv
FNDA:3,_ZNK7testing8internal13FlatTupleBaseINS0_9FlatTupleIJSt5tupleIJiiEES4_S4_S4_S4_S4_S4_S4_S4_S4_S4_S4_S4_S4_S4_S4_S4_S4_S4_S4_S4_S4_S4_S4_S4_S4_S4_S4_S4_S4_S4_S4_S4_S4_S4_S4_S4_S4_EEENS0_13IndexSequenceIJLm0ELm1ELm2ELm3ELm4ELm5ELm6ELm7ELm8ELm9ELm10ELm11ELm12ELm13ELm14ELm15ELm16ELm17ELm18ELm19ELm20ELm21ELm22ELm23ELm24ELm25ELm26ELm27ELm28ELm29ELm30ELm31ELm32ELm33ELm34ELm35ELm36ELm37EEEEE3GetILm11EEERKNS0_12ElemFromListIXT_EJS4_S4_S4_S4_S4_S4_S4_S4_S4_S4_S4_S4_S4_S4_S4_S4_S4_S4_S4_S4_S4_S4_S4_S4_S4_S4_S4_S4_S4_S4_S4_S4_S4_S4_S4_S4_S4_S4_EE4typeEv
FN:1246,_ZNK7testing8internal13FlatTupleBaseINS0_9FlatTupleIJSt5tupleIJiiEES4_S4_S4_S4_S4_S4_S4_S4_S4_S4_S4_S4_S4_S4_S4_S4_S4_S4_S4_S4_S4_S4_S4_S4_S4_S4_S4_S4_S4_S4_S4_S4_S4_S4_S4_S4_S4_EEENS0_13IndexSequenceIJLm0ELm1ELm2ELm3ELm4ELm5ELm6ELm7ELm8ELm9ELm10ELm11ELm12ELm13ELm14ELm15ELm16ELm17ELm18ELm19ELm20ELm21ELm22ELm23ELm24ELm25ELm26ELm27ELm28ELm29ELm30ELm31ELm32ELm33ELm34ELm35ELm36ELm37EEEEE3GetILm12EEERKNS0_12ElemFromListIXT_EJS4_S4_S4_S4_S4_S4_S4_S4_S4_S4_S4_S4_S4_S4_S4_S4_S4_S4_S4_S4_S4_S4_S4_S4_S4_S4_S4_S4_S4_S4_S4_S4_S4_S4_S4_S4_S4_S4_EE4typeEv
FNDA:3,_ZNK7testing8internal13FlatTupleBaseINS0_9FlatTupleIJSt5tupleIJiiEES4_S4_S4_S4_S4_S4_S4_S4_S4_S4_S4_S4_S4_S4_S4_S4_S4_S4_S4_S4_S4_S4_S4_S4_S4_S4_S4_S4_S4_S4_S4_S4_S4_S4_S4_S4_S4_EEENS0_13IndexSequenceIJLm0ELm1ELm2ELm3ELm4ELm5ELm6ELm7ELm8ELm9ELm10ELm11ELm12ELm13ELm14ELm15ELm16ELm17ELm18ELm19ELm20ELm21ELm22ELm23ELm24ELm25ELm26ELm27ELm28ELm29ELm30ELm31ELm32ELm33ELm34ELm35ELm36ELm37EEEEE3GetILm12EEERKNS0_12ElemFromListIXT_EJS4_S4_S4_S4_S4_S4_S4_S4_S4_S4_S4_S4_S4_S4_S4_S4_S4_S4_S4_S4_S4_S4_S4_S4_S4_S4_S4_S4_S4_S4_S4_S4_S4_S4_S4_S4_S4_S4_EE4typeEv
FN:1246,_ZNK7testing8internal13FlatTupleBaseINS0_9FlatTupleIJSt5tupleIJiiEES4_S4_S4_S4_S4_S4_S4_S4_S4_S4_S4_S4_S4_S4_S4_S4_S4_S4_S4_S4_S4_S4_S4_S4_S4_S4_S4_S4_S4_S4_S4_S4_S4_S4_S4_S4_S4_EEENS0_13IndexSequenceIJLm0ELm1ELm2ELm3ELm4ELm5ELm6ELm7ELm8ELm9ELm10ELm11ELm12ELm13ELm14ELm15ELm16ELm17ELm18ELm19ELm20ELm21ELm22ELm23ELm24ELm25ELm26ELm27ELm28ELm29ELm30ELm31ELm32ELm33ELm34ELm35ELm36ELm37EEEEE3GetILm13EEERKNS0_12ElemFromListIXT_EJS4_S4_S4_S4_S4_S4_S4_S4_S4_S4_S4_S4_S4_S4_S4_S4_S4_S4_S4_S4_S4_S4_S4_S4_S4_S4_S4_S4_S4_S4_S4_S4_S4_S4_S4_S4_S4_S4_EE4typeEv
FNDA:3,_ZNK7testing8internal13FlatTupleBaseINS0_9FlatTupleIJSt5tupleIJiiEES4_S4_S4_S4_S4_S4_S4_S4_S4_S4_S4_S4_S4_S4_S4_S4_S4_S4_S4_S4_S4_S4_S4_S4_S4_S4_S4_S4_S4_S4_S4_S4_S4_S4_S4_S4_S4_EEENS0_13IndexSequenceIJLm0ELm1ELm2ELm3ELm4ELm5ELm6ELm7ELm8ELm9ELm10ELm11ELm12ELm13ELm14ELm15ELm16ELm17ELm18ELm19ELm20ELm21ELm22ELm23ELm24ELm25ELm26ELm27ELm28ELm29ELm30ELm31ELm32ELm33ELm34ELm35ELm36ELm37EEEEE3GetILm13EEERKNS0_12ElemFromListIXT_EJS4_S4_S4_S4_S4_S4_S4_S4_S4_S4_S4_S4_S4_S4_S4_S4_S4_S4_S4_S4_S4_S4_S4_S4_S4_S4_S4_S4_S4_S4_S4_S4_S4_S4_S4_S4_S4_S4_EE4typeEv
FN:1246,_ZNK7testing8internal13FlatTupleBaseINS0_9FlatTupleIJSt5tupleIJiiEES4_S4_S4_S4_S4_S4_S4_S4_S4_S4_S4_S4_S4_S4_S4_S4_S4_S4_S4_S4_S4_S4_S4_S4_S4_S4_S4_S4_S4_S4_S4_S4_S4_S4_S4_S4_S4_EEENS0_13IndexSequenceIJLm0ELm1ELm2ELm3ELm4ELm5ELm6ELm7ELm8ELm9ELm10ELm11ELm12ELm13ELm14ELm15ELm16ELm17ELm18ELm19ELm20ELm21ELm22ELm23ELm24ELm25ELm26ELm27ELm28ELm29ELm30ELm31ELm32ELm33ELm34ELm35ELm36ELm37EEEEE3GetILm14EEERKNS0_12ElemFromListIXT_EJS4_S4_S4_S4_S4_S4_S4_S4_S4_S4_S4_S4_S4_S4_S4_S4_S4_S4_S4_S4_S4_S4_S4_S4_S4_S4_S4_S4_S4_S4_S4_S4_S4_S4_S4_S4_S4_S4_EE4typeEv
FNDA:3,_ZNK7testing8internal13FlatTupleBaseINS0_9FlatTupleIJSt5tupleIJiiEES4_S4_S4_S4_S4_S4_S4_S4_S4_S4_S4_S4_S4_S4_S4_S4_S4_S4_S4_S4_S4_S4_S4_S4_S4_S4_S4_S4_S4_S4_S4_S4_S4_S4_S4_S4_S4_EEENS0_13IndexSequenceIJLm0ELm1ELm2ELm3ELm4ELm5ELm6ELm7ELm8ELm9ELm10ELm11ELm12ELm13ELm14ELm15ELm16ELm17ELm18ELm19ELm20ELm21ELm22ELm23ELm24ELm25ELm26ELm27ELm28ELm29ELm30ELm31ELm32ELm33ELm34ELm35ELm36ELm37EEEEE3GetILm14EEERKNS0_12ElemFromListIXT_EJS4_S4_S4_S4_S4_S4_S4_S4_S4_S4_S4_S4_S4_S4_S4_S4_S4_S4_S4_S4_S4_S4_S4_S4_S4_S4_S4_S4_S4_S4_S4_S4_S4_S4_S4_S4_S4_S4_EE4typeEv
FN:1246,_ZNK7testing8internal13FlatTupleBaseINS0_9FlatTupleIJSt5tupleIJiiEES4_S4_S4_S4_S4_S4_S4_S4_S4_S4_S4_S4_S4_S4_S4_S4_S4_S4_S4_S4_S4_S4_S4_S4_S4_S4_S4_S4_S4_S4_S4_S4_S4_S4_S4_S4_S4_EEENS0_13IndexSequenceIJLm0ELm1ELm2ELm3ELm4ELm5ELm6ELm7ELm8ELm9ELm10ELm11ELm12ELm13ELm14ELm15ELm16ELm17ELm18ELm19ELm20ELm21ELm22ELm23ELm24ELm25ELm26ELm27ELm28ELm29ELm30ELm31ELm32ELm33ELm34ELm35ELm36ELm37EEEEE3GetILm15EEERKNS0_12ElemFromListIXT_EJS4_S4_S4_S4_S4_S4_S4_S4_S4_S4_S4_S4_S4_S4_S4_S4_S4_S4_S4_S4_S4_S4_S4_S4_S4_S4_S4_S4_S4_S4_S4_S4_S4_S4_S4_S4_S4_S4_EE4typeEv
FNDA:3,_ZNK7testing8internal13FlatTupleBaseINS0_9FlatTupleIJSt5tupleIJiiEES4_S4_S4_S4_S4_S4_S4_S4_S4_S4_S4_S4_S4_S4_S4_S4_S4_S4_S4_S4_S4_S4_S4_S4_S4_S4_S4_S4_S4_S4_S4_S4_S4_S4_S4_S4_S4_EEENS0_13IndexSequenceIJLm0ELm1ELm2ELm3ELm4ELm5ELm6ELm7ELm8ELm9ELm10ELm11ELm12ELm13ELm14ELm15ELm16ELm17ELm18ELm19ELm20ELm21ELm22ELm23ELm24ELm25ELm26ELm27ELm28ELm29ELm30ELm31ELm32ELm33ELm34ELm35ELm36ELm37EEEEE3GetILm15EEERKNS0_12ElemFromListIXT_EJS4_S4_S4_S4_S4_S4_S4_S4_S4_S4_S4_S4_S4_S4_S4_S4_S4_S4_S4_S4_S4_S4_S4_S4_S4_S4_S4_S4_S4_S4_S4_S4_S4_S4_S4_S4_S4_S4_EE4typeEv
FN:1246,_ZNK7testing8internal13FlatTupleBaseINS0_9FlatTupleIJSt5tupleIJiiEES4_S4_S4_S4_S4_S4_S4_S4_S4_S4_S4_S4_S4_S4_S4_S4_S4_S4_S4_S4_S4_S4_S4_S4_S4_S4_S4_S4_S4_S4_S4_S4_S4_S4_S4_S4_S4_EEENS0_13IndexSequenceIJLm0ELm1ELm2ELm3ELm4ELm5ELm6ELm7ELm8ELm9ELm10ELm11ELm12ELm13ELm14ELm15ELm16ELm17ELm18ELm19ELm20ELm21ELm22ELm23ELm24ELm25ELm26ELm27ELm28ELm29ELm30ELm31ELm32ELm33ELm34ELm35ELm36ELm37EEEEE3GetILm16EEERKNS0_12ElemFromListIXT_EJS4_S4_S4_S4_S4_S4_S4_S4_S4_S4_S4_S4_S4_S4_S4_S4_S4_S4_S4_S4_S4_S4_S4_S4_S4_S4_S4_S4_S4_S4_S4_S4_S4_S4_S4_S4_S4_S4_EE4typeEv
FNDA:3,_ZNK7testing8internal13FlatTupleBaseINS0_9FlatTupleIJSt5tupleIJiiEES4_S4_S4_S4_S4_S4_S4_S4_S4_S4_S4_S4_S4_S4_S4_S4_S4_S4_S4_S4_S4_S4_S4_S4_S4_S4_S4_S4_S4_S4_S4_S4_S4_S4_S4_S4_S4_EEENS0_13IndexSequenceIJLm0ELm1ELm2ELm3ELm4ELm5ELm6ELm7ELm8ELm9ELm10ELm11ELm12ELm13ELm14ELm15ELm16ELm17ELm18ELm19ELm20ELm21ELm22ELm23ELm24ELm25ELm26ELm27ELm28ELm29ELm30ELm31ELm32ELm33ELm34ELm35ELm36ELm37EEEEE3GetILm16EEERKNS0_12ElemFromListIXT_EJS4_S4_S4_S4_S4_S4_S4_S4_S4_S4_S4_S4_S4_S4_S4_S4_S4_S4_S4_S4_S4_S4_S4_S4_S4_S4_S4_S4_S4_S4_S4_S4_S4_S4_S4_S4_S4_S4_EE4typeEv
FN:1246,_ZNK7testing8internal13FlatTupleBaseINS0_9FlatTupleIJSt5tupleIJiiEES4_S4_S4_S4_S4_S4_S4_S4_S4_S4_S4_S4_S4_S4_S4_S4_S4_S4_S4_S4_S4_S4_S4_S4_S4_S4_S4_S4_S4_S4_S4_S4_S4_S4_S4_S4_S4_EEENS0_13IndexSequenceIJLm0ELm1ELm2ELm3ELm4ELm5ELm6ELm7ELm8ELm9ELm10ELm11ELm12ELm13ELm14ELm15ELm16ELm17ELm18ELm19ELm20ELm21ELm22ELm23ELm24ELm25ELm26ELm27ELm28ELm29ELm30ELm31ELm32ELm33ELm34ELm35ELm36ELm37EEEEE3GetILm7EEERKNS0_12ElemFromListIXT_EJS4_S4_S4_S4_S4_S4_S4_S4_S4_S4_S4_S4_S4_S4_S4_S4_S4_S4_S4_S4_S4_S4_S4_S4_S4_S4_S4_S4_S4_S4_S4_S4_S4_S4_S4_S4_S4_S4_EE4typeEv
FNDA:3,_ZNK7testing8internal13FlatTupleBaseINS0_9FlatTupleIJSt5tupleIJiiEES4_S4_S4_S4_S4_S4_S4_S4_S4_S4_S4_S4_S4_S4_S4_S4_S4_S4_S4_S4_S4_S4_S4_S4_S4_S4_S4_S4_S4_S4_S4_S4_S4_S4_S4_S4_S4_EEENS0_13IndexSequenceIJLm0ELm1ELm2ELm3ELm4ELm5ELm6ELm7ELm8ELm9ELm10ELm11ELm12ELm13ELm14ELm15ELm16ELm17ELm18ELm19ELm20ELm21ELm22ELm23ELm24ELm25ELm26ELm27ELm28ELm29ELm30ELm31ELm32ELm33ELm34ELm35ELm36ELm37EEEEE3GetILm7EEERKNS0_12ElemFromListIXT_EJS4_S4_S4_S4_S4_S4_S4_S4_S4_S4_S4_S4_S4_S4_S4_S4_S4_S4_S4_S4_S4_S4_S4_S4_S4_S4_S4_S4_S4_S4_S4_S4_S4_S4_S4_S4_S4_S4_EE4typeEv
FN:1246,_ZNK7testing8internal13FlatTupleBaseINS0_9FlatTupleIJSt5tupleIJiiEES4_S4_S4_S4_S4_S4_S4_S4_S4_S4_S4_S4_S4_S4_S4_S4_S4_S4_S4_S4_S4_S4_S4_S4_S4_S4_S4_S4_S4_S4_S4_S4_S4_S4_S4_S4_S4_EEENS0_13IndexSequenceIJLm0ELm1ELm2ELm3ELm4ELm5ELm6ELm7ELm8ELm9ELm10ELm11ELm12ELm13ELm14ELm15ELm16ELm17ELm18ELm19ELm20ELm21ELm22ELm23ELm24ELm25ELm26ELm27ELm28ELm29ELm30ELm31ELm32ELm33ELm34ELm35ELm36ELm37EEEEE3GetILm18EEERKNS0_12ElemFromListIXT_EJS4_S4_S4_S4_S4_S4_S4_S4_S4_S4_S4_S4_S4_S4_S4_S4_S4_S4_S4_S4_S4_S4_S4_S4_S4_S4_S4_S4_S4_S4_S4_S4_S4_S4_S4_S4_S4_S4_EE4typeEv
FNDA:3,_ZNK7testing8internal13FlatTupleBaseINS0_9FlatTupleIJSt5tupleIJiiEES4_S4_S4_S4_S4_S4_S4_S4_S4_S4_S4_S4_S4_S4_S4_S4_S4_S4_S4_S4_S4_S4_S4_S4_S4_S4_S4_S4_S4_S4_S4_S4_S4_S4_S4_S4_S4_EEENS0_13IndexSequenceIJLm0ELm1ELm2ELm3ELm4ELm5ELm6ELm7ELm8ELm9ELm10ELm11ELm12ELm13ELm14ELm15ELm16ELm17ELm18ELm19ELm20ELm21ELm22ELm23ELm24ELm25ELm26ELm27ELm28ELm29ELm30ELm31ELm32ELm33ELm34ELm35ELm36ELm37EEEEE3GetILm18EEERKNS0_12ElemFromListIXT_EJS4_S4_S4_S4_S4_S4_S4_S4_S4_S4_S4_S4_S4_S4_S4_S4_S4_S4_S4_S4_S4_S4_S4_S4_S4_S4_S4_S4_S4_S4_S4_S4_S4_S4_S4_S4_S4_S4_EE4typeEv
FN:1246,_ZNK7testing8internal13FlatTupleBaseINS0_9FlatTupleIJSt5tupleIJiiEES4_S4_S4_S4_S4_S4_S4_S4_S4_S4_S4_S4_S4_S4_S4_S4_S4_S4_S4_S4_S4_S4_S4_S4_S4_S4_S4_S4_S4_S4_S4_S4_S4_S4_S4_S4_S4_EEENS0_13IndexSequenceIJLm0ELm1ELm2ELm3ELm4ELm5ELm6ELm7ELm8ELm9ELm10ELm11ELm12ELm13ELm14ELm15ELm16ELm17ELm18ELm19ELm20ELm21ELm22ELm23ELm24ELm25ELm26ELm27ELm28ELm29ELm30ELm31ELm32ELm33ELm34ELm35ELm36ELm37EEEEE3GetILm19EEERKNS0_12ElemFromListIXT_EJS4_S4_S4_S4_S4_S4_S4_S4_S4_S4_S4_S4_S4_S4_S4_S4_S4_S4_S4_S4_S4_S4_S4_S4_S4_S4_S4_S4_S4_S4_S4_S4_S4_S4_S4_S4_S4_S4_EE4typeEv
FNDA:3,_ZNK7testing8internal13FlatTupleBaseINS0_9FlatTupleIJSt5tupleIJiiEES4_S4_S4_S4_S4_S4_S4_S4_S4_S4_S4_S4_S4_S4_S4_S4_S4_S4_S4_S4_S4_S4_S4_S4_S4_S4_S4_S4_S4_S4_S4_S4_S4_S4_S4_S4_S4_EEENS0_13IndexSequenceIJLm0ELm1ELm2ELm3ELm4ELm5ELm6ELm7ELm8ELm9ELm10ELm11ELm12ELm13ELm14ELm15ELm16ELm17ELm18ELm19ELm20ELm21ELm22ELm23ELm24ELm25ELm26ELm27ELm28ELm29ELm30ELm31ELm32ELm33ELm34ELm35ELm36ELm37EEEEE3GetILm19EEERKNS0_12ElemFromListIXT_EJS4_S4_S4_S4_S4_S4_S4_S4_S4_S4_S4_S4_S4_S4_S4_S4_S4_S4_S4_S4_S4_S4_S4_S4_S4_S4_S4_S4_S4_S4_S4_S4_S4_S4_S4_S4_S4_S4_EE4typeEv
FN:1246,_ZNK7testing8internal13FlatTupleBaseINS0_9FlatTupleIJSt5tupleIJiiEES4_S4_S4_S4_S4_S4_S4_S4_S4_S4_S4_S4_S4_S4_S4_S4_S4_S4_S4_S4_S4_S4_S4_S4_S4_S4_S4_S4_S4_S4_S4_S4_S4_S4_S4_S4_S4_EEENS0_13IndexSequenceIJLm0ELm1ELm2ELm3ELm4ELm5ELm6ELm7ELm8ELm9ELm10ELm11ELm12ELm13ELm14ELm15ELm16ELm17ELm18ELm19ELm20ELm21ELm22ELm23ELm24ELm25ELm26ELm27ELm28ELm29ELm30ELm31ELm32ELm33ELm34ELm35ELm36ELm37EEEEE3GetILm20EEERKNS0_12ElemFromListIXT_EJS4_S4_S4_S4_S4_S4_S4_S4_S4_S4_S4_S4_S4_S4_S4_S4_S4_S4_S4_S4_S4_S4_S4_S4_S4_S4_S4_S4_S4_S4_S4_S4_S4_S4_S4_S4_S4_S4_EE4typeEv
FNDA:3,_ZNK7testing8internal13FlatTupleBaseINS0_9FlatTupleIJSt5tupleIJiiEES4_S4_S4_S4_S4_S4_S4_S4_S4_S4_S4_S4_S4_S4_S4_S4_S4_S4_S4_S4_S4_S4_S4_S4_S4_S4_S4_S4_S4_S4_S4_S4_S4_S4_S4_S4_S4_EEENS0_13IndexSequenceIJLm0ELm1ELm2ELm3ELm4ELm5ELm6ELm7ELm8ELm9ELm10ELm11ELm12ELm13ELm14ELm15ELm16ELm17ELm18ELm19ELm20ELm21ELm22ELm23ELm24ELm25ELm26ELm27ELm28ELm29ELm30ELm31ELm32ELm33ELm34ELm35ELm36ELm37EEEEE3GetILm20EEERKNS0_12ElemFromListIXT_EJS4_S4_S4_S4_S4_S4_S4_S4_S4_S4_S4_S4_S4_S4_S4_S4_S4_S4_S4_S4_S4_S4_S4_S4_S4_S4_S4_S4_S4_S4_S4_S4_S4_S4_S4_S4_S4_S4_EE4typeEv
FN:1246,_ZNK7testing8internal13FlatTupleBaseINS0_9FlatTupleIJSt5tupleIJiiEES4_S4_S4_S4_S4_S4_S4_S4_S4_S4_S4_S4_S4_S4_S4_S4_S4_S4_S4_S4_S4_S4_S4_S4_S4_S4_S4_S4_S4_S4_S4_S4_S4_S4_S4_S4_S4_EEENS0_13IndexSequenceIJLm0ELm1ELm2ELm3ELm4ELm5ELm6ELm7ELm8ELm9ELm10ELm11ELm12ELm13ELm14ELm15ELm16ELm17ELm18ELm19ELm20ELm21ELm22ELm23ELm24ELm25ELm26ELm27ELm28ELm29ELm30ELm31ELm32ELm33ELm34ELm35ELm36ELm37EEEEE3GetILm21EEERKNS0_12ElemFromListIXT_EJS4_S4_S4_S4_S4_S4_S4_S4_S4_S4_S4_S4_S4_S4_S4_S4_S4_S4_S4_S4_S4_S4_S4_S4_S4_S4_S4_S4_S4_S4_S4_S4_S4_S4_S4_S4_S4_S4_EE4typeEv
FNDA:3,_ZNK7testing8internal13FlatTupleBaseINS0_9FlatTupleIJSt5tupleIJiiEES4_S4_S4_S4_S4_S4_S4_S4_S4_S4_S4_S4_S4_S4_S4_S4_S4_S4_S4_S4_S4_S4_S4_S4_S4_S4_S4_S4_S4_S4_S4_S4_S4_S4_S4_S4_S4_EEENS0_13IndexSequenceIJLm0ELm1ELm2ELm3ELm4ELm5ELm6ELm7ELm8ELm9ELm10ELm11ELm12ELm13ELm14ELm15ELm16ELm17ELm18ELm19ELm20ELm21ELm22ELm23ELm24ELm25ELm26ELm27ELm28ELm29ELm30ELm31ELm32ELm33ELm34ELm35ELm36ELm37EEEEE3GetILm21EEERKNS0_12ElemFromListIXT_EJS4_S4_S4_S4_S4_S4_S4_S4_S4_S4_S4_S4_S4_S4_S4_S4_S4_S4_S4_S4_S4_S4_S4_S4_S4_S4_S4_S4_S4_S4_S4_S4_S4_S4_S4_S4_S4_S4_EE4typeEv
FN:1246,_ZNK7testing8internal13FlatTupleBaseINS0_9FlatTupleIJSt5tupleIJiiEES4_S4_S4_S4_S4_S4_S4_S4_S4_S4_S4_S4_S4_S4_S4_S4_S4_S4_S4_S4_S4_S4_S4_S4_S4_S4_S4_S4_S4_S4_S4_S4_S4_S4_S4_S4_S4_EEENS0_13IndexSequenceIJLm0ELm1ELm2ELm3ELm4ELm5ELm6ELm7ELm8ELm9ELm10ELm11ELm12ELm13ELm14ELm15ELm16ELm17ELm18ELm19ELm20ELm21ELm22ELm23ELm24ELm25ELm26ELm27ELm28ELm29ELm30ELm31ELm32ELm33ELm34ELm35ELm36ELm37EEEEE3GetILm22EEERKNS0_12ElemFromListIXT_EJS4_S4_S4_S4_S4_S4_S4_S4_S4_S4_S4_S4_S4_S4_S4_S4_S4_S4_S4_S4_S4_S4_S4_S4_S4_S4_S4_S4_S4_S4_S4_S4_S4_S4_S4_S4_S4_S4_EE4typeEv
FNDA:3,_ZNK7testing8internal13FlatTupleBaseINS0_9FlatTupleIJSt5tupleIJiiEES4_S4_S4_S4_S4_S4_S4_S4_S4_S4_S4_S4_S4_S4_S4_S4_S4_S4_S4_S4_S4_S4_S4_S4_S4_S4_S4_S4_S4_S4_S4_S4_S4_S4_S4_S4_S4_EEENS0_13IndexSequenceIJLm0ELm1ELm2ELm3ELm4ELm5ELm6ELm7ELm8ELm9ELm10ELm11ELm12ELm13ELm14ELm15ELm16ELm17ELm18ELm19ELm20ELm21ELm22ELm23ELm24ELm25ELm26ELm27ELm28ELm29ELm30ELm31ELm32ELm33ELm34ELm35ELm36ELm37EEEEE3GetILm22EEERKNS0_12ElemFromListIXT_EJS4_S4_S4_S4_S4_S4_S4_S4_S4_S4_S4_S4_S4_S4_S4_S4_S4_S4_S4_S4_S4_S4_S4_S4_S4_S4_S4_S4_S4_S4_S4_S4_S4_S4_S4_S4_S4_S4_EE4typeEv
FN:1246,_ZNK7testing8internal13FlatTupleBaseINS0_9FlatTupleIJSt5tupleIJiiEES4_S4_S4_S4_S4_S4_S4_S4_S4_S4_S4_S4_S4_S4_S4_S4_S4_S4_S4_S4_S4_S4_S4_S4_S4_S4_S4_S4_S4_S4_S4_S4_S4_S4_S4_S4_S4_EEENS0_13IndexSequenceIJLm0ELm1ELm2ELm3ELm4ELm5ELm6ELm7ELm8ELm9ELm10ELm11ELm12ELm13ELm14ELm15ELm16ELm17ELm18ELm19ELm20ELm21ELm22ELm23ELm24ELm25ELm26ELm27ELm28ELm29ELm30ELm31ELm32ELm33ELm34ELm35ELm36ELm37EEEEE3GetILm23EEERKNS0_12ElemFromListIXT_EJS4_S4_S4_S4_S4_S4_S4_S4_S4_S4_S4_S4_S4_S4_S4_S4_S4_S4_S4_S4_S4_S4_S4_S4_S4_S4_S4_S4_S4_S4_S4_S4_S4_S4_S4_S4_S4_S4_EE4typeEv
FNDA:3,_ZNK7testing8internal13FlatTupleBaseINS0_9FlatTupleIJSt5tupleIJiiEES4_S4_S4_S4_S4_S4_S4_S4_S4_S4_S4_S4_S4_S4_S4_S4_S4_S4_S4_S4_S4_S4_S4_S4_S4_S4_S4_S4_S4_S4_S4_S4_S4_S4_S4_S4_S4_EEENS0_13IndexSequenceIJLm0ELm1ELm2ELm3ELm4ELm5ELm6ELm7ELm8ELm9ELm10ELm11ELm12ELm13ELm14ELm15ELm16ELm17ELm18ELm19ELm20ELm21ELm22ELm23ELm24ELm25ELm26ELm27ELm28ELm29ELm30ELm31ELm32ELm33ELm34ELm35ELm36ELm37EEEEE3GetILm23EEERKNS0_12ElemFromListIXT_EJS4_S4_S4_S4_S4_S4_S4_S4_S4_S4_S4_S4_S4_S4_S4_S4_S4_S4_S4_S4_S4_S4_S4_S4_S4_S4_S4_S4_S4_S4_S4_S4_S4_S4_S4_S4_S4_S4_EE4typeEv
FN:1246,_ZNK7testing8internal13FlatTupleBaseINS0_9FlatTupleIJSt5tupleIJiiEES4_S4_S4_S4_S4_S4_S4_S4_S4_S4_S4_S4_S4_S4_S4_S4_S4_S4_S4_S4_S4_S4_S4_S4_S4_S4_S4_S4_S4_S4_S4_S4_S4_S4_S4_S4_S4_EEENS0_13IndexSequenceIJLm0ELm1ELm2ELm3ELm4ELm5ELm6ELm7ELm8ELm9ELm10ELm11ELm12ELm13ELm14ELm15ELm16ELm17ELm18ELm19ELm20ELm21ELm22ELm23ELm24ELm25ELm26ELm27ELm28ELm29ELm30ELm31ELm32ELm33ELm34ELm35ELm36ELm37EEEEE3GetILm24EEERKNS0_12ElemFromListIXT_EJS4_S4_S4_S4_S4_S4_S4_S4_S4_S4_S4_S4_S4_S4_S4_S4_S4_S4_S4_S4_S4_S4_S4_S4_S4_S4_S4_S4_S4_S4_S4_S4_S4_S4_S4_S4_S4_S4_EE4typeEv
FNDA:3,_ZNK7testing8internal13FlatTupleBaseINS0_9FlatTupleIJSt5tupleIJiiEES4_S4_S4_S4_S4_S4_S4_S4_S4_S4_S4_S4_S4_S4_S4_S4_S4_S4_S4_S4_S4_S4_S4_S4_S4_S4_S4_S4_S4_S4_S4_S4_S4_S4_S4_S4_S4_EEENS0_13IndexSequenceIJLm0ELm1ELm2ELm3ELm4ELm5ELm6ELm7ELm8ELm9ELm10ELm11ELm12ELm13ELm14ELm15ELm16ELm17ELm18ELm19ELm20ELm21ELm22ELm23ELm24ELm25ELm26ELm27ELm28ELm29ELm30ELm31ELm32ELm33ELm34ELm35ELm36ELm37EEEEE3GetILm24EEERKNS0_12ElemFromListIXT_EJS4_S4_S4_S4_S4_S4_S4_S4_S4_S4_S4_S4_S4_S4_S4_S4_S4_S4_S4_S4_S4_S4_S4_S4_S4_S4_S4_S4_S4_S4_S4_S4_S4_S4_S4_S4_S4_S4_EE4typeEv
FN:1246,_ZNK7testing8internal13FlatTupleBaseINS0_9FlatTupleIJSt5tupleIJiiEES4_S4_S4_S4_S4_S4_S4_S4_S4_S4_S4_S4_S4_S4_S4_S4_S4_S4_S4_S4_S4_S4_S4_S4_S4_S4_S4_S4_S4_S4_S4_S4_S4_S4_S4_S4_S4_EEENS0_13IndexSequenceIJLm0ELm1ELm2ELm3ELm4ELm5ELm6ELm7ELm8ELm9ELm10ELm11ELm12ELm13ELm14ELm15ELm16ELm17ELm18ELm19ELm20ELm21ELm22ELm23ELm24ELm25ELm26ELm27ELm28ELm29ELm30ELm31ELm32ELm33ELm34ELm35ELm36ELm37EEEEE3GetILm25EEERKNS0_12ElemFromListIXT_EJS4_S4_S4_S4_S4_S4_S4_S4_S4_S4_S4_S4_S4_S4_S4_S4_S4_S4_S4_S4_S4_S4_S4_S4_S4_S4_S4_S4_S4_S4_S4_S4_S4_S4_S4_S4_S4_S4_EE4typeEv
FNDA:3,_ZNK7testing8internal13FlatTupleBaseINS0_9FlatTupleIJSt5tupleIJiiEES4_S4_S4_S4_S4_S4_S4_S4_S4_S4_S4_S4_S4_S4_S4_S4_S4_S4_S4_S4_S4_S4_S4_S4_S4_S4_S4_S4_S4_S4_S4_S4_S4_S4_S4_S4_S4_EEENS0_13IndexSequenceIJLm0ELm1ELm2ELm3ELm4ELm5ELm6ELm7ELm8ELm9ELm10ELm11ELm12ELm13ELm14ELm15ELm16ELm17ELm18ELm19ELm20ELm21ELm22ELm23ELm24ELm25ELm26ELm27ELm28ELm29ELm30ELm31ELm32ELm33ELm34ELm35ELm36ELm37EEEEE3GetILm25EEERKNS0_12ElemFromListIXT_EJS4_S4_S4_S4_S4_S4_S4_S4_S4_S4_S4_S4_S4_S4_S4_S4_S4_S4_S4_S4_S4_S4_S4_S4_S4_S4_S4_S4_S4_S4_S4_S4_S4_S4_S4_S4_S4_S4_EE4typeEv
FN:1246,_ZNK7testing8internal13FlatTupleBaseINS0_9FlatTupleIJSt5tupleIJiiEES4_S4_S4_S4_S4_S4_S4_S4_S4_S4_S4_S4_S4_S4_S4_S4_S4_S4_S4_S4_S4_S4_S4_S4_S4_S4_S4_S4_S4_S4_S4_S4_S4_S4_S4_S4_S4_EEENS0_13IndexSequenceIJLm0ELm1ELm2ELm3ELm4ELm5ELm6ELm7ELm8ELm9ELm10ELm11ELm12ELm13ELm14ELm15ELm16ELm17ELm18ELm19ELm20ELm21ELm22ELm23ELm24ELm25ELm26ELm27ELm28ELm29ELm30ELm31ELm32ELm33ELm34ELm35ELm36ELm37EEEEE3GetILm26EEERKNS0_12ElemFromListIXT_EJS4_S4_S4_S4_S4_S4_S4_S4_S4_S4_S4_S4_S4_S4_S4_S4_S4_S4_S4_S4_S4_S4_S4_S4_S4_S4_S4_S4_S4_S4_S4_S4_S4_S4_S4_S4_S4_S4_EE4typeEv
FNDA:3,_ZNK7testing8internal13FlatTupleBaseINS0_9FlatTupleIJSt5tupleIJiiEES4_S4_S4_S4_S4_S4_S4_S4_S4_S4_S4_S4_S4_S4_S4_S4_S4_S4_S4_S4_S4_S4_S4_S4_S4_S4_S4_S4_S4_S4_S4_S4_S4_S4_S4_S4_S4_EEENS0_13IndexSequenceIJLm0ELm1ELm2ELm3ELm4ELm5ELm6ELm7ELm8ELm9ELm10ELm11ELm12ELm13ELm14ELm15ELm16ELm17ELm18ELm19ELm20ELm21ELm22ELm23ELm24ELm25ELm26ELm27ELm28ELm29ELm30ELm31ELm32ELm33ELm34ELm35ELm36ELm37EEEEE3GetILm26EEERKNS0_12ElemFromListIXT_EJS4_S4_S4_S4_S4_S4_S4_S4_S4_S4_S4_S4_S4_S4_S4_S4_S4_S4_S4_S4_S4_S4_S4_S4_S4_S4_S4_S4_S4_S4_S4_S4_S4_S4_S4_S4_S4_S4_EE4typeEv
FN:1246,_ZNK7testing8internal13FlatTupleBaseINS0_9FlatTupleIJSt5tupleIJiiEES4_S4_S4_S4_S4_S4_S4_S4_S4_S4_S4_S4_S4_S4_S4_S4_S4_S4_S4_S4_S4_S4_S4_S4_S4_S4_S4_S4_S4_S4_S4_S4_S4_S4_S4_S4_S4_EEENS0_13IndexSequenceIJLm0ELm1ELm2ELm3ELm4ELm5ELm6ELm7ELm8ELm9ELm10ELm11ELm12ELm13ELm14ELm15ELm16ELm17ELm18ELm19ELm20ELm21ELm22ELm23ELm24ELm25ELm26ELm27ELm28ELm29ELm30ELm31ELm32ELm33ELm34ELm35ELm36ELm37EEEEE3GetILm27EEERKNS0_12ElemFromListIXT_EJS4_S4_S4_S4_S4_S4_S4_S4_S4_S4_S4_S4_S4_S4_S4_S4_S4_S4_S4_S4_S4_S4_S4_S4_S4_S4_S4_S4_S4_S4_S4_S4_S4_S4_S4_S4_S4_S4_EE4typeEv
FNDA:3,_ZNK7testing8internal13FlatTupleBaseINS0_9FlatTupleIJSt5tupleIJiiEES4_S4_S4_S4_S4_S4_S4_S4_S4_S4_S4_S4_S4_S4_S4_S4_S4_S4_S4_S4_S4_S4_S4_S4_S4_S4_S4_S4_S4_S4_S4_S4_S4_S4_S4_S4_S4_EEENS0_13IndexSequenceIJLm0ELm1ELm2ELm3ELm4ELm5ELm6ELm7ELm8ELm9ELm10ELm11ELm12ELm13ELm14ELm15ELm16ELm17ELm18ELm19ELm20ELm21ELm22ELm23ELm24ELm25ELm26ELm27ELm28ELm29ELm30ELm31ELm32ELm33ELm34ELm35ELm36ELm37EEEEE3GetILm27EEERKNS0_12ElemFromListIXT_EJS4_S4_S4_S4_S4_S4_S4_S4_S4_S4_S4_S4_S4_S4_S4_S4_S4_S4_S4_S4_S4_S4_S4_S4_S4_S4_S4_S4_S4_S4_S4_S4_S4_S4_S4_S4_S4_S4_EE4typeEv
FN:1246,_ZNK7testing8internal13FlatTupleBaseINS0_9FlatTupleIJSt5tupleIJiiiEES4_S4_S4_S4_S4_S4_S4_S4_S4_S4_S4_S4_S4_S4_S4_S4_S4_S4_S4_S4_S4_S4_S4_S4_S4_S4_S4_S4_S4_S4_S4_S4_S4_S4_S4_S4_S4_EEENS0_13IndexSequenceIJLm0ELm1ELm2ELm3ELm4ELm5ELm6ELm7ELm8ELm9ELm10ELm11ELm12ELm13ELm14ELm15ELm16ELm17ELm18ELm19ELm20ELm21ELm22ELm23ELm24ELm25ELm26ELm27ELm28ELm29ELm30ELm31ELm32ELm33ELm34ELm35ELm36ELm37EEEEE3GetILm36EEERKNS0_12ElemFromListIXT_EJS4_S4_S4_S4_S4_S4_S4_S4_S4_S4_S4_S4_S4_S4_S4_S4_S4_S4_S4_S4_S4_S4_S4_S4_S4_S4_S4_S4_S4_S4_S4_S4_S4_S4_S4_S4_S4_S4_EE4typeEv
FNDA:9,_ZNK7testing8internal13FlatTupleBaseINS0_9FlatTupleIJSt5tupleIJiiiEES4_S4_S4_S4_S4_S4_S4_S4_S4_S4_S4_S4_S4_S4_S4_S4_S4_S4_S4_S4_S4_S4_S4_S4_S4_S4_S4_S4_S4_S4_S4_S4_S4_S4_S4_S4_S4_EEENS0_13IndexSequenceIJLm0ELm1ELm2ELm3ELm4ELm5ELm6ELm7ELm8ELm9ELm10ELm11ELm12ELm13ELm14ELm15ELm16ELm17ELm18ELm19ELm20ELm21ELm22ELm23ELm24ELm25ELm26ELm27ELm28ELm29ELm30ELm31ELm32ELm33ELm34ELm35ELm36ELm37EEEEE3GetILm36EEERKNS0_12ElemFromListIXT_EJS4_S4_S4_S4_S4_S4_S4_S4_S4_S4_S4_S4_S4_S4_S4_S4_S4_S4_S4_S4_S4_S4_S4_S4_S4_S4_S4_S4_S4_S4_S4_S4_S4_S4_S4_S4_S4_S4_EE4typeEv
FN:1246,_ZNK7testing8internal13FlatTupleBaseINS0_9FlatTupleIJSt5tupleIJiiiEES4_S4_S4_S4_S4_S4_S4_S4_S4_S4_S4_S4_S4_S4_S4_S4_S4_S4_S4_S4_S4_S4_S4_S4_S4_S4_S4_S4_S4_S4_S4_S4_S4_S4_S4_S4_S4_EEENS0_13IndexSequenceIJLm0ELm1ELm2ELm3ELm4ELm5ELm6ELm7ELm8ELm9ELm10ELm11ELm12ELm13ELm14ELm15ELm16ELm17ELm18ELm19ELm20ELm21ELm22ELm23ELm24ELm25ELm26ELm27ELm28ELm29ELm30ELm31ELm32ELm33ELm34ELm35ELm36ELm37EEEEE3GetILm25EEERKNS0_12ElemFromListIXT_EJS4_S4_S4_S4_S4_S4_S4_S4_S4_S4_S4_S4_S4_S4_S4_S4_S4_S4_S4_S4_S4_S4_S4_S4_S4_S4_S4_S4_S4_S4_S4_S4_S4_S4_S4_S4_S4_S4_EE4typeEv
FNDA:9,_ZNK7testing8internal13FlatTupleBaseINS0_9FlatTupleIJSt5tupleIJiiiEES4_S4_S4_S4_S4_S4_S4_S4_S4_S4_S4_S4_S4_S4_S4_S4_S4_S4_S4_S4_S4_S4_S4_S4_S4_S4_S4_S4_S4_S4_S4_S4_S4_S4_S4_S4_S4_EEENS0_13IndexSequenceIJLm0ELm1ELm2ELm3ELm4ELm5ELm6ELm7ELm8ELm9ELm10ELm11ELm12ELm13ELm14ELm15ELm16ELm17ELm18ELm19ELm20ELm21ELm22ELm23ELm24ELm25ELm26ELm27ELm28ELm29ELm30ELm31ELm32ELm33ELm34ELm35ELm36ELm37EEEEE3GetILm25EEERKNS0_12ElemFromListIXT_EJS4_S4_S4_S4_S4_S4_S4_S4_S4_S4_S4_S4_S4_S4_S4_S4_S4_S4_S4_S4_S4_S4_S4_S4_S4_S4_S4_S4_S4_S4_S4_S4_S4_S4_S4_S4_S4_S4_EE4typeEv
FN:1246,_ZNK7testing8internal13FlatTupleBaseINS0_9FlatTupleIJSt5tupleIJiiiEES4_S4_S4_S4_S4_S4_S4_S4_S4_S4_S4_S4_S4_S4_S4_S4_S4_S4_S4_S4_S4_S4_S4_S4_S4_S4_S4_S4_S4_S4_S4_S4_S4_S4_S4_S4_S4_EEENS0_13IndexSequenceIJLm0ELm1ELm2ELm3ELm4ELm5ELm6ELm7ELm8ELm9ELm10ELm11ELm12ELm13ELm14ELm15ELm16ELm17ELm18ELm19ELm20ELm21ELm22ELm23ELm24ELm25ELm26ELm27ELm28ELm29ELm30ELm31ELm32ELm33ELm34ELm35ELm36ELm37EEEEE3GetILm26EEERKNS0_12ElemFromListIXT_EJS4_S4_S4_S4_S4_S4_S4_S4_S4_S4_S4_S4_S4_S4_S4_S4_S4_S4_S4_S4_S4_S4_S4_S4_S4_S4_S4_S4_S4_S4_S4_S4_S4_S4_S4_S4_S4_S4_EE4typeEv
FNDA:9,_ZNK7testing8internal13FlatTupleBaseINS0_9FlatTupleIJSt5tupleIJiiiEES4_S4_S4_S4_S4_S4_S4_S4_S4_S4_S4_S4_S4_S4_S4_S4_S4_S4_S4_S4_S4_S4_S4_S4_S4_S4_S4_S4_S4_S4_S4_S4_S4_S4_S4_S4_S4_EEENS0_13IndexSequenceIJLm0ELm1ELm2ELm3ELm4ELm5ELm6ELm7ELm8ELm9ELm10ELm11ELm12ELm13ELm14ELm15ELm16ELm17ELm18ELm19ELm20ELm21ELm22ELm23ELm24ELm25ELm26ELm27ELm28ELm29ELm30ELm31ELm32ELm33ELm34ELm35ELm36ELm37EEEEE3GetILm26EEERKNS0_12ElemFromListIXT_EJS4_S4_S4_S4_S4_S4_S4_S4_S4_S4_S4_S4_S4_S4_S4_S4_S4_S4_S4_S4_S4_S4_S4_S4_S4_S4_S4_S4_S4_S4_S4_S4_S4_S4_S4_S4_S4_S4_EE4typeEv
FN:1246,_ZNK7testing8internal13FlatTupleBaseINS0_9FlatTupleIJSt5tupleIJiiiEES4_S4_S4_S4_S4_S4_S4_S4_S4_S4_S4_S4_S4_S4_S4_S4_S4_S4_S4_S4_S4_S4_S4_S4_S4_S4_S4_S4_S4_S4_S4_S4_S4_S4_S4_S4_S4_EEENS0_13IndexSequenceIJLm0ELm1ELm2ELm3ELm4ELm5ELm6ELm7ELm8ELm9ELm10ELm11ELm12ELm13ELm14ELm15ELm16ELm17ELm18ELm19ELm20ELm21ELm22ELm23ELm24ELm25ELm26ELm27ELm28ELm29ELm30ELm31ELm32ELm33ELm34ELm35ELm36ELm37EEEEE3GetILm27EEERKNS0_12ElemFromListIXT_EJS4_S4_S4_S4_S4_S4_S4_S4_S4_S4_S4_S4_S4_S4_S4_S4_S4_S4_S4_S4_S4_S4_S4_S4_S4_S4_S4_S4_S4_S4_S4_S4_S4_S4_S4_S4_S4_S4_EE4typeEv
FNDA:9,_ZNK7testing8internal13FlatTupleBaseINS0_9FlatTupleIJSt5tupleIJiiiEES4_S4_S4_S4_S4_S4_S4_S4_S4_S4_S4_S4_S4_S4_S4_S4_S4_S4_S4_S4_S4_S4_S4_S4_S4_S4_S4_S4_S4_S4_S4_S4_S4_S4_S4_S4_S4_EEENS0_13IndexSequenceIJLm0ELm1ELm2ELm3ELm4ELm5ELm6ELm7ELm8ELm9ELm10ELm11ELm12ELm13ELm14ELm15ELm16ELm17ELm18ELm19ELm20ELm21ELm22ELm23ELm24ELm25ELm26ELm27ELm28ELm29ELm30ELm31ELm32ELm33ELm34ELm35ELm36ELm37EEEEE3GetILm27EEERKNS0_12ElemFromListIXT_EJS4_S4_S4_S4_S4_S4_S4_S4_S4_S4_S4_S4_S4_S4_S4_S4_S4_S4_S4_S4_S4_S4_S4_S4_S4_S4_S4_S4_S4_S4_S4_S4_S4_S4_S4_S4_S4_S4_EE4typeEv
FN:1246,_ZNK7testing8internal13FlatTupleBaseINS0_9FlatTupleIJSt5tupleIJiiiEES4_S4_S4_S4_S4_S4_S4_S4_S4_S4_S4_S4_S4_S4_S4_S4_S4_S4_S4_S4_S4_S4_S4_S4_S4_S4_S4_S4_S4_S4_S4_S4_S4_S4_S4_S4_S4_EEENS0_13IndexSequenceIJLm0ELm1ELm2ELm3ELm4ELm5ELm6ELm7ELm8ELm9ELm10ELm11ELm12ELm13ELm14ELm15ELm16ELm17ELm18ELm19ELm20ELm21ELm22ELm23ELm24ELm25ELm26ELm27ELm28ELm29ELm30ELm31ELm32ELm33ELm34ELm35ELm36ELm37EEEEE3GetILm28EEERKNS0_12ElemFromListIXT_EJS4_S4_S4_S4_S4_S4_S4_S4_S4_S4_S4_S4_S4_S4_S4_S4_S4_S4_S4_S4_S4_S4_S4_S4_S4_S4_S4_S4_S4_S4_S4_S4_S4_S4_S4_S4_S4_S4_EE4typeEv
FNDA:9,_ZNK7testing8internal13FlatTupleBaseINS0_9FlatTupleIJSt5tupleIJiiiEES4_S4_S4_S4_S4_S4_S4_S4_S4_S4_S4_S4_S4_S4_S4_S4_S4_S4_S4_S4_S4_S4_S4_S4_S4_S4_S4_S4_S4_S4_S4_S4_S4_S4_S4_S4_S4_EEENS0_13IndexSequenceIJLm0ELm1ELm2ELm3ELm4ELm5ELm6ELm7ELm8ELm9ELm10ELm11ELm12ELm13ELm14ELm15ELm16ELm17ELm18ELm19ELm20ELm21ELm22ELm23ELm24ELm25ELm26ELm27ELm28ELm29ELm30ELm31ELm32ELm33ELm34ELm35ELm36ELm37EEEEE3GetILm28EEERKNS0_12ElemFromListIXT_EJS4_S4_S4_S4_S4_S4_S4_S4_S4_S4_S4_S4_S4_S4_S4_S4_S4_S4_S4_S4_S4_S4_S4_S4_S4_S4_S4_S4_S4_S4_S4_S4_S4_S4_S4_S4_S4_S4_EE4typeEv
FN:1246,_ZNK7testing8internal13FlatTupleBaseINS0_9FlatTupleIJSt5tupleIJiiiEES4_S4_S4_S4_S4_S4_S4_S4_S4_S4_S4_S4_S4_S4_S4_S4_S4_S4_S4_S4_S4_S4_S4_S4_S4_S4_S4_S4_S4_S4_S4_S4_S4_S4_S4_S4_S4_EEENS0_13IndexSequenceIJLm0ELm1ELm2ELm3ELm4ELm5ELm6ELm7ELm8ELm9ELm10ELm11ELm12ELm13ELm14ELm15ELm16ELm17ELm18ELm19ELm20ELm21ELm22ELm23ELm24ELm25ELm26ELm27ELm28ELm29ELm30ELm31ELm32ELm33ELm34ELm35ELm36ELm37EEEEE3GetILm29EEERKNS0_12ElemFromListIXT_EJS4_S4_S4_S4_S4_S4_S4_S4_S4_S4_S4_S4_S4_S4_S4_S4_S4_S4_S4_S4_S4_S4_S4_S4_S4_S4_S4_S4_S4_S4_S4_S4_S4_S4_S4_S4_S4_S4_EE4typeEv
FNDA:9,_ZNK7testing8internal13FlatTupleBaseINS0_9FlatTupleIJSt5tupleIJiiiEES4_S4_S4_S4_S4_S4_S4_S4_S4_S4_S4_S4_S4_S4_S4_S4_S4_S4_S4_S4_S4_S4_S4_S4_S4_S4_S4_S4_S4_S4_S4_S4_S4_S4_S4_S4_S4_EEENS0_13IndexSequenceIJLm0ELm1ELm2ELm3ELm4ELm5ELm6ELm7ELm8ELm9ELm10ELm11ELm12ELm13ELm14ELm15ELm16ELm17ELm18ELm19ELm20ELm21ELm22ELm23ELm24ELm25ELm26ELm27ELm28ELm29ELm30ELm31ELm32ELm33ELm34ELm35ELm36ELm37EEEEE3GetILm29EEERKNS0_12ElemFromListIXT_EJS4_S4_S4_S4_S4_S4_S4_S4_S4_S4_S4_S4_S4_S4_S4_S4_S4_S4_S4_S4_S4_S4_S4_S4_S4_S4_S4_S4_S4_S4_S4_S4_S4_S4_S4_S4_S4_S4_EE4typeEv
FN:1246,_ZNK7testing8internal13FlatTupleBaseINS0_9FlatTupleIJSt5tupleIJiiiEES4_S4_S4_S4_S4_S4_S4_S4_S4_S4_S4_S4_S4_S4_S4_S4_S4_S4_S4_S4_S4_S4_S4_S4_S4_S4_S4_S4_S4_S4_S4_S4_S4_S4_S4_S4_S4_EEENS0_13IndexSequenceIJLm0ELm1ELm2ELm3ELm4ELm5ELm6ELm7ELm8ELm9ELm10ELm11ELm12ELm13ELm14ELm15ELm16ELm17ELm18ELm19ELm20ELm21ELm22ELm23ELm24ELm25ELm26ELm27ELm28ELm29ELm30ELm31ELm32ELm33ELm34ELm35ELm36ELm37EEEEE3GetILm30EEERKNS0_12ElemFromListIXT_EJS4_S4_S4_S4_S4_S4_S4_S4_S4_S4_S4_S4_S4_S4_S4_S4_S4_S4_S4_S4_S4_S4_S4_S4_S4_S4_S4_S4_S4_S4_S4_S4_S4_S4_S4_S4_S4_S4_EE4typeEv
FNDA:9,_ZNK7testing8internal13FlatTupleBaseINS0_9FlatTupleIJSt5tupleIJiiiEES4_S4_S4_S4_S4_S4_S4_S4_S4_S4_S4_S4_S4_S4_S4_S4_S4_S4_S4_S4_S4_S4_S4_S4_S4_S4_S4_S4_S4_S4_S4_S4_S4_S4_S4_S4_S4_EEENS0_13IndexSequenceIJLm0ELm1ELm2ELm3ELm4ELm5ELm6ELm7ELm8ELm9ELm10ELm11ELm12ELm13ELm14ELm15ELm16ELm17ELm18ELm19ELm20ELm21ELm22ELm23ELm24ELm25ELm26ELm27ELm28ELm29ELm30ELm31ELm32ELm33ELm34ELm35ELm36ELm37EEEEE3GetILm30EEERKNS0_12ElemFromListIXT_EJS4_S4_S4_S4_S4_S4_S4_S4_S4_S4_S4_S4_S4_S4_S4_S4_S4_S4_S4_S4_S4_S4_S4_S4_S4_S4_S4_S4_S4_S4_S4_S4_S4_S4_S4_S4_S4_S4_EE4typeEv
FN:1246,_ZNK7testing8internal13FlatTupleBaseINS0_9FlatTupleIJSt5tupleIJiiiEES4_S4_S4_S4_S4_S4_S4_S4_S4_S4_S4_S4_S4_S4_S4_S4_S4_S4_S4_S4_S4_S4_S4_S4_S4_S4_S4_S4_S4_S4_S4_S4_S4_S4_S4_S4_S4_EEENS0_13IndexSequenceIJLm0ELm1ELm2ELm3ELm4ELm5ELm6ELm7ELm8ELm9ELm10ELm11ELm12ELm13ELm14ELm15ELm16ELm17ELm18ELm19ELm20ELm21ELm22ELm23ELm24ELm25ELm26ELm27ELm28ELm29ELm30ELm31ELm32ELm33ELm34ELm35ELm36ELm37EEEEE3GetILm31EEERKNS0_12ElemFromListIXT_EJS4_S4_S4_S4_S4_S4_S4_S4_S4_S4_S4_S4_S4_S4_S4_S4_S4_S4_S4_S4_S4_S4_S4_S4_S4_S4_S4_S4_S4_S4_S4_S4_S4_S4_S4_S4_S4_S4_EE4typeEv
FNDA:9,_ZNK7testing8internal13FlatTupleBaseINS0_9FlatTupleIJSt5tupleIJiiiEES4_S4_S4_S4_S4_S4_S4_S4_S4_S4_S4_S4_S4_S4_S4_S4_S4_S4_S4_S4_S4_S4_S4_S4_S4_S4_S4_S4_S4_S4_S4_S4_S4_S4_S4_S4_S4_EEENS0_13IndexSequenceIJLm0ELm1ELm2ELm3ELm4ELm5ELm6ELm7ELm8ELm9ELm10ELm11ELm12ELm13ELm14ELm15ELm16ELm17ELm18ELm19ELm20ELm21ELm22ELm23ELm24ELm25ELm26ELm27ELm28ELm29ELm30ELm31ELm32ELm33ELm34ELm35ELm36ELm37EEEEE3GetILm31EEERKNS0_12ElemFromListIXT_EJS4_S4_S4_S4_S4_S4_S4_S4_S4_S4_S4_S4_S4_S4_S4_S4_S4_S4_S4_S4_S4_S4_S4_S4_S4_S4_S4_S4_S4_S4_S4_S4_S4_S4_S4_S4_S4_S4_EE4typeEv
FN:1246,_ZNK7testing8internal13FlatTupleBaseINS0_9FlatTupleIJSt5tupleIJiiiEES4_S4_S4_S4_S4_S4_S4_S4_S4_S4_S4_S4_S4_S4_S4_S4_S4_S4_S4_S4_S4_S4_S4_S4_S4_S4_S4_S4_S4_S4_S4_S4_S4_S4_S4_S4_S4_EEENS0_13IndexSequenceIJLm0ELm1ELm2ELm3ELm4ELm5ELm6ELm7ELm8ELm9ELm10ELm11ELm12ELm13ELm14ELm15ELm16ELm17ELm18ELm19ELm20ELm21ELm22ELm23ELm24ELm25ELm26ELm27ELm28ELm29ELm30ELm31ELm32ELm33ELm34ELm35ELm36ELm37EEEEE3GetILm32EEERKNS0_12ElemFromListIXT_EJS4_S4_S4_S4_S4_S4_S4_S4_S4_S4_S4_S4_S4_S4_S4_S4_S4_S4_S4_S4_S4_S4_S4_S4_S4_S4_S4_S4_S4_S4_S4_S4_S4_S4_S4_S4_S4_S4_EE4typeEv
FNDA:9,_ZNK7testing8internal13FlatTupleBaseINS0_9FlatTupleIJSt5tupleIJiiiEES4_S4_S4_S4_S4_S4_S4_S4_S4_S4_S4_S4_S4_S4_S4_S4_S4_S4_S4_S4_S4_S4_S4_S4_S4_S4_S4_S4_S4_S4_S4_S4_S4_S4_S4_S4_S4_EEENS0_13IndexSequenceIJLm0ELm1ELm2ELm3ELm4ELm5ELm6ELm7ELm8ELm9ELm10ELm11ELm12ELm13ELm14ELm15ELm16ELm17ELm18ELm19ELm20ELm21ELm22ELm23ELm24ELm25ELm26ELm27ELm28ELm29ELm30ELm31ELm32ELm33ELm34ELm35ELm36ELm37EEEEE3GetILm32EEERKNS0_12ElemFromListIXT_EJS4_S4_S4_S4_S4_S4_S4_S4_S4_S4_S4_S4_S4_S4_S4_S4_S4_S4_S4_S4_S4_S4_S4_S4_S4_S4_S4_S4_S4_S4_S4_S4_S4_S4_S4_S4_S4_S4_EE4typeEv
FN:1246,_ZNK7testing8internal13FlatTupleBaseINS0_9FlatTupleIJSt5tupleIJiiiEES4_S4_S4_S4_S4_S4_S4_S4_S4_S4_S4_S4_S4_S4_S4_S4_S4_S4_S4_S4_S4_S4_S4_S4_S4_S4_S4_S4_S4_S4_S4_S4_S4_S4_S4_S4_S4_EEENS0_13IndexSequenceIJLm0ELm1ELm2ELm3ELm4ELm5ELm6ELm7ELm8ELm9ELm10ELm11ELm12ELm13ELm14ELm15ELm16ELm17ELm18ELm19ELm20ELm21ELm22ELm23ELm24ELm25ELm26ELm27ELm28ELm29ELm30ELm31ELm32ELm33ELm34ELm35ELm36ELm37EEEEE3GetILm33EEERKNS0_12ElemFromListIXT_EJS4_S4_S4_S4_S4_S4_S4_S4_S4_S4_S4_S4_S4_S4_S4_S4_S4_S4_S4_S4_S4_S4_S4_S4_S4_S4_S4_S4_S4_S4_S4_S4_S4_S4_S4_S4_S4_S4_EE4typeEv
FNDA:9,_ZNK7testing8internal13FlatTupleBaseINS0_9FlatTupleIJSt5tupleIJiiiEES4_S4_S4_S4_S4_S4_S4_S4_S4_S4_S4_S4_S4_S4_S4_S4_S4_S4_S4_S4_S4_S4_S4_S4_S4_S4_S4_S4_S4_S4_S4_S4_S4_S4_S4_S4_S4_EEENS0_13IndexSequenceIJLm0ELm1ELm2ELm3ELm4ELm5ELm6ELm7ELm8ELm9ELm10ELm11ELm12ELm13ELm14ELm15ELm16ELm17ELm18ELm19ELm20ELm21ELm22ELm23ELm24ELm25ELm26ELm27ELm28ELm29ELm30ELm31ELm32ELm33ELm34ELm35ELm36ELm37EEEEE3GetILm33EEERKNS0_12ElemFromListIXT_EJS4_S4_S4_S4_S4_S4_S4_S4_S4_S4_S4_S4_S4_S4_S4_S4_S4_S4_S4_S4_S4_S4_S4_S4_S4_S4_S4_S4_S4_S4_S4_S4_S4_S4_S4_S4_S4_S4_EE4typeEv
FN:1246,_ZNK7testing8internal13FlatTupleBaseINS0_9FlatTupleIJSt5tupleIJiiiEES4_S4_S4_S4_S4_S4_S4_S4_S4_S4_S4_S4_S4_S4_S4_S4_S4_S4_S4_S4_S4_S4_S4_S4_S4_S4_S4_S4_S4_S4_S4_S4_S4_S4_S4_S4_S4_EEENS0_13IndexSequenceIJLm0ELm1ELm2ELm3ELm4ELm5ELm6ELm7ELm8ELm9ELm10ELm11ELm12ELm13ELm14ELm15ELm16ELm17ELm18ELm19ELm20ELm21ELm22ELm23ELm24ELm25ELm26ELm27ELm28ELm29ELm30ELm31ELm32ELm33ELm34ELm35ELm36ELm37EEEEE3GetILm34EEERKNS0_12ElemFromListIXT_EJS4_S4_S4_S4_S4_S4_S4_S4_S4_S4_S4_S4_S4_S4_S4_S4_S4_S4_S4_S4_S4_S4_S4_S4_S4_S4_S4_S4_S4_S4_S4_S4_S4_S4_S4_S4_S4_S4_EE4typeEv
FNDA:9,_ZNK7testing8internal13FlatTupleBaseINS0_9FlatTupleIJSt5tupleIJiiiEES4_S4_S4_S4_S4_S4_S4_S4_S4_S4_S4_S4_S4_S4_S4_S4_S4_S4_S4_S4_S4_S4_S4_S4_S4_S4_S4_S4_S4_S4_S4_S4_S4_S4_S4_S4_S4_EEENS0_13IndexSequenceIJLm0ELm1ELm2ELm3ELm4ELm5ELm6ELm7ELm8ELm9ELm10ELm11ELm12ELm13ELm14ELm15ELm16ELm17ELm18ELm19ELm20ELm21ELm22ELm23ELm24ELm25ELm26ELm27ELm28ELm29ELm30ELm31ELm32ELm33ELm34ELm35ELm36ELm37EEEEE3GetILm34EEERKNS0_12ElemFromListIXT_EJS4_S4_S4_S4_S4_S4_S4_S4_S4_S4_S4_S4_S4_S4_S4_S4_S4_S4_S4_S4_S4_S4_S4_S4_S4_S4_S4_S4_S4_S4_S4_S4_S4_S4_S4_S4_S4_S4_EE4typeEv
FN:1246,_ZNK7testing8internal13FlatTupleBaseINS0_9FlatTupleIJSt5tupleIJiiiEES4_S4_S4_S4_S4_S4_S4_S4_S4_S4_S4_S4_S4_S4_S4_S4_S4_S4_S4_S4_S4_S4_S4_S4_S4_S4_S4_S4_S4_S4_S4_S4_S4_S4_S4_S4_S4_EEENS0_13IndexSequenceIJLm0ELm1ELm2ELm3ELm4ELm5ELm6ELm7ELm8ELm9ELm10ELm11ELm12ELm13ELm14ELm15ELm16ELm17ELm18ELm19ELm20ELm21ELm22ELm23ELm24ELm25ELm26ELm27ELm28ELm29ELm30ELm31ELm32ELm33ELm34ELm35ELm36ELm37EEEEE3GetILm35EEERKNS0_12ElemFromListIXT_EJS4_S4_S4_S4_S4_S4_S4_S4_S4_S4_S4_S4_S4_S4_S4_S4_S4_S4_S4_S4_S4_S4_S4_S4_S4_S4_S4_S4_S4_S4_S4_S4_S4_S4_S4_S4_S4_S4_EE4typeEv
FNDA:9,_ZNK7testing8internal13FlatTupleBaseINS0_9FlatTupleIJSt5tupleIJiiiEES4_S4_S4_S4_S4_S4_S4_S4_S4_S4_S4_S4_S4_S4_S4_S4_S4_S4_S4_S4_S4_S4_S4_S4_S4_S4_S4_S4_S4_S4_S4_S4_S4_S4_S4_S4_S4_EEENS0_13IndexSequenceIJLm0ELm1ELm2ELm3ELm4ELm5ELm6ELm7ELm8ELm9ELm10ELm11ELm12ELm13ELm14ELm15ELm16ELm17ELm18ELm19ELm20ELm21ELm22ELm23ELm24ELm25ELm26ELm27ELm28ELm29ELm30ELm31ELm32ELm33ELm34ELm35ELm36ELm37EEEEE3GetILm35EEERKNS0_12ElemFromListIXT_EJS4_S4_S4_S4_S4_S4_S4_S4_S4_S4_S4_S4_S4_S4_S4_S4_S4_S4_S4_S4_S4_S4_S4_S4_S4_S4_S4_S4_S4_S4_S4_S4_S4_S4_S4_S4_S4_S4_EE4typeEv
FN:1246,_ZNK7testing8internal13FlatTupleBaseINS0_9FlatTupleIJSt5tupleIJiiEES4_S4_S4_S4_S4_S4_S4_S4_S4_S4_S4_S4_S4_S4_S4_S4_S4_S4_S4_S4_S4_S4_S4_S4_S4_S4_S4_S4_S4_S4_S4_S4_S4_S4_S4_S4_S4_EEENS0_13IndexSequenceIJLm0ELm1ELm2ELm3ELm4ELm5ELm6ELm7ELm8ELm9ELm10ELm11ELm12ELm13ELm14ELm15ELm16ELm17ELm18ELm19ELm20ELm21ELm22ELm23ELm24ELm25ELm26ELm27ELm28ELm29ELm30ELm31ELm32ELm33ELm34ELm35ELm36ELm37EEEEE3GetILm6EEERKNS0_12ElemFromListIXT_EJS4_S4_S4_S4_S4_S4_S4_S4_S4_S4_S4_S4_S4_S4_S4_S4_S4_S4_S4_S4_S4_S4_S4_S4_S4_S4_S4_S4_S4_S4_S4_S4_S4_S4_S4_S4_S4_S4_EE4typeEv
FNDA:3,_ZNK7testing8internal13FlatTupleBaseINS0_9FlatTupleIJSt5tupleIJiiEES4_S4_S4_S4_S4_S4_S4_S4_S4_S4_S4_S4_S4_S4_S4_S4_S4_S4_S4_S4_S4_S4_S4_S4_S4_S4_S4_S4_S4_S4_S4_S4_S4_S4_S4_S4_S4_EEENS0_13IndexSequenceIJLm0ELm1ELm2ELm3ELm4ELm5ELm6ELm7ELm8ELm9ELm10ELm11ELm12ELm13ELm14ELm15ELm16ELm17ELm18ELm19ELm20ELm21ELm22ELm23ELm24ELm25ELm26ELm27ELm28ELm29ELm30ELm31ELm32ELm33ELm34ELm35ELm36ELm37EEEEE3GetILm6EEERKNS0_12ElemFromListIXT_EJS4_S4_S4_S4_S4_S4_S4_S4_S4_S4_S4_S4_S4_S4_S4_S4_S4_S4_S4_S4_S4_S4_S4_S4_S4_S4_S4_S4_S4_S4_S4_S4_S4_S4_S4_S4_S4_S4_EE4typeEv
FN:1246,_ZNK7testing8internal13FlatTupleBaseINS0_9FlatTupleIJSt5tupleIJiiiEES4_S4_S4_S4_S4_S4_S4_S4_S4_S4_S4_S4_S4_S4_S4_S4_S4_S4_S4_S4_S4_S4_S4_S4_S4_S4_S4_S4_S4_S4_S4_S4_S4_S4_S4_S4_S4_EEENS0_13IndexSequenceIJLm0ELm1ELm2ELm3ELm4ELm5ELm6ELm7ELm8ELm9ELm10ELm11ELm12ELm13ELm14ELm15ELm16ELm17ELm18ELm19ELm20ELm21ELm22ELm23ELm24ELm25ELm26ELm27ELm28ELm29ELm30ELm31ELm32ELm33ELm34ELm35ELm36ELm37EEEEE3GetILm37EEERKNS0_12ElemFromListIXT_EJS4_S4_S4_S4_S4_S4_S4_S4_S4_S4_S4_S4_S4_S4_S4_S4_S4_S4_S4_S4_S4_S4_S4_S4_S4_S4_S4_S4_S4_S4_S4_S4_S4_S4_S4_S4_S4_S4_EE4typeEv
FNDA:9,_ZNK7testing8internal13FlatTupleBaseINS0_9FlatTupleIJSt5tupleIJiiiEES4_S4_S4_S4_S4_S4_S4_S4_S4_S4_S4_S4_S4_S4_S4_S4_S4_S4_S4_S4_S4_S4_S4_S4_S4_S4_S4_S4_S4_S4_S4_S4_S4_S4_S4_S4_S4_EEENS0_13IndexSequenceIJLm0ELm1ELm2ELm3ELm4ELm5ELm6ELm7ELm8ELm9ELm10ELm11ELm12ELm13ELm14ELm15ELm16ELm17ELm18ELm19ELm20ELm21ELm22ELm23ELm24ELm25ELm26ELm27ELm28ELm29ELm30ELm31ELm32ELm33ELm34ELm35ELm36ELm37EEEEE3GetILm37EEERKNS0_12ElemFromListIXT_EJS4_S4_S4_S4_S4_S4_S4_S4_S4_S4_S4_S4_S4_S4_S4_S4_S4_S4_S4_S4_S4_S4_S4_S4_S4_S4_S4_S4_S4_S4_S4_S4_S4_S4_S4_S4_S4_S4_EE4typeEv
FN:1246,_ZNK7testing8internal13FlatTupleBaseINS0_9FlatTupleIJSt5tupleIJiiEES4_S4_S4_S4_S4_S4_S4_S4_S4_S4_S4_S4_S4_S4_S4_S4_S4_S4_S4_S4_S4_S4_S4_S4_S4_S4_S4_S4_S4_S4_S4_S4_S4_S4_S4_S4_S4_EEENS0_13IndexSequenceIJLm0ELm1ELm2ELm3ELm4ELm5ELm6ELm7ELm8ELm9ELm10ELm11ELm12ELm13ELm14ELm15ELm16ELm17ELm18ELm19ELm20ELm21ELm22ELm23ELm24ELm25ELm26ELm27ELm28ELm29ELm30ELm31ELm32ELm33ELm34ELm35ELm36ELm37EEEEE3GetILm0EEERKNS0_12ElemFromListIXT_EJS4_S4_S4_S4_S4_S4_S4_S4_S4_S4_S4_S4_S4_S4_S4_S4_S4_S4_S4_S4_S4_S4_S4_S4_S4_S4_S4_S4_S4_S4_S4_S4_S4_S4_S4_S4_S4_S4_EE4typeEv
FNDA:3,_ZNK7testing8internal13FlatTupleBaseINS0_9FlatTupleIJSt5tupleIJiiEES4_S4_S4_S4_S4_S4_S4_S4_S4_S4_S4_S4_S4_S4_S4_S4_S4_S4_S4_S4_S4_S4_S4_S4_S4_S4_S4_S4_S4_S4_S4_S4_S4_S4_S4_S4_S4_EEENS0_13IndexSequenceIJLm0ELm1ELm2ELm3ELm4ELm5ELm6ELm7ELm8ELm9ELm10ELm11ELm12ELm13ELm14ELm15ELm16ELm17ELm18ELm19ELm20ELm21ELm22ELm23ELm24ELm25ELm26ELm27ELm28ELm29ELm30ELm31ELm32ELm33ELm34ELm35ELm36ELm37EEEEE3GetILm0EEERKNS0_12ElemFromListIXT_EJS4_S4_S4_S4_S4_S4_S4_S4_S4_S4_S4_S4_S4_S4_S4_S4_S4_S4_S4_S4_S4_S4_S4_S4_S4_S4_S4_S4_S4_S4_S4_S4_S4_S4_S4_S4_S4_S4_EE4typeEv
FN:1246,_ZNK7testing8internal13FlatTupleBaseINS0_9FlatTupleIJSt5tupleIJiiEES4_S4_S4_S4_S4_S4_S4_S4_S4_S4_S4_S4_S4_S4_S4_S4_S4_S4_S4_S4_S4_S4_S4_S4_S4_S4_S4_S4_S4_S4_S4_S4_S4_S4_S4_S4_S4_EEENS0_13IndexSequenceIJLm0ELm1ELm2ELm3ELm4ELm5ELm6ELm7ELm8ELm9ELm10ELm11ELm12ELm13ELm14ELm15ELm16ELm17ELm18ELm19ELm20ELm21ELm22ELm23ELm24ELm25ELm26ELm27ELm28ELm29ELm30ELm31ELm32ELm33ELm34ELm35ELm36ELm37EEEEE3GetILm1EEERKNS0_12ElemFromListIXT_EJS4_S4_S4_S4_S4_S4_S4_S4_S4_S4_S4_S4_S4_S4_S4_S4_S4_S4_S4_S4_S4_S4_S4_S4_S4_S4_S4_S4_S4_S4_S4_S4_S4_S4_S4_S4_S4_S4_EE4typeEv
FNDA:3,_ZNK7testing8internal13FlatTupleBaseINS0_9FlatTupleIJSt5tupleIJiiEES4_S4_S4_S4_S4_S4_S4_S4_S4_S4_S4_S4_S4_S4_S4_S4_S4_S4_S4_S4_S4_S4_S4_S4_S4_S4_S4_S4_S4_S4_S4_S4_S4_S4_S4_S4_S4_EEENS0_13IndexSequenceIJLm0ELm1ELm2ELm3ELm4ELm5ELm6ELm7ELm8ELm9ELm10ELm11ELm12ELm13ELm14ELm15ELm16ELm17ELm18ELm19ELm20ELm21ELm22ELm23ELm24ELm25ELm26ELm27ELm28ELm29ELm30ELm31ELm32ELm33ELm34ELm35ELm36ELm37EEEEE3GetILm1EEERKNS0_12ElemFromListIXT_EJS4_S4_S4_S4_S4_S4_S4_S4_S4_S4_S4_S4_S4_S4_S4_S4_S4_S4_S4_S4_S4_S4_S4_S4_S4_S4_S4_S4_S4_S4_S4_S4_S4_S4_S4_S4_S4_S4_EE4typeEv
FN:1246,_ZNK7testing8internal13FlatTupleBaseINS0_9FlatTupleIJSt5tupleIJiiEES4_S4_S4_S4_S4_S4_S4_S4_S4_S4_S4_S4_S4_S4_S4_S4_S4_S4_S4_S4_S4_S4_S4_S4_S4_S4_S4_S4_S4_S4_S4_S4_S4_S4_S4_S4_S4_EEENS0_13IndexSequenceIJLm0ELm1ELm2ELm3ELm4ELm5ELm6ELm7ELm8ELm9ELm10ELm11ELm12ELm13ELm14ELm15ELm16ELm17ELm18ELm19ELm20ELm21ELm22ELm23ELm24ELm25ELm26ELm27ELm28ELm29ELm30ELm31ELm32ELm33ELm34ELm35ELm36ELm37EEEEE3GetILm2EEERKNS0_12ElemFromListIXT_EJS4_S4_S4_S4_S4_S4_S4_S4_S4_S4_S4_S4_S4_S4_S4_S4_S4_S4_S4_S4_S4_S4_S4_S4_S4_S4_S4_S4_S4_S4_S4_S4_S4_S4_S4_S4_S4_S4_EE4typeEv
FNDA:3,_ZNK7testing8internal13FlatTupleBaseINS0_9FlatTupleIJSt5tupleIJiiEES4_S4_S4_S4_S4_S4_S4_S4_S4_S4_S4_S4_S4_S4_S4_S4_S4_S4_S4_S4_S4_S4_S4_S4_S4_S4_S4_S4_S4_S4_S4_S4_S4_S4_S4_S4_S4_EEENS0_13IndexSequenceIJLm0ELm1ELm2ELm3ELm4ELm5ELm6ELm7ELm8ELm9ELm10ELm11ELm12ELm13ELm14ELm15ELm16ELm17ELm18ELm19ELm20ELm21ELm22ELm23ELm24ELm25ELm26ELm27ELm28ELm29ELm30ELm31ELm32ELm33ELm34ELm35ELm36ELm37EEEEE3GetILm2EEERKNS0_12ElemFromListIXT_EJS4_S4_S4_S4_S4_S4_S4_S4_S4_S4_S4_S4_S4_S4_S4_S4_S4_S4_S4_S4_S4_S4_S4_S4_S4_S4_S4_S4_S4_S4_S4_S4_S4_S4_S4_S4_S4_S4_EE4typeEv
FN:1246,_ZNK7testing8internal13FlatTupleBaseINS0_9FlatTupleIJSt5tupleIJiiEES4_S4_S4_S4_S4_S4_S4_S4_S4_S4_S4_S4_S4_S4_S4_S4_S4_S4_S4_S4_S4_S4_S4_S4_S4_S4_S4_S4_S4_S4_S4_S4_S4_S4_S4_S4_S4_EEENS0_13IndexSequenceIJLm0ELm1ELm2ELm3ELm4ELm5ELm6ELm7ELm8ELm9ELm10ELm11ELm12ELm13ELm14ELm15ELm16ELm17ELm18ELm19ELm20ELm21ELm22ELm23ELm24ELm25ELm26ELm27ELm28ELm29ELm30ELm31ELm32ELm33ELm34ELm35ELm36ELm37EEEEE3GetILm3EEERKNS0_12ElemFromListIXT_EJS4_S4_S4_S4_S4_S4_S4_S4_S4_S4_S4_S4_S4_S4_S4_S4_S4_S4_S4_S4_S4_S4_S4_S4_S4_S4_S4_S4_S4_S4_S4_S4_S4_S4_S4_S4_S4_S4_EE4typeEv
FNDA:3,_ZNK7testing8internal13FlatTupleBaseINS0_9FlatTupleIJSt5tupleIJiiEES4_S4_S4_S4_S4_S4_S4_S4_S4_S4_S4_S4_S4_S4_S4_S4_S4_S4_S4_S4_S4_S4_S4_S4_S4_S4_S4_S4_S4_S4_S4_S4_S4_S4_S4_S4_S4_EEENS0_13IndexSequenceIJLm0ELm1ELm2ELm3ELm4ELm5ELm6ELm7ELm8ELm9ELm10ELm11ELm12ELm13ELm14ELm15ELm16ELm17ELm18ELm19ELm20ELm21ELm22ELm23ELm24ELm25ELm26ELm27ELm28ELm29ELm30ELm31ELm32ELm33ELm34ELm35ELm36ELm37EEEEE3GetILm3EEERKNS0_12ElemFromListIXT_EJS4_S4_S4_S4_S4_S4_S4_S4_S4_S4_S4_S4_S4_S4_S4_S4_S4_S4_S4_S4_S4_S4_S4_S4_S4_S4_S4_S4_S4_S4_S4_S4_S4_S4_S4_S4_S4_S4_EE4typeEv
FN:1246,_ZNK7testing8internal13FlatTupleBaseINS0_9FlatTupleIJSt5tupleIJiiEES4_S4_S4_S4_S4_S4_S4_S4_S4_S4_S4_S4_S4_S4_S4_S4_S4_S4_S4_S4_S4_S4_S4_S4_S4_S4_S4_S4_S4_S4_S4_S4_S4_S4_S4_S4_S4_EEENS0_13IndexSequenceIJLm0ELm1ELm2ELm3ELm4ELm5ELm6ELm7ELm8ELm9ELm10ELm11ELm12ELm13ELm14ELm15ELm16ELm17ELm18ELm19ELm20ELm21ELm22ELm23ELm24ELm25ELm26ELm27ELm28ELm29ELm30ELm31ELm32ELm33ELm34ELm35ELm36ELm37EEEEE3GetILm4EEERKNS0_12ElemFromListIXT_EJS4_S4_S4_S4_S4_S4_S4_S4_S4_S4_S4_S4_S4_S4_S4_S4_S4_S4_S4_S4_S4_S4_S4_S4_S4_S4_S4_S4_S4_S4_S4_S4_S4_S4_S4_S4_S4_S4_EE4typeEv
FNDA:3,_ZNK7testing8internal13FlatTupleBaseINS0_9FlatTupleIJSt5tupleIJiiEES4_S4_S4_S4_S4_S4_S4_S4_S4_S4_S4_S4_S4_S4_S4_S4_S4_S4_S4_S4_S4_S4_S4_S4_S4_S4_S4_S4_S4_S4_S4_S4_S4_S4_S4_S4_S4_EEENS0_13IndexSequenceIJLm0ELm1ELm2ELm3ELm4ELm5ELm6ELm7ELm8ELm9ELm10ELm11ELm12ELm13ELm14ELm15ELm16ELm17ELm18ELm19ELm20ELm21ELm22ELm23ELm24ELm25ELm26ELm27ELm28ELm29ELm30ELm31ELm32ELm33ELm34ELm35ELm36ELm37EEEEE3GetILm4EEERKNS0_12ElemFromListIXT_EJS4_S4_S4_S4_S4_S4_S4_S4_S4_S4_S4_S4_S4_S4_S4_S4_S4_S4_S4_S4_S4_S4_S4_S4_S4_S4_S4_S4_S4_S4_S4_S4_S4_S4_S4_S4_S4_S4_EE4typeEv
FN:1246,_ZNK7testing8internal13FlatTupleBaseINS0_9FlatTupleIJSt5tupleIJiiEES4_S4_S4_S4_S4_S4_S4_S4_S4_S4_S4_S4_S4_S4_S4_S4_S4_S4_S4_S4_S4_S4_S4_S4_S4_S4_S4_S4_S4_S4_S4_S4_S4_S4_S4_S4_S4_EEENS0_13IndexSequenceIJLm0ELm1ELm2ELm3ELm4ELm5ELm6ELm7ELm8ELm9ELm10ELm11ELm12ELm13ELm14ELm15ELm16ELm17ELm18ELm19ELm20ELm21ELm22ELm23ELm24ELm25ELm26ELm27ELm28ELm29ELm30ELm31ELm32ELm33ELm34ELm35ELm36ELm37EEEEE3GetILm5EEERKNS0_12ElemFromListIXT_EJS4_S4_S4_S4_S4_S4_S4_S4_S4_S4_S4_S4_S4_S4_S4_S4_S4_S4_S4_S4_S4_S4_S4_S4_S4_S4_S4_S4_S4_S4_S4_S4_S4_S4_S4_S4_S4_S4_EE4typeEv
FNDA:3,_ZNK7testing8internal13FlatTupleBaseINS0_9FlatTupleIJSt5tupleIJiiEES4_S4_S4_S4_S4_S4_S4_S4_S4_S4_S4_S4_S4_S4_S4_S4_S4_S4_S4_S4_S4_S4_S4_S4_S4_S4_S4_S4_S4_S4_S4_S4_S4_S4_S4_S4_S4_EEENS0_13IndexSequenceIJLm0ELm1ELm2ELm3ELm4ELm5ELm6ELm7ELm8ELm9ELm10ELm11ELm12ELm13ELm14ELm15ELm16ELm17ELm18ELm19ELm20ELm21ELm22ELm23ELm24ELm25ELm26ELm27ELm28ELm29ELm30ELm31ELm32ELm33ELm34ELm35ELm36ELm37EEEEE3GetILm5EEERKNS0_12ElemFromListIXT_EJS4_S4_S4_S4_S4_S4_S4_S4_S4_S4_S4_S4_S4_S4_S4_S4_S4_S4_S4_S4_S4_S4_S4_S4_S4_S4_S4_S4_S4_S4_S4_S4_S4_S4_S4_S4_S4_S4_EE4typeEv
FN:1285,_ZN7testing8internal9FlatTupleIJSt5tupleIJiiEES3_S3_S3_S3_S3_S3_S3_S3_S3_S3_S3_S3_S3_S3_S3_S3_S3_S3_S3_S3_S3_S3_S3_S3_S3_S3_S3_S3_S3_S3_S3_S3_S3_S3_S3_S3_S3_EEC2IJS3_S3_S3_S3_S3_S3_S3_S3_S3_S3_S3_S3_S3_S3_S3_S3_S3_S3_S3_S3_S3_S3_S3_S3_S3_S3_S3_S3_S3_S3_S3_S3_S3_S3_S3_S3_S3_S3_EEENS0_21FlatTupleConstructTagEDpOT_
FNDA:3,_ZN7testing8internal9FlatTupleIJSt5tupleIJiiEES3_S3_S3_S3_S3_S3_S3_S3_S3_S3_S3_S3_S3_S3_S3_S3_S3_S3_S3_S3_S3_S3_S3_S3_S3_S3_S3_S3_S3_S3_S3_S3_S3_S3_S3_S3_S3_EEC2IJS3_S3_S3_S3_S3_S3_S3_S3_S3_S3_S3_S3_S3_S3_S3_S3_S3_S3_S3_S3_S3_S3_S3_S3_S3_S3_S3_S3_S3_S3_S3_S3_S3_S3_S3_S3_S3_S3_EEENS0_21FlatTupleConstructTagEDpOT_
FN:1285,_ZN7testing8internal9FlatTupleIJSt5tupleIJiiEES3_EEC2IJS3_S3_EEENS0_21FlatTupleConstructTagEDpOT_
FNDA:6,_ZN7testing8internal9FlatTupleIJSt5tupleIJiiEES3_EEC2IJS3_S3_EEENS0_21FlatTupleConstructTagEDpOT_
FN:1285,_ZN7testing8internal9FlatTupleIJSt5tupleIJiiiEES3_S3_S3_S3_S3_S3_S3_S3_S3_S3_S3_S3_S3_S3_S3_S3_S3_S3_S3_S3_S3_S3_S3_S3_S3_S3_S3_S3_S3_S3_S3_S3_S3_S3_S3_S3_S3_EEC2IJS3_S3_S3_S3_S3_S3_S3_S3_S3_S3_S3_S3_S3_S3_S3_S3_S3_S3_S3_S3_S3_S3_S3_S3_S3_S3_S3_S3_S3_S3_S3_S3_S3_S3_S3_S3_S3_S3_EEENS0_21FlatTupleConstructTagEDpOT_
FNDA:9,_ZN7testing8internal9FlatTupleIJSt5tupleIJiiiEES3_S3_S3_S3_S3_S3_S3_S3_S3_S3_S3_S3_S3_S3_S3_S3_S3_S3_S3_S3_S3_S3_S3_S3_S3_S3_S3_S3_S3_S3_S3_S3_S3_S3_S3_S3_S3_EEC2IJS3_S3_S3_S3_S3_S3_S3_S3_S3_S3_S3_S3_S3_S3_S3_S3_S3_S3_S3_S3_S3_S3_S3_S3_S3_S3_S3_S3_S3_S3_S3_S3_S3_S3_S3_S3_S3_S3_EEENS0_21FlatTupleConstructTagEDpOT_
DA:435,120
DA:440,120
DA:435,120
DA:440,120
DA:435,120
DA:440,120
DA:435,120
DA:440,120
DA:435,12
DA:440,12
DA:435,12
DA:440,12
DA:435,24
DA:440,24
DA:454,0
DA:454,531
DA:461,531
DA:472,3
DA:472,3
DA:472,3
DA:472,3
DA:472,3
DA:472,3
DA:472,3
DA:472,3
DA:472,3
DA:472,3
DA:472,3
DA:472,3
DA:472,3
DA:472,3
DA:472,3
DA:472,3
DA:472,3
DA:472,3
DA:472,3
DA:472,3
DA:472,3
DA:493,117
DA:494,117
DA:506,2124
DA:508,2124
DA:521,6
DA:525,6
DA:527,6
DA:529,6
DA:532,0
DA:534,6
DA:521,6
DA:525,6
DA:527,6
DA:529,6
DA:532,0
DA:534,6
DA:521,114
DA:525,114
DA:527,114
DA:529,114
DA:532,0
DA:534,114
DA:521,114
DA:525,114
DA:527,114
DA:529,114
DA:532,0
DA:534,114
DA:521,114
DA:525,114
DA:527,114
DA:529,114
DA:532,0
DA:534,114
DA:521,114
DA:525,114
DA:527,114
DA:529,114
DA:532,0
DA:534,114
DA:521,24
DA:525,24
DA:527,24
DA:529,24
DA:532,0
DA:534,24
DA:521,39
DA:525,39
DA:527,39
DA:529,39
DA:532,0
DA:534,39
DA:542,6
DA:546,6
DA:548,6
DA:550,6
DA:553,0
DA:555,6
DA:542,6
DA:546,6
DA:548,6
DA:550,6
DA:553,0
DA:555,6
DA:542,114
DA:546,114
DA:548,114
DA:550,114
DA:553,0
DA:555,114
DA:542,114
DA:546,114
DA:548,114
DA:550,114
DA:553,0
DA:555,114
DA:542,114
DA:546,114
DA:548,114
DA:550,114
DA:553,0
DA:555,114
DA:542,114
DA:546,114
DA:548,114
DA:550,114
DA:553,0
DA:555,114
DA:542,24
DA:546,24
DA:548,24
DA:550,24
DA:553,0
DA:555,24
DA:542,39
DA:546,39
DA:548,39
DA:550,39
DA:553,0
DA:555,39
DA:844,468
DA:1227,9
DA:1228,9
DA:1227,9
DA:1228,9
DA:1227,9
DA:1228,9
DA:1227,9
DA:1228,9
DA:1227,9
DA:1228,9
DA:1227,9
DA:1228,9
DA:1227,9
DA:1228,9
DA:1227,9
DA:1228,9
DA:1227,9
DA:1228,9
DA:1227,9
DA:1228,9
DA:1227,9
DA:1228,9
DA:1227,9
DA:1228,9
DA:1227,9
DA:1228,9
DA:1227,9
DA:1228,9
DA:1227,9
DA:1228,9
DA:1227,9
DA:1228,9
DA:1227,9
DA:1228,9
DA:1227,9
DA:1228,9
DA:1227,9
DA:1228,9
DA:1227,9
DA:1228,9
DA:1227,9
DA:1228,9
DA:1227,6
DA:1228,6
DA:1227,6
DA:1228,6
DA:1227,9
DA:1228,9
DA:1227,9
DA:1228,9
DA:1227,9
DA:1228,9
DA:1227,9
DA:1228,9
DA:1227,9
DA:1228,9
DA:1227,9
DA:1228,9
DA:1227,9
DA:1228,9
DA:1227,9
DA:1228,9
DA:1227,9
DA:1228,9
DA:1227,9
DA:1228,9
DA:1227,9
DA:1228,9
DA:1227,9
DA:1228,9
DA:1227,9
DA:1228,9
DA:1227,9
DA:1228,9
DA:1227,9
DA:1228,9
DA:1227,9
DA:1228,9
DA:1227,3
DA:1228,3
DA:1227,3
DA:1228,3
DA:1227,3
DA:1228,3
DA:1227,3
DA:1228,3
DA:1227,3
DA:1228,3
DA:1227,3
DA:1228,3
DA:1227,3
DA:1228,3
DA:1227,3
DA:1228,3
DA:1227,3
DA:1228,3
DA:1227,3
DA:1228,3
DA:1227,3
DA:1228,3
DA:1227,3
DA:1228,3
DA:1227,3
DA:1228,3
DA:1227,3
DA:1228,3
DA:1227,3
DA:1228,3
DA:1227,3
DA:1228,3
DA:1227,3
DA:1228,3
DA:1227,3
DA:1228,3
DA:1227,3
DA:1228,3
DA:1227,3
DA:1228,3
DA:1227,3
DA:1228,3
DA:1227,9
DA:1228,9
DA:1227,3
DA:1228,3
DA:1227,3
DA:1228,3
DA:1227,3
DA:1228,3
DA:1227,3
DA:1228,3
DA:1227,3
DA:1228,3
DA:1227,3
DA:1228,3
DA:1227,3
DA:1228,3
DA:1227,3
DA:1228,3
DA:1227,3
DA:1228,3
DA:1227,3
DA:1228,3
DA:1227,3
DA:1228,3
DA:1227,3
DA:1228,3
DA:1227,3
DA:1228,3
DA:1227,3
DA:1228,3
DA:1227,3
DA:1228,3
DA:1227,3
DA:1228,3
DA:1227,3
DA:1228,3
DA:1241,3
DA:1243,3
DA:1241,9
DA:1243,9
DA:1241,6
DA:1243,6
DA:1246,9
DA:1247,9
DA:1246,9
DA:1247,9
DA:1246,9
DA:1247,9
DA:1246,9
DA:1247,9
DA:1246,9
DA:1247,9
DA:1246,9
DA:1247,9
DA:1246,9
DA:1247,9
DA:1246,9
DA:1247,9
DA:1246,9
DA:1247,9
DA:1246,9
DA:1247,9
DA:1246,9
DA:1247,9
DA:1246,9
DA:1247,9
DA:1246,9
DA:1247,9
DA:1246,9
DA:1247,9
DA:1246,9
DA:1247,9
DA:1246,9
DA:1247,9
DA:1246,9
DA:1247,9
DA:1246,9
DA:1247,9
DA:1246,9
DA:1247,9
DA:1246,9
DA:1247,9
DA:1246,9
DA:1247,9
DA:1246,6
DA:1247,6
DA:1246,6
DA:1247,6
DA:1246,9
DA:1247,9
DA:1246,9
DA:1247,9
DA:1246,9
DA:1247,9
DA:1246,9
DA:1247,9
DA:1246,9
DA:1247,9
DA:1246,9
DA:1247,9
DA:1246,9
DA:1247,9
DA:1246,9
DA:1247,9
DA:1246,9
DA:1247,9
DA:1246,9
DA:1247,9
DA:1246,9
DA:1247,9
DA:1246,9
DA:1247,9
DA:1246,9
DA:1247,9
DA:1246,9
DA:1247,9
DA:1246,9
DA:1247,9
DA:1246,9
DA:1247,9
DA:1246,3
DA:1247,3
DA:1246,3
DA:1247,3
DA:1246,3
DA:1247,3
DA:1246,3
DA:1247,3
DA:1246,3
DA:1247,3
DA:1246,3
DA:1247,3
DA:1246,3
DA:1247,3
DA:1246,3
DA:1247,3
DA:1246,3
DA:1247,3
DA:1246,3
DA:1247,3
DA:1246,3
DA:1247,3
DA:1246,3
DA:1247,3
DA:1246,3
DA:1247,3
DA:1246,3
DA:1247,3
DA:1246,3
DA:1247,3
DA:1246,3
DA:1247,3
DA:1246,3
DA:1247,3
DA:1246,3
DA:1247,3
DA:1246,3
DA:1247,3
DA:1246,3
DA:1247,3
DA:1246,3
DA:1247,3
DA:1246,9
DA:1247,9
DA:1246,3
DA:1247,3
DA:1246,3
DA:1247,3
DA:1246,3
DA:1247,3
DA:1246,3
DA:1247,3
DA:1246,3
DA:1247,3
DA:1246,3
DA:1247,3
DA:1246,3
DA:1247,3
DA:1246,3
DA:1247,3
DA:1246,3
DA:1247,3
DA:1246,3
DA:1247,3
DA:1246,3
DA:1247,3
DA:1246,3
DA:1247,3
DA:1246,3
DA:1247,3
DA:1246,3
DA:1247,3
DA:1246,3
DA:1247,3
DA:1246,3
DA:1247,3
DA:1246,3
DA:1247,3
DA:1285,3
DA:1286,3
DA:1285,9
DA:1286,9
DA:1285,6
DA:1286,6
end_of_record
SF:/usr/include/c++/11/ext/atomicity.h
DA:52,108
DA:66,0
DA:71,0
DA:84,90
DA:85,90
DA:86,90
DA:92,18
DA:98,90
DA:99,90
DA:101,0
DA:108,18
DA:112,18
end_of_record
SF:/usr/include/c++/11/bits/stl_iterator_base_types.h
FN:238,_ZSt19__iterator_categoryIN9__gnu_cxx17__normal_iteratorIPKSt5tupleIJiiiEESt6vectorIS3_SaIS3_EEEEENSt15iterator_traitsIT_E17iterator_categoryERKSB_
FNDA:18,_ZSt19__iterator_categoryIN9__gnu_cxx17__normal_iteratorIPKSt5tupleIJiiiEESt6vectorIS3_SaIS3_EEEEENSt15iterator_traitsIT_E17iterator_categoryERKSB_
FN:238,_ZSt19__iterator_categoryIPKSt5tupleIJiiiEEENSt15iterator_traitsIT_E17iterator_categoryERKS5_
FNDA:9,_ZSt19__iterator_categoryIPKSt5tupleIJiiiEEENSt15iterator_traitsIT_E17iterator_categoryERKS5_
FN:238,_ZSt19__iterator_categoryIN9__gnu_cxx17__normal_iteratorIPKSt5tupleIJiiEESt6vectorIS3_SaIS3_EEEEENSt15iterator_traitsIT_E17iterator_categoryERKSB_
FNDA:18,_ZSt19__iterator_categoryIN9__gnu_cxx17__normal_iteratorIPKSt5tupleIJiiEESt6vectorIS3_SaIS3_EEEEENSt15iterator_traitsIT_E17iterator_categoryERKSB_
FN:238,_ZSt19__iterator_categoryIPKSt5tupleIJiiEEENSt15iterator_traitsIT_E17iterator_categoryERKS5_
FNDA:9,_ZSt19__iterator_categoryIPKSt5tupleIJiiEEENSt15iterator_traitsIT_E17iterator_categoryERKS5_
FN:238,_ZSt19__iterator_categoryIPcENSt15iterator_traitsIT_E17iterator_categoryERKS2_
FNDA:0,_ZSt19__iterator_categoryIPcENSt15iterator_traitsIT_E17iterator_categoryERKS2_
FN:238,_ZSt19__iterator_categoryIPKcENSt15iterator_traitsIT_E17iterator_categoryERKS3_
FNDA:0,_ZSt19__iterator_categoryIPKcENSt15iterator_traitsIT_E17iterator_categoryERKS3_
DA:238,18
DA:239,18
DA:238,9
DA:239,9
DA:238,18
DA:239,18
DA:238,9
DA:239,9
DA:238,0
DA:239,0
DA:238,0
DA:239,0
end_of_record
SF:/home/jihwan/KeyLimePie/ossavltree/test.cc
FN:18,_ZN14SetTestFixtureC2Ev
FNDA:24,_ZN14SetTestFixtureC2Ev
FN:22,_ZN14SetTestFixtureD2Ev
FNDA:24,_ZN14SetTestFixtureD2Ev
FN:22,_ZN14SetTestFixtureD0Ev
FNDA:0,_ZN14SetTestFixtureD0Ev
FN:26,_ZN14SetTestFixture13SetUpTestCaseEv
FNDA:3,_ZN14SetTestFixture13SetUpTestCaseEv
FN:30,_ZN14SetTestFixture16TearDownTestCaseEv
FNDA:3,_ZN14SetTestFixture16TearDownTestCaseEv
FN:34,_ZN14SetTestFixture5SetUpEv
FNDA:24,_ZN14SetTestFixture5SetUpEv
FN:45,_ZN14SetTestFixture8TearDownEv
FNDA:24,_ZN14SetTestFixture8TearDownEv
FN:88,_ZL60gtest_LXRotateInsertTestLXRotateInsertFixture_EvalGenerator_v
FNDA:3,_ZL60gtest_LXRotateInsertTestLXRotateInsertFixture_EvalGenerator_v
FN:88,_ZL63gtest_LXRotateInsertTestLXRotateInsertFixture_EvalGenerateName_RKN7testing13TestParamInfoISt5tupleIJiiEEEE
FNDA:6,_ZL63gtest_LXRotateInsertTestLXRotateInsertFixture_EvalGenerateName_RKN7testing13TestParamInfoISt5tupleIJiiEEEE
FN:92,_ZL60gtest_RXRotateInsertTestRXRotateInsertFixture_EvalGenerator_v
FNDA:3,_ZL60gtest_RXRotateInsertTestRXRotateInsertFixture_EvalGenerator_v
FN:92,_ZL63gtest_RXRotateInsertTestRXRotateInsertFixture_EvalGenerateName_RKN7testing13TestParamInfoISt5tupleIJiiEEEE
FNDA:6,_ZL63gtest_RXRotateInsertTestRXRotateInsertFixture_EvalGenerateName_RKN7testing13TestParamInfoISt5tupleIJiiEEEE
FN:96,_ZL46gtest_MinimumTestMinimumFixture_EvalGenerator_v
FNDA:3,_ZL46gtest_MinimumTestMinimumFixture_EvalGenerator_v
FN:96,_ZL49gtest_MinimumTestMinimumFixture_EvalGenerateName_RKN7testing13TestParamInfoISt5tupleIJiiiEEEE
FNDA:114,_ZL49gtest_MinimumTestMinimumFixture_EvalGenerateName_RKN7testing13TestParamInfoISt5tupleIJiiiEEEE
FN:108,_ZL49gtest_MinimumTestMaximumFixture_EvalGenerateName_RKN7testing13TestParamInfoISt5tupleIJiiiEEEE
FNDA:114,_ZL49gtest_MinimumTestMaximumFixture_EvalGenerateName_RKN7testing13TestParamInfoISt5tupleIJiiiEEEE
FN:108,_ZL46gtest_MinimumTestMaximumFixture_EvalGenerator_v
FNDA:3,_ZL46gtest_MinimumTestMaximumFixture_EvalGenerator_v
FN:120,_ZL40gtest_RankTestRankFixture_EvalGenerator_v
FNDA:3,_ZL40gtest_RankTestRankFixture_EvalGenerator_v
FN:120,_ZL43gtest_RankTestRankFixture_EvalGenerateName_RKN7testing13TestParamInfoISt5tupleIJiiiEEEE
FNDA:114,_ZL43gtest_RankTestRankFixture_EvalGenerateName_RKN7testing13TestParamInfoISt5tupleIJiiiEEEE
FN:132,_ZL40gtest_FindTestFindFixture_EvalGenerator_v
FNDA:3,_ZL40gtest_FindTestFindFixture_EvalGenerator_v
FN:132,_ZL43gtest_FindTestFindFixture_EvalGenerateName_RKN7testing13TestParamInfoISt5tupleIJiiEEEE
FNDA:114,_ZL43gtest_FindTestFindFixture_EvalGenerateName_RKN7testing13TestParamInfoISt5tupleIJiiEEEE
FN:144,_ZN33InsertTest_TestInsertOnEmpty_TestC2Ev
FNDA:3,_ZN33InsertTest_TestInsertOnEmpty_TestC2Ev
FN:144,_ZN33InsertTest_TestInsertOnEmpty_TestD2Ev
FNDA:3,_ZN33InsertTest_TestInsertOnEmpty_TestD2Ev
FN:144,_ZN33InsertTest_TestInsertOnEmpty_Test8TestBodyEv
FNDA:3,_ZN33InsertTest_TestInsertOnEmpty_Test8TestBodyEv
FN:144,_ZN33InsertTest_TestInsertOnEmpty_TestD0Ev
FNDA:3,_ZN33InsertTest_TestInsertOnEmpty_TestD0Ev
FN:149,_ZN31EmptyTest_TestEmptyOnEmpty_TestC2Ev
FNDA:3,_ZN31EmptyTest_TestEmptyOnEmpty_TestC2Ev
FN:149,_ZN31EmptyTest_TestEmptyOnEmpty_Test8TestBodyEv
FNDA:3,_ZN31EmptyTest_TestEmptyOnEmpty_Test8TestBodyEv
FN:149,_ZN31EmptyTest_TestEmptyOnEmpty_TestD0Ev
FNDA:3,_ZN31EmptyTest_TestEmptyOnEmpty_TestD0Ev
FN:149,_ZN31EmptyTest_TestEmptyOnEmpty_TestD2Ev
FNDA:3,_ZN31EmptyTest_TestEmptyOnEmpty_TestD2Ev
FN:154,_ZN34EmptyTest_TestEmptyOnNotEmpty_TestD2Ev
FNDA:3,_ZN34EmptyTest_TestEmptyOnNotEmpty_TestD2Ev
FN:154,_ZN34EmptyTest_TestEmptyOnNotEmpty_TestC2Ev
FNDA:3,_ZN34EmptyTest_TestEmptyOnNotEmpty_TestC2Ev
FN:154,_ZN34EmptyTest_TestEmptyOnNotEmpty_Test8TestBodyEv
FNDA:3,_ZN34EmptyTest_TestEmptyOnNotEmpty_Test8TestBodyEv
FN:154,_ZN34EmptyTest_TestEmptyOnNotEmpty_TestD0Ev
FNDA:3,_ZN34EmptyTest_TestEmptyOnNotEmpty_TestD0Ev
FN:160,_ZN29SizeTest_TestSizeOnEmpty_TestC2Ev
FNDA:3,_ZN29SizeTest_TestSizeOnEmpty_TestC2Ev
FN:160,_ZN29SizeTest_TestSizeOnEmpty_TestD0Ev
FNDA:3,_ZN29SizeTest_TestSizeOnEmpty_TestD0Ev
FN:160,_ZN29SizeTest_TestSizeOnEmpty_TestD2Ev
FNDA:3,_ZN29SizeTest_TestSizeOnEmpty_TestD2Ev
FN:160,_ZN29SizeTest_TestSizeOnEmpty_Test8TestBodyEv
FNDA:3,_ZN29SizeTest_TestSizeOnEmpty_Test8TestBodyEv
FN:165,_ZN22SizeTest_TestSize_TestD2Ev
FNDA:3,_ZN22SizeTest_TestSize_TestD2Ev
FN:165,_ZN22SizeTest_TestSize_TestC2Ev
FNDA:3,_ZN22SizeTest_TestSize_TestC2Ev
FN:165,_ZN22SizeTest_TestSize_TestD0Ev
FNDA:3,_ZN22SizeTest_TestSize_TestD0Ev
FN:165,_ZN22SizeTest_TestSize_Test8TestBodyEv
FNDA:3,_ZN22SizeTest_TestSize_Test8TestBodyEv
FN:175,_ZN34MaximumTest_TestMaximumXIsMax_TestD0Ev
FNDA:3,_ZN34MaximumTest_TestMaximumXIsMax_TestD0Ev
FN:175,_ZN34MaximumTest_TestMaximumXIsMax_TestC2Ev
FNDA:3,_ZN34MaximumTest_TestMaximumXIsMax_TestC2Ev
FN:175,_ZN34MaximumTest_TestMaximumXIsMax_Test8TestBodyEv
FNDA:3,_ZN34MaximumTest_TestMaximumXIsMax_Test8TestBodyEv
FN:175,_ZN34MaximumTest_TestMaximumXIsMax_TestD2Ev
FNDA:3,_ZN34MaximumTest_TestMaximumXIsMax_TestD2Ev
FN:186,_ZN34MinimumTest_TestMinimumXIsMin_Test8TestBodyEv
FNDA:3,_ZN34MinimumTest_TestMinimumXIsMin_Test8TestBodyEv
FN:186,_ZN34MinimumTest_TestMinimumXIsMin_TestD0Ev
FNDA:3,_ZN34MinimumTest_TestMinimumXIsMin_TestD0Ev
FN:186,_ZN34MinimumTest_TestMinimumXIsMin_TestD2Ev
FNDA:3,_ZN34MinimumTest_TestMinimumXIsMin_TestD2Ev
FN:186,_ZN34MinimumTest_TestMinimumXIsMin_TestC2Ev
FNDA:3,_ZN34MinimumTest_TestMinimumXIsMin_TestC2Ev
FN:197,_ZN29FindTest_TestFindOnEmpty_TestD0Ev
FNDA:3,_ZN29FindTest_TestFindOnEmpty_TestD0Ev
FN:197,_ZN29FindTest_TestFindOnEmpty_TestC2Ev
FNDA:3,_ZN29FindTest_TestFindOnEmpty_TestC2Ev
FN:197,_ZN29FindTest_TestFindOnEmpty_Test8TestBodyEv
FNDA:3,_ZN29FindTest_TestFindOnEmpty_Test8TestBodyEv
FN:197,_ZN29FindTest_TestFindOnEmpty_TestD2Ev
FNDA:3,_ZN29FindTest_TestFindOnEmpty_TestD2Ev
FN:202,_ZN28FindTest_TestFindOnRoot_TestC2Ev
FNDA:3,_ZN28FindTest_TestFindOnRoot_TestC2Ev
FN:202,_ZN28FindTest_TestFindOnRoot_Test8TestBodyEv
FNDA:3,_ZN28FindTest_TestFindOnRoot_Test8TestBodyEv
FN:202,_ZN28FindTest_TestFindOnRoot_TestD0Ev
FNDA:3,_ZN28FindTest_TestFindOnRoot_TestD0Ev
FN:202,_ZN28FindTest_TestFindOnRoot_TestD2Ev
FNDA:3,_ZN28FindTest_TestFindOnRoot_TestD2Ev
FN:208,_ZN31EraseTest_TestEraseOnEmpty_TestC2Ev
FNDA:3,_ZN31EraseTest_TestEraseOnEmpty_TestC2Ev
FN:208,_ZN31EraseTest_TestEraseOnEmpty_TestD2Ev
FNDA:3,_ZN31EraseTest_TestEraseOnEmpty_TestD2Ev
FN:208,_ZN31EraseTest_TestEraseOnEmpty_TestD0Ev
FNDA:3,_ZN31EraseTest_TestEraseOnEmpty_TestD0Ev
FN:208,_ZN31EraseTest_TestEraseOnEmpty_Test8TestBodyEv
FNDA:3,_ZN31EraseTest_TestEraseOnEmpty_Test8TestBodyEv
FN:213,_ZN28EraseTest_TestEraseRoot_TestD2Ev
FNDA:3,_ZN28EraseTest_TestEraseRoot_TestD2Ev
FN:213,_ZN28EraseTest_TestEraseRoot_Test8TestBodyEv
FNDA:3,_ZN28EraseTest_TestEraseRoot_Test8TestBodyEv
FN:213,_ZN28EraseTest_TestEraseRoot_TestD0Ev
FNDA:3,_ZN28EraseTest_TestEraseRoot_TestD0Ev
FN:213,_ZN28EraseTest_TestEraseRoot_TestC2Ev
FNDA:3,_ZN28EraseTest_TestEraseRoot_TestC2Ev
FN:219,_ZN26RankTest_TestRankRoot_TestC2Ev
FNDA:3,_ZN26RankTest_TestRankRoot_TestC2Ev
FN:219,_ZN26RankTest_TestRankRoot_TestD0Ev
FNDA:3,_ZN26RankTest_TestRankRoot_TestD0Ev
FN:219,_ZN26RankTest_TestRankRoot_Test8TestBodyEv
FNDA:3,_ZN26RankTest_TestRankRoot_Test8TestBodyEv
FN:219,_ZN26RankTest_TestRankRoot_TestD2Ev
FNDA:3,_ZN26RankTest_TestRankRoot_TestD2Ev
FN:229,_ZN28AVLtreeTest_AVLtreeTest_TestC2Ev
FNDA:3,_ZN28AVLtreeTest_AVLtreeTest_TestC2Ev
FN:229,_ZN28AVLtreeTest_AVLtreeTest_Test8TestBodyEv
FNDA:3,_ZN28AVLtreeTest_AVLtreeTest_Test8TestBodyEv
FN:229,_ZN28AVLtreeTest_AVLtreeTest_TestD2Ev
FNDA:3,_ZN28AVLtreeTest_AVLtreeTest_TestD2Ev
FN:229,_ZN28AVLtreeTest_AVLtreeTest_TestD0Ev
FNDA:3,_ZN28AVLtreeTest_AVLtreeTest_TestD0Ev
FN:311,_ZN35SetTestFixture_TestInsertExist_TestD0Ev
FNDA:3,_ZN35SetTestFixture_TestInsertExist_TestD0Ev
FN:311,_ZN35SetTestFixture_TestInsertExist_TestD2Ev
FNDA:3,_ZN35SetTestFixture_TestInsertExist_TestD2Ev
FN:311,_ZN35SetTestFixture_TestInsertExist_Test8TestBodyEv
FNDA:3,_ZN35SetTestFixture_TestInsertExist_Test8TestBodyEv
FN:311,_ZN35SetTestFixture_TestInsertExist_TestC2Ev
FNDA:3,_ZN35SetTestFixture_TestInsertExist_TestC2Ev
FN:317,_ZN39SetTestFixture_TestInsertLeftChild_Test8TestBodyEv
FNDA:3,_ZN39SetTestFixture_TestInsertLeftChild_Test8TestBodyEv
FN:317,_ZN39SetTestFixture_TestInsertLeftChild_TestC2Ev
FNDA:3,_ZN39SetTestFixture_TestInsertLeftChild_TestC2Ev
FN:317,_ZN39SetTestFixture_TestInsertLeftChild_TestD2Ev
FNDA:3,_ZN39SetTestFixture_TestInsertLeftChild_TestD2Ev
FN:317,_ZN39SetTestFixture_TestInsertLeftChild_TestD0Ev
FNDA:3,_ZN39SetTestFixture_TestInsertLeftChild_TestD0Ev
FN:321,_ZN40SetTestFixture_TestInsertRightChild_TestD2Ev
FNDA:3,_ZN40SetTestFixture_TestInsertRightChild_TestD2Ev
FN:321,_ZN40SetTestFixture_TestInsertRightChild_TestC2Ev
FNDA:3,_ZN40SetTestFixture_TestInsertRightChild_TestC2Ev
FN:321,_ZN40SetTestFixture_TestInsertRightChild_TestD0Ev
FNDA:3,_ZN40SetTestFixture_TestInsertRightChild_TestD0Ev
FN:321,_ZN40SetTestFixture_TestInsertRightChild_Test8TestBodyEv
FNDA:3,_ZN40SetTestFixture_TestInsertRightChild_Test8TestBodyEv
FN:325,_ZN40SetTestFixture_TestMaximumXIsNotMAx_TestD0Ev
FNDA:3,_ZN40SetTestFixture_TestMaximumXIsNotMAx_TestD0Ev
FN:325,_ZN40SetTestFixture_TestMaximumXIsNotMAx_TestC2Ev
FNDA:3,_ZN40SetTestFixture_TestMaximumXIsNotMAx_TestC2Ev
FN:325,_ZN40SetTestFixture_TestMaximumXIsNotMAx_TestD2Ev
FNDA:3,_ZN40SetTestFixture_TestMaximumXIsNotMAx_TestD2Ev
FN:325,_ZN40SetTestFixture_TestMaximumXIsNotMAx_Test8TestBodyEv
FNDA:3,_ZN40SetTestFixture_TestMaximumXIsNotMAx_Test8TestBodyEv
FN:333,_ZN40SetTestFixture_TestMinimumXIsNotMAx_TestD2Ev
FNDA:3,_ZN40SetTestFixture_TestMinimumXIsNotMAx_TestD2Ev
FN:333,_ZN40SetTestFixture_TestMinimumXIsNotMAx_TestD0Ev
FNDA:3,_ZN40SetTestFixture_TestMinimumXIsNotMAx_TestD0Ev
FN:333,_ZN40SetTestFixture_TestMinimumXIsNotMAx_Test8TestBodyEv
FNDA:3,_ZN40SetTestFixture_TestMinimumXIsNotMAx_Test8TestBodyEv
FN:333,_ZN40SetTestFixture_TestMinimumXIsNotMAx_TestC2Ev
FNDA:3,_ZN40SetTestFixture_TestMinimumXIsNotMAx_TestC2Ev
FN:341,_ZN32SetTestFixture_TestFindLeaf_Test8TestBodyEv
FNDA:3,_ZN32SetTestFixture_TestFindLeaf_Test8TestBodyEv
FN:341,_ZN32SetTestFixture_TestFindLeaf_TestC2Ev
FNDA:3,_ZN32SetTestFixture_TestFindLeaf_TestC2Ev
FN:341,_ZN32SetTestFixture_TestFindLeaf_TestD2Ev
FNDA:3,_ZN32SetTestFixture_TestFindLeaf_TestD2Ev
FN:341,_ZN32SetTestFixture_TestFindLeaf_TestD0Ev
FNDA:3,_ZN32SetTestFixture_TestFindLeaf_TestD0Ev
FN:346,_ZN43SetTestFixture_TestEraseUsingSuccessor_TestC2Ev
FNDA:3,_ZN43SetTestFixture_TestEraseUsingSuccessor_TestC2Ev
FN:346,_ZN43SetTestFixture_TestEraseUsingSuccessor_Test8TestBodyEv
FNDA:3,_ZN43SetTestFixture_TestEraseUsingSuccessor_Test8TestBodyEv
FN:346,_ZN43SetTestFixture_TestEraseUsingSuccessor_TestD2Ev
FNDA:3,_ZN43SetTestFixture_TestEraseUsingSuccessor_TestD2Ev
FN:346,_ZN43SetTestFixture_TestEraseUsingSuccessor_TestD0Ev
FNDA:3,_ZN43SetTestFixture_TestEraseUsingSuccessor_TestD0Ev
FN:351,_ZN33SetTestFixture_TestRankSetUp_TestC2Ev
FNDA:3,_ZN33SetTestFixture_TestRankSetUp_TestC2Ev
FN:351,_ZN33SetTestFixture_TestRankSetUp_TestD2Ev
FNDA:3,_ZN33SetTestFixture_TestRankSetUp_TestD2Ev
FN:351,_ZN33SetTestFixture_TestRankSetUp_TestD0Ev
FNDA:3,_ZN33SetTestFixture_TestRankSetUp_TestD0Ev
FN:351,_ZN33SetTestFixture_TestRankSetUp_Test8TestBodyEv
FNDA:3,_ZN33SetTestFixture_TestRankSetUp_Test8TestBodyEv
FN:371,_ZN45LXRotateInsertFixture_LXRotateInsertTest_Test8TestBodyEv
FNDA:6,_ZN45LXRotateInsertFixture_LXRotateInsertTest_Test8TestBodyEv
FN:371,_ZN45LXRotateInsertFixture_LXRotateInsertTest_Test13AddToRegistryEv
FNDA:3,_ZN45LXRotateInsertFixture_LXRotateInsertTest_Test13AddToRegistryEv
FN:371,_ZN45LXRotateInsertFixture_LXRotateInsertTest_TestC2Ev
FNDA:6,_ZN45LXRotateInsertFixture_LXRotateInsertTest_TestC2Ev
FN:383,_ZN45RXRotateInsertFixture_RXRotateInsertTest_TestC2Ev
FNDA:6,_ZN45RXRotateInsertFixture_RXRotateInsertTest_TestC2Ev
FN:383,_ZN45RXRotateInsertFixture_RXRotateInsertTest_Test13AddToRegistryEv
FNDA:3,_ZN45RXRotateInsertFixture_RXRotateInsertTest_Test13AddToRegistryEv
FN:383,_ZN45RXRotateInsertFixture_RXRotateInsertTest_Test8TestBodyEv
FNDA:6,_ZN45RXRotateInsertFixture_RXRotateInsertTest_Test8TestBodyEv
FN:395,_ZN31MinimumFixture_MinimumTest_TestC2Ev
FNDA:114,_ZN31MinimumFixture_MinimumTest_TestC2Ev
FN:395,_ZN31MinimumFixture_MinimumTest_Test13AddToRegistryEv
FNDA:3,_ZN31MinimumFixture_MinimumTest_Test13AddToRegistryEv
FN:395,_ZN31MinimumFixture_MinimumTest_Test8TestBodyEv
FNDA:114,_ZN31MinimumFixture_MinimumTest_Test8TestBodyEv
FN:447,_ZN31MaximumFixture_MaximumTest_Test8TestBodyEv
FNDA:114,_ZN31MaximumFixture_MaximumTest_Test8TestBodyEv
FN:447,_ZN31MaximumFixture_MaximumTest_TestC2Ev
FNDA:114,_ZN31MaximumFixture_MaximumTest_TestC2Ev
FN:447,_ZN31MaximumFixture_MaximumTest_Test13AddToRegistryEv
FNDA:3,_ZN31MaximumFixture_MaximumTest_Test13AddToRegistryEv
FN:499,_ZN25RankFixture_RankTest_TestC2Ev
FNDA:114,_ZN25RankFixture_RankTest_TestC2Ev
FN:499,_ZN25RankFixture_RankTest_Test13AddToRegistryEv
FNDA:3,_ZN25RankFixture_RankTest_Test13AddToRegistryEv
FN:499,_ZN25RankFixture_RankTest_Test8TestBodyEv
FNDA:114,_ZN25RankFixture_RankTest_Test8TestBodyEv
FN:551,_ZN25FindFixture_FindTest_Test13AddToRegistryEv
FNDA:3,_ZN25FindFixture_FindTest_Test13AddToRegistryEv
FN:551,_ZN25FindFixture_FindTest_Test8TestBodyEv
FNDA:114,_ZN25FindFixture_FindTest_Test8TestBodyEv
FN:551,_ZN25FindFixture_FindTest_TestC2Ev
FNDA:114,_ZN25FindFixture_FindTest_TestC2Ev
FN:599,main
FNDA:3,main
DA:18,24
DA:19,24
DA:20,24
DA:22,0
DA:24,0
DA:22,24
DA:23,24
DA:24,24
DA:26,3
DA:27,3
DA:28,3
DA:30,3
DA:31,3
DA:32,3
DA:34,24
DA:35,24
DA:36,24
DA:37,24
DA:38,24
DA:39,24
DA:40,24
DA:41,24
DA:42,24
DA:43,24
DA:45,24
DA:46,24
DA:47,24
DA:88,6
DA:88,6
DA:92,6
DA:92,6
DA:96,114
DA:96,6
DA:108,114
DA:108,6
DA:120,114
DA:120,6
DA:132,114
DA:132,6
DA:144,3
DA:144,3
DA:144,3
DA:144,3
DA:145,3
DA:146,3
DA:149,3
DA:149,3
DA:149,3
DA:149,3
DA:150,3
DA:151,3
DA:154,3
DA:154,3
DA:154,3
DA:154,3
DA:155,3
DA:156,3
DA:157,3
DA:160,3
DA:160,3
DA:160,3
DA:160,3
DA:161,3
DA:162,3
DA:165,3
DA:165,3
DA:165,3
DA:165,3
DA:166,3
DA:167,3
DA:168,3
DA:169,3
DA:170,3
DA:171,3
DA:172,3
DA:175,3
DA:175,3
DA:175,3
DA:175,3
DA:176,3
DA:177,3
DA:178,3
DA:179,3
DA:180,3
DA:181,3
DA:182,3
DA:183,3
DA:186,3
DA:186,3
DA:186,3
DA:186,3
DA:187,3
DA:188,3
DA:189,3
DA:190,3
DA:191,3
DA:192,3
DA:193,3
DA:194,3
DA:197,3
DA:197,3
DA:197,3
DA:197,3
DA:198,3
DA:199,3
DA:202,3
DA:202,3
DA:202,3
DA:202,3
DA:203,3
DA:204,3
DA:205,3
DA:208,3
DA:208,3
DA:208,3
DA:208,3
DA:209,3
DA:210,3
DA:213,3
DA:213,3
DA:213,3
DA:213,3
DA:214,3
DA:215,3
DA:216,3
DA:219,3
DA:219,3
DA:219,3
DA:219,3
DA:220,3
DA:221,3
DA:222,3
DA:223,3
DA:224,3
DA:225,3
DA:226,3
DA:229,3
DA:229,3
DA:229,3
DA:229,3
DA:230,3
DA:231,3
DA:232,3
DA:233,3
DA:234,3
DA:235,3
DA:236,3
DA:237,3
DA:238,3
DA:239,3
DA:240,3
DA:241,3
DA:242,3
DA:243,3
DA:244,3
DA:245,3
DA:246,3
DA:247,3
DA:248,3
DA:249,3
DA:250,3
DA:251,3
DA:252,3
DA:253,3
DA:254,3
DA:255,3
DA:256,3
DA:257,3
DA:258,3
DA:259,3
DA:260,3
DA:261,3
DA:262,3
DA:263,3
DA:264,3
DA:265,3
DA:266,3
DA:267,3
DA:268,3
DA:270,3
DA:271,3
DA:272,3
DA:273,3
DA:274,3
DA:275,3
DA:276,3
DA:277,3
DA:278,3
DA:279,3
DA:280,3
DA:281,3
DA:282,3
DA:283,3
DA:284,3
DA:285,3
DA:286,3
DA:287,3
DA:288,3
DA:289,3
DA:290,3
DA:291,3
DA:292,3
DA:293,3
DA:294,3
DA:295,3
DA:296,3
DA:297,3
DA:298,3
DA:299,3
DA:300,3
DA:301,3
DA:302,3
DA:303,3
DA:304,3
DA:305,3
DA:306,3
DA:307,3
DA:311,3
DA:311,3
DA:311,3
DA:311,3
DA:312,3
DA:313,3
DA:317,3
DA:317,3
DA:317,3
DA:317,3
DA:318,3
DA:321,3
DA:321,3
DA:321,3
DA:321,3
DA:322,3
DA:325,3
DA:325,3
DA:325,3
DA:325,3
DA:326,3
DA:327,3
DA:328,3
DA:329,3
DA:330,3
DA:333,3
DA:333,3
DA:333,3
DA:333,3
DA:334,3
DA:335,3
DA:336,3
DA:337,3
DA:338,3
DA:341,3
DA:341,3
DA:341,3
DA:341,3
DA:342,3
DA:343,3
DA:346,3
DA:346,3
DA:346,3
DA:346,3
DA:347,3
DA:348,3
DA:351,3
DA:351,3
DA:351,3
DA:351,3
DA:352,3
DA:353,3
DA:354,3
DA:355,3
DA:356,3
DA:358,3
DA:359,3
DA:360,3
DA:361,3
DA:362,3
DA:364,3
DA:365,3
DA:366,3
DA:367,3
DA:368,3
DA:371,6
DA:372,6
DA:373,6
DA:374,6
DA:376,6
DA:377,6
DA:378,6
DA:380,6
DA:371,3
DA:371,6
DA:383,6
DA:384,6
DA:385,6
DA:386,6
DA:388,6
DA:389,6
DA:390,6
DA:392,6
DA:383,3
DA:383,6
DA:395,114
DA:396,114
DA:397,114
DA:398,114
DA:399,114
DA:400,114
DA:401,114
DA:402,114
DA:403,114
DA:404,114
DA:405,114
DA:406,114
DA:407,114
DA:408,114
DA:409,114
DA:410,114
DA:411,114
DA:412,114
DA:413,114
DA:414,114
DA:415,114
DA:416,114
DA:417,114
DA:418,114
DA:419,114
DA:420,114
DA:421,114
DA:422,114
DA:423,114
DA:424,114
DA:425,114
DA:426,114
DA:427,114
DA:428,114
DA:429,114
DA:430,114
DA:431,114
DA:432,114
DA:433,114
DA:434,114
DA:436,114
DA:437,114
DA:438,114
DA:439,114
DA:440,114
DA:441,114
DA:443,114
DA:444,114
DA:395,3
DA:395,114
DA:447,114
DA:448,114
DA:449,114
DA:450,114
DA:451,114
DA:452,114
DA:453,114
DA:454,114
DA:455,114
DA:456,114
DA:457,114
DA:458,114
DA:459,114
DA:460,114
DA:461,114
DA:462,114
DA:463,114
DA:464,114
DA:465,114
DA:466,114
DA:467,114
DA:468,114
DA:469,114
DA:470,114
DA:471,114
DA:472,114
DA:473,114
DA:474,114
DA:475,114
DA:476,114
DA:477,114
DA:478,114
DA:479,114
DA:480,114
DA:481,114
DA:482,114
DA:483,114
DA:484,114
DA:485,114
DA:486,114
DA:488,114
DA:489,114
DA:490,114
DA:491,114
DA:492,114
DA:493,114
DA:495,114
DA:496,114
DA:447,3
DA:447,114
DA:499,114
DA:500,114
DA:501,114
DA:502,114
DA:503,114
DA:504,114
DA:505,114
DA:506,114
DA:507,114
DA:508,114
DA:509,114
DA:510,114
DA:511,114
DA:512,114
DA:513,114
DA:514,114
DA:515,114
DA:516,114
DA:517,114
DA:518,114
DA:519,114
DA:520,114
DA:521,114
DA:522,114
DA:523,114
DA:524,114
DA:525,114
DA:526,114
DA:527,114
DA:528,114
DA:529,114
DA:530,114
DA:531,114
DA:532,114
DA:533,114
DA:534,114
DA:535,114
DA:536,114
DA:537,114
DA:538,114
DA:540,114
DA:541,114
DA:542,114
DA:543,114
DA:544,114
DA:545,114
DA:547,114
DA:548,114
DA:499,3
DA:499,114
DA:551,114
DA:552,114
DA:553,114
DA:554,114
DA:555,114
DA:556,114
DA:557,114
DA:558,114
DA:559,114
DA:560,114
DA:561,114
DA:562,114
DA:563,114
DA:564,114
DA:565,114
DA:566,114
DA:567,114
DA:568,114
DA:569,114
DA:570,114
DA:571,114
DA:572,114
DA:573,114
DA:574,114
DA:575,114
DA:576,114
DA:577,114
DA:578,114
DA:579,114
DA:580,114
DA:581,114
DA:582,114
DA:583,114
DA:584,114
DA:585,114
DA:586,114
DA:587,114
DA:588,114
DA:589,114
DA:590,114
DA:592,114
DA:593,114
DA:594,114
DA:596,114
DA:551,3
DA:551,114
DA:599,3
DA:600,3
DA:601,3
end_of_record
SF:/usr/include/c++/11/bits/cpp_type_traits.h
FN:560,_ZSt12__miter_baseIPPN7testing8internal30ParameterizedTestSuiteInfoBaseEET_S5_
FNDA:0,_ZSt12__miter_baseIPPN7testing8internal30ParameterizedTestSuiteInfoBaseEET_S5_
DA:560,0
DA:561,0
end_of_record
SF:/usr/include/gtest/gtest-message.h
FN:113,_ZN7testing7MessagelsIA2_cEERS0_RKT_
FNDA:468,_ZN7testing7MessagelsIA2_cEERS0_RKT_
FN:113,_ZN7testing7MessagelsINSt7__cxx1112basic_stringIcSt11char_traitsIcESaIcEEEEERS0_RKT_
FNDA:936,_ZN7testing7MessagelsINSt7__cxx1112basic_stringIcSt11char_traitsIcESaIcEEEEERS0_RKT_
FN:113,_ZN7testing7MessagelsImEERS0_RKT_
FNDA:468,_ZN7testing7MessagelsImEERS0_RKT_
DA:113,468
DA:129,468
DA:130,468
DA:113,936
DA:129,936
DA:130,936
DA:113,468
DA:129,468
DA:130,468
end_of_record
SF:/usr/include/c++/11/ext/new_allocator.h
FN:79,_ZN9__gnu_cxx13new_allocatorIcEC2Ev
FNDA:0,_ZN9__gnu_cxx13new_allocatorIcEC2Ev
FN:79,_ZN9__gnu_cxx13new_allocatorIN7testing8internal26ParameterizedTestSuiteInfoI11FindFixtureE17InstantiationInfoEEC2Ev
FNDA:3,_ZN9__gnu_cxx13new_allocatorIN7testing8internal26ParameterizedTestSuiteInfoI11FindFixtureE17InstantiationInfoEEC2Ev
FN:79,_ZN9__gnu_cxx13new_allocatorISt10shared_ptrIN7testing8internal26ParameterizedTestSuiteInfoI11FindFixtureE8TestInfoEEEC2Ev
FNDA:3,_ZN9__gnu_cxx13new_allocatorISt10shared_ptrIN7testing8internal26ParameterizedTestSuiteInfoI11FindFixtureE8TestInfoEEEC2Ev
FN:79,_ZN9__gnu_cxx13new_allocatorIN7testing8internal26ParameterizedTestSuiteInfoI11RankFixtureE17InstantiationInfoEEC2Ev
FNDA:3,_ZN9__gnu_cxx13new_allocatorIN7testing8internal26ParameterizedTestSuiteInfoI11RankFixtureE17InstantiationInfoEEC2Ev
FN:79,_ZN9__gnu_cxx13new_allocatorISt10shared_ptrIN7testing8internal26ParameterizedTestSuiteInfoI11RankFixtureE8TestInfoEEEC2Ev
FNDA:3,_ZN9__gnu_cxx13new_allocatorISt10shared_ptrIN7testing8internal26ParameterizedTestSuiteInfoI11RankFixtureE8TestInfoEEEC2Ev
FN:79,_ZN9__gnu_cxx13new_allocatorIN7testing8internal26ParameterizedTestSuiteInfoI14MaximumFixtureE17InstantiationInfoEEC2Ev
FNDA:3,_ZN9__gnu_cxx13new_allocatorIN7testing8internal26ParameterizedTestSuiteInfoI14MaximumFixtureE17InstantiationInfoEEC2Ev
FN:79,_ZN9__gnu_cxx13new_allocatorISt10shared_ptrIN7testing8internal26ParameterizedTestSuiteInfoI14MaximumFixtureE8TestInfoEEEC2Ev
FNDA:3,_ZN9__gnu_cxx13new_allocatorISt10shared_ptrIN7testing8internal26ParameterizedTestSuiteInfoI14MaximumFixtureE8TestInfoEEEC2Ev
FN:79,_ZN9__gnu_cxx13new_allocatorIN7testing8internal26ParameterizedTestSuiteInfoI14MinimumFixtureE17InstantiationInfoEEC2Ev
FNDA:3,_ZN9__gnu_cxx13new_allocatorIN7testing8internal26ParameterizedTestSuiteInfoI14MinimumFixtureE17InstantiationInfoEEC2Ev
FN:79,_ZN9__gnu_cxx13new_allocatorISt10shared_ptrIN7testing8internal26ParameterizedTestSuiteInfoI14MinimumFixtureE8TestInfoEEEC2Ev
FNDA:3,_ZN9__gnu_cxx13new_allocatorISt10shared_ptrIN7testing8internal26ParameterizedTestSuiteInfoI14MinimumFixtureE8TestInfoEEEC2Ev
FN:79,_ZN9__gnu_cxx13new_allocatorIN7testing8internal26ParameterizedTestSuiteInfoI21RXRotateInsertFixtureE17InstantiationInfoEEC2Ev
FNDA:3,_ZN9__gnu_cxx13new_allocatorIN7testing8internal26ParameterizedTestSuiteInfoI21RXRotateInsertFixtureE17InstantiationInfoEEC2Ev
FN:79,_ZN9__gnu_cxx13new_allocatorISt10shared_ptrIN7testing8internal26ParameterizedTestSuiteInfoI21RXRotateInsertFixtureE8TestInfoEEEC2Ev
FNDA:3,_ZN9__gnu_cxx13new_allocatorISt10shared_ptrIN7testing8internal26ParameterizedTestSuiteInfoI21RXRotateInsertFixtureE8TestInfoEEEC2Ev
FN:79,_ZN9__gnu_cxx13new_allocatorIN7testing8internal26ParameterizedTestSuiteInfoI21LXRotateInsertFixtureE17InstantiationInfoEEC2Ev
FNDA:3,_ZN9__gnu_cxx13new_allocatorIN7testing8internal26ParameterizedTestSuiteInfoI21LXRotateInsertFixtureE17InstantiationInfoEEC2Ev
FN:79,_ZN9__gnu_cxx13new_allocatorISt10shared_ptrIN7testing8internal26ParameterizedTestSuiteInfoI21LXRotateInsertFixtureE8TestInfoEEEC2Ev
FNDA:3,_ZN9__gnu_cxx13new_allocatorISt10shared_ptrIN7testing8internal26ParameterizedTestSuiteInfoI21LXRotateInsertFixtureE8TestInfoEEEC2Ev
FN:79,_ZN9__gnu_cxx13new_allocatorISt5tupleIJiiiEEEC2Ev
FNDA:18,_ZN9__gnu_cxx13new_allocatorISt5tupleIJiiiEEEC2Ev
FN:79,_ZN9__gnu_cxx13new_allocatorISt13_Rb_tree_nodeINSt7__cxx1112basic_stringIcSt11char_traitsIcESaIcEEEEEC2Ev
FNDA:18,_ZN9__gnu_cxx13new_allocatorISt13_Rb_tree_nodeINSt7__cxx1112basic_stringIcSt11char_traitsIcESaIcEEEEEC2Ev
FN:79,_ZN9__gnu_cxx13new_allocatorISt5tupleIJiiEEEC2Ev
FNDA:18,_ZN9__gnu_cxx13new_allocatorISt5tupleIJiiEEEC2Ev
FN:82,_ZN9__gnu_cxx13new_allocatorIcEC2ERKS1_
FNDA:0,_ZN9__gnu_cxx13new_allocatorIcEC2ERKS1_
FN:82,_ZN9__gnu_cxx13new_allocatorISt5tupleIJiiiEEEC2ERKS3_
FNDA:36,_ZN9__gnu_cxx13new_allocatorISt5tupleIJiiiEEEC2ERKS3_
FN:82,_ZN9__gnu_cxx13new_allocatorISt5tupleIJiiEEEC2ERKS3_
FNDA:36,_ZN9__gnu_cxx13new_allocatorISt5tupleIJiiEEEC2ERKS3_
FN:89,_ZN9__gnu_cxx13new_allocatorISt5tupleIJiiiEEED2Ev
FNDA:54,_ZN9__gnu_cxx13new_allocatorISt5tupleIJiiiEEED2Ev
FN:89,_ZN9__gnu_cxx13new_allocatorIN7testing8internal26ParameterizedTestSuiteInfoI21RXRotateInsertFixtureE17InstantiationInfoEED2Ev
FNDA:3,_ZN9__gnu_cxx13new_allocatorIN7testing8internal26ParameterizedTestSuiteInfoI21RXRotateInsertFixtureE17InstantiationInfoEED2Ev
FN:89,_ZN9__gnu_cxx13new_allocatorIcED2Ev
FNDA:0,_ZN9__gnu_cxx13new_allocatorIcED2Ev
FN:89,_ZN9__gnu_cxx13new_allocatorISt13_Rb_tree_nodeINSt7__cxx1112basic_stringIcSt11char_traitsIcESaIcEEEEED2Ev
FNDA:18,_ZN9__gnu_cxx13new_allocatorISt13_Rb_tree_nodeINSt7__cxx1112basic_stringIcSt11char_traitsIcESaIcEEEEED2Ev
FN:89,_ZN9__gnu_cxx13new_allocatorISt5tupleIJiiEEED2Ev
FNDA:54,_ZN9__gnu_cxx13new_allocatorISt5tupleIJiiEEED2Ev
FN:89,_ZN9__gnu_cxx13new_allocatorISt10shared_ptrIN7testing8internal26ParameterizedTestSuiteInfoI21LXRotateInsertFixtureE8TestInfoEEED2Ev
FNDA:3,_ZN9__gnu_cxx13new_allocatorISt10shared_ptrIN7testing8internal26ParameterizedTestSuiteInfoI21LXRotateInsertFixtureE8TestInfoEEED2Ev
FN:89,_ZN9__gnu_cxx13new_allocatorIN7testing8internal26ParameterizedTestSuiteInfoI21LXRotateInsertFixtureE17InstantiationInfoEED2Ev
FNDA:3,_ZN9__gnu_cxx13new_allocatorIN7testing8internal26ParameterizedTestSuiteInfoI21LXRotateInsertFixtureE17InstantiationInfoEED2Ev
FN:89,_ZN9__gnu_cxx13new_allocatorIN7testing8internal26ParameterizedTestSuiteInfoI11FindFixtureE17InstantiationInfoEED2Ev
FNDA:3,_ZN9__gnu_cxx13new_allocatorIN7testing8internal26ParameterizedTestSuiteInfoI11FindFixtureE17InstantiationInfoEED2Ev
FN:89,_ZN9__gnu_cxx13new_allocatorISt10shared_ptrIN7testing8internal26ParameterizedTestSuiteInfoI14MinimumFixtureE8TestInfoEEED2Ev
FNDA:3,_ZN9__gnu_cxx13new_allocatorISt10shared_ptrIN7testing8internal26ParameterizedTestSuiteInfoI14MinimumFixtureE8TestInfoEEED2Ev
FN:89,_ZN9__gnu_cxx13new_allocatorIN7testing8internal26ParameterizedTestSuiteInfoI14MinimumFixtureE17InstantiationInfoEED2Ev
FNDA:3,_ZN9__gnu_cxx13new_allocatorIN7testing8internal26ParameterizedTestSuiteInfoI14MinimumFixtureE17InstantiationInfoEED2Ev
FN:89,_ZN9__gnu_cxx13new_allocatorISt10shared_ptrIN7testing8internal26ParameterizedTestSuiteInfoI14MaximumFixtureE8TestInfoEEED2Ev
FNDA:3,_ZN9__gnu_cxx13new_allocatorISt10shared_ptrIN7testing8internal26ParameterizedTestSuiteInfoI14MaximumFixtureE8TestInfoEEED2Ev
FN:89,_ZN9__gnu_cxx13new_allocatorIN7testing8internal26ParameterizedTestSuiteInfoI14MaximumFixtureE17InstantiationInfoEED2Ev
FNDA:3,_ZN9__gnu_cxx13new_allocatorIN7testing8internal26ParameterizedTestSuiteInfoI14MaximumFixtureE17InstantiationInfoEED2Ev
FN:89,_ZN9__gnu_cxx13new_allocatorISt10shared_ptrIN7testing8internal26ParameterizedTestSuiteInfoI11RankFixtureE8TestInfoEEED2Ev
FNDA:3,_ZN9__gnu_cxx13new_allocatorISt10shared_ptrIN7testing8internal26ParameterizedTestSuiteInfoI11RankFixtureE8TestInfoEEED2Ev
FN:89,_ZN9__gnu_cxx13new_allocatorIN7testing8internal26ParameterizedTestSuiteInfoI11RankFixtureE17InstantiationInfoEED2Ev
FNDA:3,_ZN9__gnu_cxx13new_allocatorIN7testing8internal26ParameterizedTestSuiteInfoI11RankFixtureE17InstantiationInfoEED2Ev
FN:89,_ZN9__gnu_cxx13new_allocatorISt10shared_ptrIN7testing8internal26ParameterizedTestSuiteInfoI11FindFixtureE8TestInfoEEED2Ev
FNDA:3,_ZN9__gnu_cxx13new_allocatorISt10shared_ptrIN7testing8internal26ParameterizedTestSuiteInfoI11FindFixtureE8TestInfoEEED2Ev
FN:89,_ZN9__gnu_cxx13new_allocatorISt10shared_ptrIN7testing8internal26ParameterizedTestSuiteInfoI21RXRotateInsertFixtureE8TestInfoEEED2Ev
FNDA:3,_ZN9__gnu_cxx13new_allocatorISt10shared_ptrIN7testing8internal26ParameterizedTestSuiteInfoI21RXRotateInsertFixtureE8TestInfoEEED2Ev
FN:103,_ZN9__gnu_cxx13new_allocatorISt5tupleIJiiEEE8allocateEmPKv
FNDA:18,_ZN9__gnu_cxx13new_allocatorISt5tupleIJiiEEE8allocateEmPKv
FN:103,_ZN9__gnu_cxx13new_allocatorIPN7testing8internal30ParameterizedTestSuiteInfoBaseEE8allocateEmPKv
FNDA:12,_ZN9__gnu_cxx13new_allocatorIPN7testing8internal30ParameterizedTestSuiteInfoBaseEE8allocateEmPKv
FN:103,_ZN9__gnu_cxx13new_allocatorIN7testing8internal26ParameterizedTestSuiteInfoI21LXRotateInsertFixtureE17InstantiationInfoEE8allocateEmPKv
FNDA:3,_ZN9__gnu_cxx13new_allocatorIN7testing8internal26ParameterizedTestSuiteInfoI21LXRotateInsertFixtureE17InstantiationInfoEE8allocateEmPKv
FN:103,_ZN9__gnu_cxx13new_allocatorISt10shared_ptrIN7testing8internal26ParameterizedTestSuiteInfoI11RankFixtureE8TestInfoEEE8allocateEmPKv
FNDA:3,_ZN9__gnu_cxx13new_allocatorISt10shared_ptrIN7testing8internal26ParameterizedTestSuiteInfoI11RankFixtureE8TestInfoEEE8allocateEmPKv
FN:103,_ZN9__gnu_cxx13new_allocatorIN7testing8internal26ParameterizedTestSuiteInfoI21RXRotateInsertFixtureE17InstantiationInfoEE8allocateEmPKv
FNDA:3,_ZN9__gnu_cxx13new_allocatorIN7testing8internal26ParameterizedTestSuiteInfoI21RXRotateInsertFixtureE17InstantiationInfoEE8allocateEmPKv
FN:103,_ZN9__gnu_cxx13new_allocatorISt5tupleIJiiiEEE8allocateEmPKv
FNDA:18,_ZN9__gnu_cxx13new_allocatorISt5tupleIJiiiEEE8allocateEmPKv
FN:103,_ZN9__gnu_cxx13new_allocatorIN7testing8internal26ParameterizedTestSuiteInfoI14MinimumFixtureE17InstantiationInfoEE8allocateEmPKv
FNDA:3,_ZN9__gnu_cxx13new_allocatorIN7testing8internal26ParameterizedTestSuiteInfoI14MinimumFixtureE17InstantiationInfoEE8allocateEmPKv
FN:103,_ZN9__gnu_cxx13new_allocatorIN7testing8internal26ParameterizedTestSuiteInfoI14MaximumFixtureE17InstantiationInfoEE8allocateEmPKv
FNDA:3,_ZN9__gnu_cxx13new_allocatorIN7testing8internal26ParameterizedTestSuiteInfoI14MaximumFixtureE17InstantiationInfoEE8allocateEmPKv
FN:103,_ZN9__gnu_cxx13new_allocatorIN7testing8internal26ParameterizedTestSuiteInfoI11RankFixtureE17InstantiationInfoEE8allocateEmPKv
FNDA:3,_ZN9__gnu_cxx13new_allocatorIN7testing8internal26ParameterizedTestSuiteInfoI11RankFixtureE17InstantiationInfoEE8allocateEmPKv
FN:103,_ZN9__gnu_cxx13new_allocatorISt10shared_ptrIN7testing8internal26ParameterizedTestSuiteInfoI21LXRotateInsertFixtureE8TestInfoEEE8allocateEmPKv
FNDA:3,_ZN9__gnu_cxx13new_allocatorISt10shared_ptrIN7testing8internal26ParameterizedTestSuiteInfoI21LXRotateInsertFixtureE8TestInfoEEE8allocateEmPKv
FN:103,_ZN9__gnu_cxx13new_allocatorISt10shared_ptrIN7testing8internal26ParameterizedTestSuiteInfoI21RXRotateInsertFixtureE8TestInfoEEE8allocateEmPKv
FNDA:3,_ZN9__gnu_cxx13new_allocatorISt10shared_ptrIN7testing8internal26ParameterizedTestSuiteInfoI21RXRotateInsertFixtureE8TestInfoEEE8allocateEmPKv
FN:103,_ZN9__gnu_cxx13new_allocatorISt10shared_ptrIN7testing8internal26ParameterizedTestSuiteInfoI14MinimumFixtureE8TestInfoEEE8allocateEmPKv
FNDA:3,_ZN9__gnu_cxx13new_allocatorISt10shared_ptrIN7testing8internal26ParameterizedTestSuiteInfoI14MinimumFixtureE8TestInfoEEE8allocateEmPKv
FN:103,_ZN9__gnu_cxx13new_allocatorISt10shared_ptrIN7testing8internal26ParameterizedTestSuiteInfoI14MaximumFixtureE8TestInfoEEE8allocateEmPKv
FNDA:3,_ZN9__gnu_cxx13new_allocatorISt10shared_ptrIN7testing8internal26ParameterizedTestSuiteInfoI14MaximumFixtureE8TestInfoEEE8allocateEmPKv
FN:103,_ZN9__gnu_cxx13new_allocatorISt10shared_ptrIN7testing8internal26ParameterizedTestSuiteInfoI11FindFixtureE8TestInfoEEE8allocateEmPKv
FNDA:3,_ZN9__gnu_cxx13new_allocatorISt10shared_ptrIN7testing8internal26ParameterizedTestSuiteInfoI11FindFixtureE8TestInfoEEE8allocateEmPKv
FN:103,_ZN9__gnu_cxx13new_allocatorISt13_Rb_tree_nodeINSt7__cxx1112basic_stringIcSt11char_traitsIcESaIcEEEEE8allocateEmPKv
FNDA:468,_ZN9__gnu_cxx13new_allocatorISt13_Rb_tree_nodeINSt7__cxx1112basic_stringIcSt11char_traitsIcESaIcEEEEE8allocateEmPKv
FN:103,_ZN9__gnu_cxx13new_allocatorIN7testing8internal26ParameterizedTestSuiteInfoI11FindFixtureE17InstantiationInfoEE8allocateEmPKv
FNDA:3,_ZN9__gnu_cxx13new_allocatorIN7testing8internal26ParameterizedTestSuiteInfoI11FindFixtureE17InstantiationInfoEE8allocateEmPKv
FN:132,_ZN9__gnu_cxx13new_allocatorIN7testing8internal26ParameterizedTestSuiteInfoI14MaximumFixtureE17InstantiationInfoEE10deallocateEPS6_m
FNDA:3,_ZN9__gnu_cxx13new_allocatorIN7testing8internal26ParameterizedTestSuiteInfoI14MaximumFixtureE17InstantiationInfoEE10deallocateEPS6_m
FN:132,_ZN9__gnu_cxx13new_allocatorISt10shared_ptrIN7testing8internal26ParameterizedTestSuiteInfoI14MaximumFixtureE8TestInfoEEE10deallocateEPS8_m
FNDA:3,_ZN9__gnu_cxx13new_allocatorISt10shared_ptrIN7testing8internal26ParameterizedTestSuiteInfoI14MaximumFixtureE8TestInfoEEE10deallocateEPS8_m
FN:132,_ZN9__gnu_cxx13new_allocatorIN7testing8internal26ParameterizedTestSuiteInfoI14MinimumFixtureE17InstantiationInfoEE10deallocateEPS6_m
FNDA:3,_ZN9__gnu_cxx13new_allocatorIN7testing8internal26ParameterizedTestSuiteInfoI14MinimumFixtureE17InstantiationInfoEE10deallocateEPS6_m
FN:132,_ZN9__gnu_cxx13new_allocatorISt10shared_ptrIN7testing8internal26ParameterizedTestSuiteInfoI14MinimumFixtureE8TestInfoEEE10deallocateEPS8_m
FNDA:3,_ZN9__gnu_cxx13new_allocatorISt10shared_ptrIN7testing8internal26ParameterizedTestSuiteInfoI14MinimumFixtureE8TestInfoEEE10deallocateEPS8_m
FN:132,_ZN9__gnu_cxx13new_allocatorISt5tupleIJiiiEEE10deallocateEPS2_m
FNDA:18,_ZN9__gnu_cxx13new_allocatorISt5tupleIJiiiEEE10deallocateEPS2_m
FN:132,_ZN9__gnu_cxx13new_allocatorIN7testing8internal26ParameterizedTestSuiteInfoI21RXRotateInsertFixtureE17InstantiationInfoEE10deallocateEPS6_m
FNDA:3,_ZN9__gnu_cxx13new_allocatorIN7testing8internal26ParameterizedTestSuiteInfoI21RXRotateInsertFixtureE17InstantiationInfoEE10deallocateEPS6_m
FN:132,_ZN9__gnu_cxx13new_allocatorISt10shared_ptrIN7testing8internal26ParameterizedTestSuiteInfoI21RXRotateInsertFixtureE8TestInfoEEE10deallocateEPS8_m
FNDA:3,_ZN9__gnu_cxx13new_allocatorISt10shared_ptrIN7testing8internal26ParameterizedTestSuiteInfoI21RXRotateInsertFixtureE8TestInfoEEE10deallocateEPS8_m
FN:132,_ZN9__gnu_cxx13new_allocatorIN7testing8internal26ParameterizedTestSuiteInfoI21LXRotateInsertFixtureE17InstantiationInfoEE10deallocateEPS6_m
FNDA:3,_ZN9__gnu_cxx13new_allocatorIN7testing8internal26ParameterizedTestSuiteInfoI21LXRotateInsertFixtureE17InstantiationInfoEE10deallocateEPS6_m
FN:132,_ZN9__gnu_cxx13new_allocatorISt10shared_ptrIN7testing8internal26ParameterizedTestSuiteInfoI21LXRotateInsertFixtureE8TestInfoEEE10deallocateEPS8_m
FNDA:3,_ZN9__gnu_cxx13new_allocatorISt10shared_ptrIN7testing8internal26ParameterizedTestSuiteInfoI21LXRotateInsertFixtureE8TestInfoEEE10deallocateEPS8_m
FN:132,_ZN9__gnu_cxx13new_allocatorISt5tupleIJiiEEE10deallocateEPS2_m
FNDA:18,_ZN9__gnu_cxx13new_allocatorISt5tupleIJiiEEE10deallocateEPS2_m
FN:132,_ZN9__gnu_cxx13new_allocatorISt10shared_ptrIN7testing8internal26ParameterizedTestSuiteInfoI11RankFixtureE8TestInfoEEE10deallocateEPS8_m
FNDA:3,_ZN9__gnu_cxx13new_allocatorISt10shared_ptrIN7testing8internal26ParameterizedTestSuiteInfoI11RankFixtureE8TestInfoEEE10deallocateEPS8_m
FN:132,_ZN9__gnu_cxx13new_allocatorIPN7testing8internal30ParameterizedTestSuiteInfoBaseEE10deallocateEPS4_m
FNDA:9,_ZN9__gnu_cxx13new_allocatorIPN7testing8internal30ParameterizedTestSuiteInfoBaseEE10deallocateEPS4_m
FN:132,_ZN9__gnu_cxx13new_allocatorIN7testing8internal26ParameterizedTestSuiteInfoI11RankFixtureE17InstantiationInfoEE10deallocateEPS6_m
FNDA:3,_ZN9__gnu_cxx13new_allocatorIN7testing8internal26ParameterizedTestSuiteInfoI11RankFixtureE17InstantiationInfoEE10deallocateEPS6_m
FN:132,_ZN9__gnu_cxx13new_allocatorISt13_Rb_tree_nodeINSt7__cxx1112basic_stringIcSt11char_traitsIcESaIcEEEEE10deallocateEPS8_m
FNDA:468,_ZN9__gnu_cxx13new_allocatorISt13_Rb_tree_nodeINSt7__cxx1112basic_stringIcSt11char_traitsIcESaIcEEEEE10deallocateEPS8_m
FN:132,_ZN9__gnu_cxx13new_allocatorISt10shared_ptrIN7testing8internal26ParameterizedTestSuiteInfoI11FindFixtureE8TestInfoEEE10deallocateEPS8_m
FNDA:3,_ZN9__gnu_cxx13new_allocatorISt10shared_ptrIN7testing8internal26ParameterizedTestSuiteInfoI11FindFixtureE8TestInfoEEE10deallocateEPS8_m
FN:132,_ZN9__gnu_cxx13new_allocatorIN7testing8internal26ParameterizedTestSuiteInfoI11FindFixtureE17InstantiationInfoEE10deallocateEPS6_m
FNDA:3,_ZN9__gnu_cxx13new_allocatorIN7testing8internal26ParameterizedTestSuiteInfoI11FindFixtureE17InstantiationInfoEE10deallocateEPS6_m
FN:154,_ZNK9__gnu_cxx13new_allocatorIN7testing8internal26ParameterizedTestSuiteInfoI11FindFixtureE17InstantiationInfoEE8max_sizeEv
FNDA:6,_ZNK9__gnu_cxx13new_allocatorIN7testing8internal26ParameterizedTestSuiteInfoI11FindFixtureE17InstantiationInfoEE8max_sizeEv
FN:154,_ZNK9__gnu_cxx13new_allocatorISt5tupleIJiiEEE8max_sizeEv
FNDA:18,_ZNK9__gnu_cxx13new_allocatorISt5tupleIJiiEEE8max_sizeEv
FN:154,_ZNK9__gnu_cxx13new_allocatorISt5tupleIJiiiEEE8max_sizeEv
FNDA:18,_ZNK9__gnu_cxx13new_allocatorISt5tupleIJiiiEEE8max_sizeEv
FN:154,_ZNK9__gnu_cxx13new_allocatorIPN7testing8internal30ParameterizedTestSuiteInfoBaseEE8max_sizeEv
FNDA:24,_ZNK9__gnu_cxx13new_allocatorIPN7testing8internal30ParameterizedTestSuiteInfoBaseEE8max_sizeEv
FN:154,_ZNK9__gnu_cxx13new_allocatorIN7testing8internal26ParameterizedTestSuiteInfoI21LXRotateInsertFixtureE17InstantiationInfoEE8max_sizeEv
FNDA:6,_ZNK9__gnu_cxx13new_allocatorIN7testing8internal26ParameterizedTestSuiteInfoI21LXRotateInsertFixtureE17InstantiationInfoEE8max_sizeEv
FN:154,_ZNK9__gnu_cxx13new_allocatorIN7testing8internal26ParameterizedTestSuiteInfoI21RXRotateInsertFixtureE17InstantiationInfoEE8max_sizeEv
FNDA:6,_ZNK9__gnu_cxx13new_allocatorIN7testing8internal26ParameterizedTestSuiteInfoI21RXRotateInsertFixtureE17InstantiationInfoEE8max_sizeEv
FN:154,_ZNK9__gnu_cxx13new_allocatorIN7testing8internal26ParameterizedTestSuiteInfoI14MinimumFixtureE17InstantiationInfoEE8max_sizeEv
FNDA:6,_ZNK9__gnu_cxx13new_allocatorIN7testing8internal26ParameterizedTestSuiteInfoI14MinimumFixtureE17InstantiationInfoEE8max_sizeEv
FN:154,_ZNK9__gnu_cxx13new_allocatorIN7testing8internal26ParameterizedTestSuiteInfoI14MaximumFixtureE17InstantiationInfoEE8max_sizeEv
FNDA:6,_ZNK9__gnu_cxx13new_allocatorIN7testing8internal26ParameterizedTestSuiteInfoI14MaximumFixtureE17InstantiationInfoEE8max_sizeEv
FN:154,_ZNK9__gnu_cxx13new_allocatorIN7testing8internal26ParameterizedTestSuiteInfoI11RankFixtureE17InstantiationInfoEE8max_sizeEv
FNDA:6,_ZNK9__gnu_cxx13new_allocatorIN7testing8internal26ParameterizedTestSuiteInfoI11RankFixtureE17InstantiationInfoEE8max_sizeEv
FN:154,_ZNK9__gnu_cxx13new_allocatorISt10shared_ptrIN7testing8internal26ParameterizedTestSuiteInfoI21LXRotateInsertFixtureE8TestInfoEEE8max_sizeEv
FNDA:6,_ZNK9__gnu_cxx13new_allocatorISt10shared_ptrIN7testing8internal26ParameterizedTestSuiteInfoI21LXRotateInsertFixtureE8TestInfoEEE8max_sizeEv
FN:154,_ZNK9__gnu_cxx13new_allocatorISt10shared_ptrIN7testing8internal26ParameterizedTestSuiteInfoI21RXRotateInsertFixtureE8TestInfoEEE8max_sizeEv
FNDA:6,_ZNK9__gnu_cxx13new_allocatorISt10shared_ptrIN7testing8internal26ParameterizedTestSuiteInfoI21RXRotateInsertFixtureE8TestInfoEEE8max_sizeEv
FN:154,_ZNK9__gnu_cxx13new_allocatorISt10shared_ptrIN7testing8internal26ParameterizedTestSuiteInfoI14MinimumFixtureE8TestInfoEEE8max_sizeEv
FNDA:6,_ZNK9__gnu_cxx13new_allocatorISt10shared_ptrIN7testing8internal26ParameterizedTestSuiteInfoI14MinimumFixtureE8TestInfoEEE8max_sizeEv
FN:154,_ZNK9__gnu_cxx13new_allocatorISt10shared_ptrIN7testing8internal26ParameterizedTestSuiteInfoI14MaximumFixtureE8TestInfoEEE8max_sizeEv
FNDA:6,_ZNK9__gnu_cxx13new_allocatorISt10shared_ptrIN7testing8internal26ParameterizedTestSuiteInfoI14MaximumFixtureE8TestInfoEEE8max_sizeEv
FN:154,_ZNK9__gnu_cxx13new_allocatorISt10shared_ptrIN7testing8internal26ParameterizedTestSuiteInfoI11RankFixtureE8TestInfoEEE8max_sizeEv
FNDA:6,_ZNK9__gnu_cxx13new_allocatorISt10shared_ptrIN7testing8internal26ParameterizedTestSuiteInfoI11RankFixtureE8TestInfoEEE8max_sizeEv
FN:154,_ZNK9__gnu_cxx13new_allocatorISt10shared_ptrIN7testing8internal26ParameterizedTestSuiteInfoI11FindFixtureE8TestInfoEEE8max_sizeEv
FNDA:6,_ZNK9__gnu_cxx13new_allocatorISt10shared_ptrIN7testing8internal26ParameterizedTestSuiteInfoI11FindFixtureE8TestInfoEEE8max_sizeEv
FN:160,_ZN9__gnu_cxx13new_allocatorIN7testing8internal26ParameterizedTestSuiteInfoI14MinimumFixtureE17InstantiationInfoEE9constructIS6_JS6_EEEvPT_DpOT0_
FNDA:3,_ZN9__gnu_cxx13new_allocatorIN7testing8internal26ParameterizedTestSuiteInfoI14MinimumFixtureE17InstantiationInfoEE9constructIS6_JS6_EEEvPT_DpOT0_
FN:160,_ZN9__gnu_cxx13new_allocatorIPN7testing8internal30ParameterizedTestSuiteInfoBaseEE9constructIS4_JS4_EEEvPT_DpOT0_
FNDA:18,_ZN9__gnu_cxx13new_allocatorIPN7testing8internal30ParameterizedTestSuiteInfoBaseEE9constructIS4_JS4_EEEvPT_DpOT0_
FN:160,_ZN9__gnu_cxx13new_allocatorIN7testing8internal26ParameterizedTestSuiteInfoI21LXRotateInsertFixtureE17InstantiationInfoEE9constructIS6_JS6_EEEvPT_DpOT0_
FNDA:3,_ZN9__gnu_cxx13new_allocatorIN7testing8internal26ParameterizedTestSuiteInfoI21LXRotateInsertFixtureE17InstantiationInfoEE9constructIS6_JS6_EEEvPT_DpOT0_
FN:160,_ZN9__gnu_cxx13new_allocatorIN7testing8internal26ParameterizedTestSuiteInfoI21RXRotateInsertFixtureE17InstantiationInfoEE9constructIS6_JS6_EEEvPT_DpOT0_
FNDA:3,_ZN9__gnu_cxx13new_allocatorIN7testing8internal26ParameterizedTestSuiteInfoI21RXRotateInsertFixtureE17InstantiationInfoEE9constructIS6_JS6_EEEvPT_DpOT0_
FN:160,_ZN9__gnu_cxx13new_allocatorIN7testing8internal26ParameterizedTestSuiteInfoI14MaximumFixtureE17InstantiationInfoEE9constructIS6_JS6_EEEvPT_DpOT0_
FNDA:3,_ZN9__gnu_cxx13new_allocatorIN7testing8internal26ParameterizedTestSuiteInfoI14MaximumFixtureE17InstantiationInfoEE9constructIS6_JS6_EEEvPT_DpOT0_
FN:160,_ZN9__gnu_cxx13new_allocatorISt13_Rb_tree_nodeINSt7__cxx1112basic_stringIcSt11char_traitsIcESaIcEEEEE9constructIS7_JRKS7_EEEvPT_DpOT0_
FNDA:468,_ZN9__gnu_cxx13new_allocatorISt13_Rb_tree_nodeINSt7__cxx1112basic_stringIcSt11char_traitsIcESaIcEEEEE9constructIS7_JRKS7_EEEvPT_DpOT0_
FN:160,_ZN9__gnu_cxx13new_allocatorISt10shared_ptrIN7testing8internal26ParameterizedTestSuiteInfoI14MaximumFixtureE8TestInfoEEE9constructIS8_JS8_EEEvPT_DpOT0_
FNDA:3,_ZN9__gnu_cxx13new_allocatorISt10shared_ptrIN7testing8internal26ParameterizedTestSuiteInfoI14MaximumFixtureE8TestInfoEEE9constructIS8_JS8_EEEvPT_DpOT0_
FN:160,_ZN9__gnu_cxx13new_allocatorISt10shared_ptrIN7testing8internal26ParameterizedTestSuiteInfoI11RankFixtureE8TestInfoEEE9constructIS8_JS8_EEEvPT_DpOT0_
FNDA:3,_ZN9__gnu_cxx13new_allocatorISt10shared_ptrIN7testing8internal26ParameterizedTestSuiteInfoI11RankFixtureE8TestInfoEEE9constructIS8_JS8_EEEvPT_DpOT0_
FN:160,_ZN9__gnu_cxx13new_allocatorISt10shared_ptrIN7testing8internal26ParameterizedTestSuiteInfoI11FindFixtureE8TestInfoEEE9constructIS8_JS8_EEEvPT_DpOT0_
FNDA:3,_ZN9__gnu_cxx13new_allocatorISt10shared_ptrIN7testing8internal26ParameterizedTestSuiteInfoI11FindFixtureE8TestInfoEEE9constructIS8_JS8_EEEvPT_DpOT0_
FN:160,_ZN9__gnu_cxx13new_allocatorIN7testing8internal26ParameterizedTestSuiteInfoI11RankFixtureE17InstantiationInfoEE9constructIS6_JS6_EEEvPT_DpOT0_
FNDA:3,_ZN9__gnu_cxx13new_allocatorIN7testing8internal26ParameterizedTestSuiteInfoI11RankFixtureE17InstantiationInfoEE9constructIS6_JS6_EEEvPT_DpOT0_
FN:160,_ZN9__gnu_cxx13new_allocatorIN7testing8internal26ParameterizedTestSuiteInfoI11FindFixtureE17InstantiationInfoEE9constructIS6_JS6_EEEvPT_DpOT0_
FNDA:3,_ZN9__gnu_cxx13new_allocatorIN7testing8internal26ParameterizedTestSuiteInfoI11FindFixtureE17InstantiationInfoEE9constructIS6_JS6_EEEvPT_DpOT0_
FN:160,_ZN9__gnu_cxx13new_allocatorISt10shared_ptrIN7testing8internal26ParameterizedTestSuiteInfoI21LXRotateInsertFixtureE8TestInfoEEE9constructIS8_JS8_EEEvPT_DpOT0_
FNDA:3,_ZN9__gnu_cxx13new_allocatorISt10shared_ptrIN7testing8internal26ParameterizedTestSuiteInfoI21LXRotateInsertFixtureE8TestInfoEEE9constructIS8_JS8_EEEvPT_DpOT0_
FN:160,_ZN9__gnu_cxx13new_allocatorISt10shared_ptrIN7testing8internal26ParameterizedTestSuiteInfoI14MinimumFixtureE8TestInfoEEE9constructIS8_JS8_EEEvPT_DpOT0_
FNDA:3,_ZN9__gnu_cxx13new_allocatorISt10shared_ptrIN7testing8internal26ParameterizedTestSuiteInfoI14MinimumFixtureE8TestInfoEEE9constructIS8_JS8_EEEvPT_DpOT0_
FN:160,_ZN9__gnu_cxx13new_allocatorISt10shared_ptrIN7testing8internal26ParameterizedTestSuiteInfoI21RXRotateInsertFixtureE8TestInfoEEE9constructIS8_JS8_EEEvPT_DpOT0_
FNDA:3,_ZN9__gnu_cxx13new_allocatorISt10shared_ptrIN7testing8internal26ParameterizedTestSuiteInfoI21RXRotateInsertFixtureE8TestInfoEEE9constructIS8_JS8_EEEvPT_DpOT0_
FN:166,_ZN9__gnu_cxx13new_allocatorISt10shared_ptrIN7testing8internal26ParameterizedTestSuiteInfoI21RXRotateInsertFixtureE8TestInfoEEE7destroyIS8_EEvPT_
FNDA:0,_ZN9__gnu_cxx13new_allocatorISt10shared_ptrIN7testing8internal26ParameterizedTestSuiteInfoI21RXRotateInsertFixtureE8TestInfoEEE7destroyIS8_EEvPT_
FN:166,_ZN9__gnu_cxx13new_allocatorISt10shared_ptrIN7testing8internal26ParameterizedTestSuiteInfoI11RankFixtureE8TestInfoEEE7destroyIS8_EEvPT_
FNDA:0,_ZN9__gnu_cxx13new_allocatorISt10shared_ptrIN7testing8internal26ParameterizedTestSuiteInfoI11RankFixtureE8TestInfoEEE7destroyIS8_EEvPT_
FN:166,_ZN9__gnu_cxx13new_allocatorISt10shared_ptrIN7testing8internal26ParameterizedTestSuiteInfoI14MaximumFixtureE8TestInfoEEE7destroyIS8_EEvPT_
FNDA:0,_ZN9__gnu_cxx13new_allocatorISt10shared_ptrIN7testing8internal26ParameterizedTestSuiteInfoI14MaximumFixtureE8TestInfoEEE7destroyIS8_EEvPT_
FN:166,_ZN9__gnu_cxx13new_allocatorISt10shared_ptrIN7testing8internal26ParameterizedTestSuiteInfoI14MinimumFixtureE8TestInfoEEE7destroyIS8_EEvPT_
FNDA:0,_ZN9__gnu_cxx13new_allocatorISt10shared_ptrIN7testing8internal26ParameterizedTestSuiteInfoI14MinimumFixtureE8TestInfoEEE7destroyIS8_EEvPT_
FN:166,_ZN9__gnu_cxx13new_allocatorIPN7testing8internal30ParameterizedTestSuiteInfoBaseEE7destroyIS4_EEvPT_
FNDA:0,_ZN9__gnu_cxx13new_allocatorIPN7testing8internal30ParameterizedTestSuiteInfoBaseEE7destroyIS4_EEvPT_
FN:166,_ZN9__gnu_cxx13new_allocatorIN7testing8internal26ParameterizedTestSuiteInfoI21LXRotateInsertFixtureE17InstantiationInfoEE7destroyIS6_EEvPT_
FNDA:0,_ZN9__gnu_cxx13new_allocatorIN7testing8internal26ParameterizedTestSuiteInfoI21LXRotateInsertFixtureE17InstantiationInfoEE7destroyIS6_EEvPT_
FN:166,_ZN9__gnu_cxx13new_allocatorISt10shared_ptrIN7testing8internal26ParameterizedTestSuiteInfoI21LXRotateInsertFixtureE8TestInfoEEE7destroyIS8_EEvPT_
FNDA:0,_ZN9__gnu_cxx13new_allocatorISt10shared_ptrIN7testing8internal26ParameterizedTestSuiteInfoI21LXRotateInsertFixtureE8TestInfoEEE7destroyIS8_EEvPT_
FN:166,_ZN9__gnu_cxx13new_allocatorIN7testing8internal26ParameterizedTestSuiteInfoI21RXRotateInsertFixtureE17InstantiationInfoEE7destroyIS6_EEvPT_
FNDA:0,_ZN9__gnu_cxx13new_allocatorIN7testing8internal26ParameterizedTestSuiteInfoI21RXRotateInsertFixtureE17InstantiationInfoEE7destroyIS6_EEvPT_
FN:166,_ZN9__gnu_cxx13new_allocatorIN7testing8internal26ParameterizedTestSuiteInfoI11FindFixtureE17InstantiationInfoEE7destroyIS6_EEvPT_
FNDA:0,_ZN9__gnu_cxx13new_allocatorIN7testing8internal26ParameterizedTestSuiteInfoI11FindFixtureE17InstantiationInfoEE7destroyIS6_EEvPT_
FN:166,_ZN9__gnu_cxx13new_allocatorIN7testing8internal26ParameterizedTestSuiteInfoI14MinimumFixtureE17InstantiationInfoEE7destroyIS6_EEvPT_
FNDA:0,_ZN9__gnu_cxx13new_allocatorIN7testing8internal26ParameterizedTestSuiteInfoI14MinimumFixtureE17InstantiationInfoEE7destroyIS6_EEvPT_
FN:166,_ZN9__gnu_cxx13new_allocatorISt13_Rb_tree_nodeINSt7__cxx1112basic_stringIcSt11char_traitsIcESaIcEEEEE7destroyIS7_EEvPT_
FNDA:468,_ZN9__gnu_cxx13new_allocatorISt13_Rb_tree_nodeINSt7__cxx1112basic_stringIcSt11char_traitsIcESaIcEEEEE7destroyIS7_EEvPT_
FN:166,_ZN9__gnu_cxx13new_allocatorISt10shared_ptrIN7testing8internal26ParameterizedTestSuiteInfoI11FindFixtureE8TestInfoEEE7destroyIS8_EEvPT_
FNDA:0,_ZN9__gnu_cxx13new_allocatorISt10shared_ptrIN7testing8internal26ParameterizedTestSuiteInfoI11FindFixtureE8TestInfoEEE7destroyIS8_EEvPT_
FN:166,_ZN9__gnu_cxx13new_allocatorIN7testing8internal26ParameterizedTestSuiteInfoI11RankFixtureE17InstantiationInfoEE7destroyIS6_EEvPT_
FNDA:0,_ZN9__gnu_cxx13new_allocatorIN7testing8internal26ParameterizedTestSuiteInfoI11RankFixtureE17InstantiationInfoEE7destroyIS6_EEvPT_
FN:166,_ZN9__gnu_cxx13new_allocatorIN7testing8internal26ParameterizedTestSuiteInfoI14MaximumFixtureE17InstantiationInfoEE7destroyIS6_EEvPT_
FNDA:0,_ZN9__gnu_cxx13new_allocatorIN7testing8internal26ParameterizedTestSuiteInfoI14MaximumFixtureE17InstantiationInfoEE7destroyIS6_EEvPT_
FN:197,_ZNK9__gnu_cxx13new_allocatorISt10shared_ptrIN7testing8internal26ParameterizedTestSuiteInfoI14MaximumFixtureE8TestInfoEEE11_M_max_sizeEv
FNDA:9,_ZNK9__gnu_cxx13new_allocatorISt10shared_ptrIN7testing8internal26ParameterizedTestSuiteInfoI14MaximumFixtureE8TestInfoEEE11_M_max_sizeEv
FN:197,_ZNK9__gnu_cxx13new_allocatorISt10shared_ptrIN7testing8internal26ParameterizedTestSuiteInfoI11FindFixtureE8TestInfoEEE11_M_max_sizeEv
FNDA:9,_ZNK9__gnu_cxx13new_allocatorISt10shared_ptrIN7testing8internal26ParameterizedTestSuiteInfoI11FindFixtureE8TestInfoEEE11_M_max_sizeEv
FN:197,_ZNK9__gnu_cxx13new_allocatorISt10shared_ptrIN7testing8internal26ParameterizedTestSuiteInfoI11RankFixtureE8TestInfoEEE11_M_max_sizeEv
FNDA:9,_ZNK9__gnu_cxx13new_allocatorISt10shared_ptrIN7testing8internal26ParameterizedTestSuiteInfoI11RankFixtureE8TestInfoEEE11_M_max_sizeEv
FN:197,_ZNK9__gnu_cxx13new_allocatorISt10shared_ptrIN7testing8internal26ParameterizedTestSuiteInfoI14MinimumFixtureE8TestInfoEEE11_M_max_sizeEv
FNDA:9,_ZNK9__gnu_cxx13new_allocatorISt10shared_ptrIN7testing8internal26ParameterizedTestSuiteInfoI14MinimumFixtureE8TestInfoEEE11_M_max_sizeEv
FN:197,_ZNK9__gnu_cxx13new_allocatorISt10shared_ptrIN7testing8internal26ParameterizedTestSuiteInfoI21RXRotateInsertFixtureE8TestInfoEEE11_M_max_sizeEv
FNDA:9,_ZNK9__gnu_cxx13new_allocatorISt10shared_ptrIN7testing8internal26ParameterizedTestSuiteInfoI21RXRotateInsertFixtureE8TestInfoEEE11_M_max_sizeEv
FN:197,_ZNK9__gnu_cxx13new_allocatorISt10shared_ptrIN7testing8internal26ParameterizedTestSuiteInfoI21LXRotateInsertFixtureE8TestInfoEEE11_M_max_sizeEv
FNDA:9,_ZNK9__gnu_cxx13new_allocatorISt10shared_ptrIN7testing8internal26ParameterizedTestSuiteInfoI21LXRotateInsertFixtureE8TestInfoEEE11_M_max_sizeEv
FN:197,_ZNK9__gnu_cxx13new_allocatorIN7testing8internal26ParameterizedTestSuiteInfoI11FindFixtureE17InstantiationInfoEE11_M_max_sizeEv
FNDA:9,_ZNK9__gnu_cxx13new_allocatorIN7testing8internal26ParameterizedTestSuiteInfoI11FindFixtureE17InstantiationInfoEE11_M_max_sizeEv
FN:197,_ZNK9__gnu_cxx13new_allocatorIN7testing8internal26ParameterizedTestSuiteInfoI11RankFixtureE17InstantiationInfoEE11_M_max_sizeEv
FNDA:9,_ZNK9__gnu_cxx13new_allocatorIN7testing8internal26ParameterizedTestSuiteInfoI11RankFixtureE17InstantiationInfoEE11_M_max_sizeEv
FN:197,_ZNK9__gnu_cxx13new_allocatorIN7testing8internal26ParameterizedTestSuiteInfoI14MaximumFixtureE17InstantiationInfoEE11_M_max_sizeEv
FNDA:9,_ZNK9__gnu_cxx13new_allocatorIN7testing8internal26ParameterizedTestSuiteInfoI14MaximumFixtureE17InstantiationInfoEE11_M_max_sizeEv
FN:197,_ZNK9__gnu_cxx13new_allocatorIN7testing8internal26ParameterizedTestSuiteInfoI14MinimumFixtureE17InstantiationInfoEE11_M_max_sizeEv
FNDA:9,_ZNK9__gnu_cxx13new_allocatorIN7testing8internal26ParameterizedTestSuiteInfoI14MinimumFixtureE17InstantiationInfoEE11_M_max_sizeEv
FN:197,_ZNK9__gnu_cxx13new_allocatorISt5tupleIJiiiEEE11_M_max_sizeEv
FNDA:36,_ZNK9__gnu_cxx13new_allocatorISt5tupleIJiiiEEE11_M_max_sizeEv
FN:197,_ZNK9__gnu_cxx13new_allocatorISt13_Rb_tree_nodeINSt7__cxx1112basic_stringIcSt11char_traitsIcESaIcEEEEE11_M_max_sizeEv
FNDA:468,_ZNK9__gnu_cxx13new_allocatorISt13_Rb_tree_nodeINSt7__cxx1112basic_stringIcSt11char_traitsIcESaIcEEEEE11_M_max_sizeEv
FN:197,_ZNK9__gnu_cxx13new_allocatorIN7testing8internal26ParameterizedTestSuiteInfoI21RXRotateInsertFixtureE17InstantiationInfoEE11_M_max_sizeEv
FNDA:9,_ZNK9__gnu_cxx13new_allocatorIN7testing8internal26ParameterizedTestSuiteInfoI21RXRotateInsertFixtureE17InstantiationInfoEE11_M_max_sizeEv
FN:197,_ZNK9__gnu_cxx13new_allocatorIN7testing8internal26ParameterizedTestSuiteInfoI21LXRotateInsertFixtureE17InstantiationInfoEE11_M_max_sizeEv
FNDA:9,_ZNK9__gnu_cxx13new_allocatorIN7testing8internal26ParameterizedTestSuiteInfoI21LXRotateInsertFixtureE17InstantiationInfoEE11_M_max_sizeEv
FN:197,_ZNK9__gnu_cxx13new_allocatorIPN7testing8internal30ParameterizedTestSuiteInfoBaseEE11_M_max_sizeEv
FNDA:36,_ZNK9__gnu_cxx13new_allocatorIPN7testing8internal30ParameterizedTestSuiteInfoBaseEE11_M_max_sizeEv
FN:197,_ZNK9__gnu_cxx13new_allocatorISt5tupleIJiiEEE11_M_max_sizeEv
FNDA:36,_ZNK9__gnu_cxx13new_allocatorISt5tupleIJiiEEE11_M_max_sizeEv
DA:79,18
DA:79,3
DA:79,3
DA:79,3
DA:79,3
DA:79,3
DA:79,3
DA:79,3
DA:79,3
DA:79,3
DA:79,3
DA:79,3
DA:79,3
DA:79,18
DA:79,18
DA:79,0
DA:82,36
DA:82,36
DA:82,0
DA:89,18
DA:89,3
DA:89,3
DA:89,3
DA:89,3
DA:89,3
DA:89,3
DA:89,3
DA:89,3
DA:89,54
DA:89,3
DA:89,3
DA:89,3
DA:89,3
DA:89,54
DA:89,0
DA:103,468
DA:111,468
DA:115,0
DA:116,0
DA:117,0
DA:127,468
DA:103,3
DA:111,3
DA:115,0
DA:116,0
DA:117,0
DA:127,3
DA:103,3
DA:111,3
DA:115,0
DA:116,0
DA:117,0
DA:127,3
DA:103,3
DA:111,3
DA:115,0
DA:116,0
DA:117,0
DA:127,3
DA:103,3
DA:111,3
DA:115,0
DA:116,0
DA:117,0
DA:127,3
DA:103,3
DA:111,3
DA:115,0
DA:116,0
DA:117,0
DA:127,3
DA:103,3
DA:111,3
DA:115,0
DA:116,0
DA:117,0
DA:127,3
DA:103,3
DA:111,3
DA:115,0
DA:116,0
DA:117,0
DA:127,3
DA:103,3
DA:111,3
DA:115,0
DA:116,0
DA:117,0
DA:127,3
DA:103,3
DA:111,3
DA:115,0
DA:116,0
DA:117,0
DA:127,3
DA:103,3
DA:111,3
DA:115,0
DA:116,0
DA:117,0
DA:127,3
DA:103,18
DA:111,18
DA:115,0
DA:116,0
DA:117,0
DA:127,18
DA:103,3
DA:111,3
DA:115,0
DA:116,0
DA:117,0
DA:127,3
DA:103,3
DA:111,3
DA:115,0
DA:116,0
DA:117,0
DA:127,3
DA:103,12
DA:111,12
DA:115,0
DA:116,0
DA:117,0
DA:127,12
DA:103,18
DA:111,18
DA:115,0
DA:116,0
DA:117,0
DA:127,18
DA:132,468
DA:145,468
DA:150,468
DA:132,3
DA:145,3
DA:150,3
DA:132,3
DA:145,3
DA:150,3
DA:132,3
DA:145,3
DA:150,3
DA:132,3
DA:145,3
DA:150,3
DA:132,3
DA:145,3
DA:150,3
DA:132,3
DA:145,3
DA:150,3
DA:132,3
DA:145,3
DA:150,3
DA:132,3
DA:145,3
DA:150,3
DA:132,18
DA:145,18
DA:150,18
DA:132,3
DA:145,3
DA:150,3
DA:132,3
DA:145,3
DA:150,3
DA:132,3
DA:145,3
DA:150,3
DA:132,3
DA:145,3
DA:150,3
DA:132,18
DA:145,18
DA:150,18
DA:132,9
DA:145,9
DA:150,9
DA:154,6
DA:155,6
DA:154,6
DA:155,6
DA:154,6
DA:155,6
DA:154,6
DA:155,6
DA:154,6
DA:155,6
DA:154,6
DA:155,6
DA:154,6
DA:155,6
DA:154,6
DA:155,6
DA:154,6
DA:155,6
DA:154,6
DA:155,6
DA:154,6
DA:155,6
DA:154,6
DA:155,6
DA:154,24
DA:155,24
DA:154,18
DA:155,18
DA:154,18
DA:155,18
DA:160,468
DA:162,468
DA:160,3
DA:162,3
DA:160,3
DA:162,3
DA:160,3
DA:162,3
DA:160,3
DA:162,3
DA:160,3
DA:162,3
DA:160,3
DA:162,3
DA:160,3
DA:162,3
DA:160,3
DA:162,3
DA:160,3
DA:162,3
DA:160,3
DA:162,3
DA:160,3
DA:162,3
DA:160,3
DA:162,3
DA:160,18
DA:162,18
DA:166,468
DA:168,468
DA:166,0
DA:168,0
DA:166,0
DA:168,0
DA:166,0
DA:168,0
DA:166,0
DA:168,0
DA:166,0
DA:168,0
DA:166,0
DA:168,0
DA:166,0
DA:168,0
DA:166,0
DA:168,0
DA:166,0
DA:168,0
DA:166,0
DA:168,0
DA:166,0
DA:168,0
DA:166,0
DA:168,0
DA:166,0
DA:168,0
DA:197,468
DA:200,468
DA:197,9
DA:200,9
DA:197,9
DA:200,9
DA:197,9
DA:200,9
DA:197,9
DA:200,9
DA:197,9
DA:200,9
DA:197,9
DA:200,9
DA:197,9
DA:200,9
DA:197,9
DA:200,9
DA:197,9
DA:200,9
DA:197,9
DA:200,9
DA:197,36
DA:200,36
DA:197,9
DA:200,9
DA:197,9
DA:200,9
DA:197,36
DA:200,36
DA:197,36
DA:200,36
end_of_record
SF:/usr/include/c++/11/bits/stl_construct.h
FN:109,_ZSt10_ConstructISt10shared_ptrIN7testing8internal26ParameterizedTestSuiteInfoI11RankFixtureE8TestInfoEEJS7_EEvPT_DpOT0_
FNDA:0,_ZSt10_ConstructISt10shared_ptrIN7testing8internal26ParameterizedTestSuiteInfoI11RankFixtureE8TestInfoEEJS7_EEvPT_DpOT0_
FN:109,_ZSt10_ConstructISt10shared_ptrIN7testing8internal26ParameterizedTestSuiteInfoI11FindFixtureE8TestInfoEEJS7_EEvPT_DpOT0_
FNDA:0,_ZSt10_ConstructISt10shared_ptrIN7testing8internal26ParameterizedTestSuiteInfoI11FindFixtureE8TestInfoEEJS7_EEvPT_DpOT0_
FN:109,_ZSt10_ConstructISt5tupleIJiiEEJRKS1_EEvPT_DpOT0_
FNDA:252,_ZSt10_ConstructISt5tupleIJiiEEJRKS1_EEvPT_DpOT0_
FN:109,_ZSt10_ConstructISt5tupleIJiiiEEJRKS1_EEvPT_DpOT0_
FNDA:684,_ZSt10_ConstructISt5tupleIJiiiEEJRKS1_EEvPT_DpOT0_
FN:109,_ZSt10_ConstructIN7testing8internal26ParameterizedTestSuiteInfoI21LXRotateInsertFixtureE17InstantiationInfoEJS5_EEvPT_DpOT0_
FNDA:0,_ZSt10_ConstructIN7testing8internal26ParameterizedTestSuiteInfoI21LXRotateInsertFixtureE17InstantiationInfoEJS5_EEvPT_DpOT0_
FN:109,_ZSt10_ConstructIN7testing8internal26ParameterizedTestSuiteInfoI21RXRotateInsertFixtureE17InstantiationInfoEJS5_EEvPT_DpOT0_
FNDA:0,_ZSt10_ConstructIN7testing8internal26ParameterizedTestSuiteInfoI21RXRotateInsertFixtureE17InstantiationInfoEJS5_EEvPT_DpOT0_
FN:109,_ZSt10_ConstructIN7testing8internal26ParameterizedTestSuiteInfoI14MinimumFixtureE17InstantiationInfoEJS5_EEvPT_DpOT0_
FNDA:0,_ZSt10_ConstructIN7testing8internal26ParameterizedTestSuiteInfoI14MinimumFixtureE17InstantiationInfoEJS5_EEvPT_DpOT0_
FN:109,_ZSt10_ConstructIN7testing8internal26ParameterizedTestSuiteInfoI14MaximumFixtureE17InstantiationInfoEJS5_EEvPT_DpOT0_
FNDA:0,_ZSt10_ConstructIN7testing8internal26ParameterizedTestSuiteInfoI14MaximumFixtureE17InstantiationInfoEJS5_EEvPT_DpOT0_
FN:109,_ZSt10_ConstructIN7testing8internal26ParameterizedTestSuiteInfoI11RankFixtureE17InstantiationInfoEJS5_EEvPT_DpOT0_
FNDA:0,_ZSt10_ConstructIN7testing8internal26ParameterizedTestSuiteInfoI11RankFixtureE17InstantiationInfoEJS5_EEvPT_DpOT0_
FN:109,_ZSt10_ConstructIN7testing8internal26ParameterizedTestSuiteInfoI11FindFixtureE17InstantiationInfoEJS5_EEvPT_DpOT0_
FNDA:0,_ZSt10_ConstructIN7testing8internal26ParameterizedTestSuiteInfoI11FindFixtureE17InstantiationInfoEJS5_EEvPT_DpOT0_
FN:109,_ZSt10_ConstructISt10shared_ptrIN7testing8internal26ParameterizedTestSuiteInfoI21LXRotateInsertFixtureE8TestInfoEEJS7_EEvPT_DpOT0_
FNDA:0,_ZSt10_ConstructISt10shared_ptrIN7testing8internal26ParameterizedTestSuiteInfoI21LXRotateInsertFixtureE8TestInfoEEJS7_EEvPT_DpOT0_
FN:109,_ZSt10_ConstructISt10shared_ptrIN7testing8internal26ParameterizedTestSuiteInfoI21RXRotateInsertFixtureE8TestInfoEEJS7_EEvPT_DpOT0_
FNDA:0,_ZSt10_ConstructISt10shared_ptrIN7testing8internal26ParameterizedTestSuiteInfoI21RXRotateInsertFixtureE8TestInfoEEJS7_EEvPT_DpOT0_
FN:109,_ZSt10_ConstructISt10shared_ptrIN7testing8internal26ParameterizedTestSuiteInfoI14MinimumFixtureE8TestInfoEEJS7_EEvPT_DpOT0_
FNDA:0,_ZSt10_ConstructISt10shared_ptrIN7testing8internal26ParameterizedTestSuiteInfoI14MinimumFixtureE8TestInfoEEJS7_EEvPT_DpOT0_
FN:109,_ZSt10_ConstructISt10shared_ptrIN7testing8internal26ParameterizedTestSuiteInfoI14MaximumFixtureE8TestInfoEEJS7_EEvPT_DpOT0_
FNDA:0,_ZSt10_ConstructISt10shared_ptrIN7testing8internal26ParameterizedTestSuiteInfoI14MaximumFixtureE8TestInfoEEJS7_EEvPT_DpOT0_
FN:146,_ZSt8_DestroyIN7testing8internal26ParameterizedTestSuiteInfoI11RankFixtureE17InstantiationInfoEEvPT_
FNDA:3,_ZSt8_DestroyIN7testing8internal26ParameterizedTestSuiteInfoI11RankFixtureE17InstantiationInfoEEvPT_
FN:146,_ZSt8_DestroyISt10shared_ptrIN7testing8internal26ParameterizedTestSuiteInfoI21LXRotateInsertFixtureE8TestInfoEEEvPT_
FNDA:3,_ZSt8_DestroyISt10shared_ptrIN7testing8internal26ParameterizedTestSuiteInfoI21LXRotateInsertFixtureE8TestInfoEEEvPT_
FN:146,_ZSt8_DestroyIN7testing8internal26ParameterizedTestSuiteInfoI21LXRotateInsertFixtureE17InstantiationInfoEEvPT_
FNDA:3,_ZSt8_DestroyIN7testing8internal26ParameterizedTestSuiteInfoI21LXRotateInsertFixtureE17InstantiationInfoEEvPT_
FN:146,_ZSt8_DestroyISt10shared_ptrIN7testing8internal26ParameterizedTestSuiteInfoI21RXRotateInsertFixtureE8TestInfoEEEvPT_
FNDA:3,_ZSt8_DestroyISt10shared_ptrIN7testing8internal26ParameterizedTestSuiteInfoI21RXRotateInsertFixtureE8TestInfoEEEvPT_
FN:146,_ZSt8_DestroyIN7testing8internal26ParameterizedTestSuiteInfoI21RXRotateInsertFixtureE17InstantiationInfoEEvPT_
FNDA:3,_ZSt8_DestroyIN7testing8internal26ParameterizedTestSuiteInfoI21RXRotateInsertFixtureE17InstantiationInfoEEvPT_
FN:146,_ZSt8_DestroyISt10shared_ptrIN7testing8internal26ParameterizedTestSuiteInfoI14MinimumFixtureE8TestInfoEEEvPT_
FNDA:3,_ZSt8_DestroyISt10shared_ptrIN7testing8internal26ParameterizedTestSuiteInfoI14MinimumFixtureE8TestInfoEEEvPT_
FN:146,_ZSt8_DestroyIN7testing8internal26ParameterizedTestSuiteInfoI14MinimumFixtureE17InstantiationInfoEEvPT_
FNDA:3,_ZSt8_DestroyIN7testing8internal26ParameterizedTestSuiteInfoI14MinimumFixtureE17InstantiationInfoEEvPT_
FN:146,_ZSt8_DestroyISt10shared_ptrIN7testing8internal26ParameterizedTestSuiteInfoI14MaximumFixtureE8TestInfoEEEvPT_
FNDA:3,_ZSt8_DestroyISt10shared_ptrIN7testing8internal26ParameterizedTestSuiteInfoI14MaximumFixtureE8TestInfoEEEvPT_
FN:146,_ZSt8_DestroyIN7testing8internal26ParameterizedTestSuiteInfoI14MaximumFixtureE17InstantiationInfoEEvPT_
FNDA:3,_ZSt8_DestroyIN7testing8internal26ParameterizedTestSuiteInfoI14MaximumFixtureE17InstantiationInfoEEvPT_
FN:146,_ZSt8_DestroyISt10shared_ptrIN7testing8internal26ParameterizedTestSuiteInfoI11RankFixtureE8TestInfoEEEvPT_
FNDA:3,_ZSt8_DestroyISt10shared_ptrIN7testing8internal26ParameterizedTestSuiteInfoI11RankFixtureE8TestInfoEEEvPT_
FN:146,_ZSt8_DestroyISt10shared_ptrIN7testing8internal26ParameterizedTestSuiteInfoI11FindFixtureE8TestInfoEEEvPT_
FNDA:3,_ZSt8_DestroyISt10shared_ptrIN7testing8internal26ParameterizedTestSuiteInfoI11FindFixtureE8TestInfoEEEvPT_
FN:146,_ZSt8_DestroyIN7testing8internal26ParameterizedTestSuiteInfoI11FindFixtureE17InstantiationInfoEEvPT_
FNDA:3,_ZSt8_DestroyIN7testing8internal26ParameterizedTestSuiteInfoI11FindFixtureE17InstantiationInfoEEvPT_
FN:160,_ZNSt12_Destroy_auxILb0EE9__destroyIPN7testing8internal26ParameterizedTestSuiteInfoI11RankFixtureE17InstantiationInfoEEEvT_S9_
FNDA:3,_ZNSt12_Destroy_auxILb0EE9__destroyIPN7testing8internal26ParameterizedTestSuiteInfoI11RankFixtureE17InstantiationInfoEEEvT_S9_
FN:160,_ZNSt12_Destroy_auxILb0EE9__destroyIPSt10shared_ptrIN7testing8internal26ParameterizedTestSuiteInfoI21LXRotateInsertFixtureE8TestInfoEEEEvT_SB_
FNDA:3,_ZNSt12_Destroy_auxILb0EE9__destroyIPSt10shared_ptrIN7testing8internal26ParameterizedTestSuiteInfoI21LXRotateInsertFixtureE8TestInfoEEEEvT_SB_
FN:160,_ZNSt12_Destroy_auxILb0EE9__destroyIPN7testing8internal26ParameterizedTestSuiteInfoI21LXRotateInsertFixtureE17InstantiationInfoEEEvT_S9_
FNDA:3,_ZNSt12_Destroy_auxILb0EE9__destroyIPN7testing8internal26ParameterizedTestSuiteInfoI21LXRotateInsertFixtureE17InstantiationInfoEEEvT_S9_
FN:160,_ZNSt12_Destroy_auxILb0EE9__destroyIPSt10shared_ptrIN7testing8internal26ParameterizedTestSuiteInfoI21RXRotateInsertFixtureE8TestInfoEEEEvT_SB_
FNDA:3,_ZNSt12_Destroy_auxILb0EE9__destroyIPSt10shared_ptrIN7testing8internal26ParameterizedTestSuiteInfoI21RXRotateInsertFixtureE8TestInfoEEEEvT_SB_
FN:160,_ZNSt12_Destroy_auxILb0EE9__destroyIPN7testing8internal26ParameterizedTestSuiteInfoI21RXRotateInsertFixtureE17InstantiationInfoEEEvT_S9_
FNDA:3,_ZNSt12_Destroy_auxILb0EE9__destroyIPN7testing8internal26ParameterizedTestSuiteInfoI21RXRotateInsertFixtureE17InstantiationInfoEEEvT_S9_
FN:160,_ZNSt12_Destroy_auxILb0EE9__destroyIPSt10shared_ptrIN7testing8internal26ParameterizedTestSuiteInfoI14MinimumFixtureE8TestInfoEEEEvT_SB_
FNDA:3,_ZNSt12_Destroy_auxILb0EE9__destroyIPSt10shared_ptrIN7testing8internal26ParameterizedTestSuiteInfoI14MinimumFixtureE8TestInfoEEEEvT_SB_
FN:160,_ZNSt12_Destroy_auxILb0EE9__destroyIPSt10shared_ptrIN7testing8internal26ParameterizedTestSuiteInfoI14MaximumFixtureE8TestInfoEEEEvT_SB_
FNDA:3,_ZNSt12_Destroy_auxILb0EE9__destroyIPSt10shared_ptrIN7testing8internal26ParameterizedTestSuiteInfoI14MaximumFixtureE8TestInfoEEEEvT_SB_
FN:160,_ZNSt12_Destroy_auxILb0EE9__destroyIPN7testing8internal26ParameterizedTestSuiteInfoI14MaximumFixtureE17InstantiationInfoEEEvT_S9_
FNDA:3,_ZNSt12_Destroy_auxILb0EE9__destroyIPN7testing8internal26ParameterizedTestSuiteInfoI14MaximumFixtureE17InstantiationInfoEEEvT_S9_
FN:160,_ZNSt12_Destroy_auxILb0EE9__destroyIPSt10shared_ptrIN7testing8internal26ParameterizedTestSuiteInfoI11RankFixtureE8TestInfoEEEEvT_SB_
FNDA:3,_ZNSt12_Destroy_auxILb0EE9__destroyIPSt10shared_ptrIN7testing8internal26ParameterizedTestSuiteInfoI11RankFixtureE8TestInfoEEEEvT_SB_
FN:160,_ZNSt12_Destroy_auxILb0EE9__destroyIPSt10shared_ptrIN7testing8internal26ParameterizedTestSuiteInfoI11FindFixtureE8TestInfoEEEEvT_SB_
FNDA:3,_ZNSt12_Destroy_auxILb0EE9__destroyIPSt10shared_ptrIN7testing8internal26ParameterizedTestSuiteInfoI11FindFixtureE8TestInfoEEEEvT_SB_
FN:160,_ZNSt12_Destroy_auxILb0EE9__destroyIPN7testing8internal26ParameterizedTestSuiteInfoI11FindFixtureE17InstantiationInfoEEEvT_S9_
FNDA:3,_ZNSt12_Destroy_auxILb0EE9__destroyIPN7testing8internal26ParameterizedTestSuiteInfoI11FindFixtureE17InstantiationInfoEEEvT_S9_
FN:160,_ZNSt12_Destroy_auxILb0EE9__destroyIPN7testing8internal26ParameterizedTestSuiteInfoI14MinimumFixtureE17InstantiationInfoEEEvT_S9_
FNDA:3,_ZNSt12_Destroy_auxILb0EE9__destroyIPN7testing8internal26ParameterizedTestSuiteInfoI14MinimumFixtureE17InstantiationInfoEEEvT_S9_
FN:172,_ZNSt12_Destroy_auxILb1EE9__destroyIPPN7testing8internal30ParameterizedTestSuiteInfoBaseEEEvT_S7_
FNDA:0,_ZNSt12_Destroy_auxILb1EE9__destroyIPPN7testing8internal30ParameterizedTestSuiteInfoBaseEEEvT_S7_
FN:172,_ZNSt12_Destroy_auxILb1EE9__destroyIPSt5tupleIJiiEEEEvT_S5_
FNDA:18,_ZNSt12_Destroy_auxILb1EE9__destroyIPSt5tupleIJiiEEEEvT_S5_
FN:172,_ZNSt12_Destroy_auxILb1EE9__destroyIPSt5tupleIJiiiEEEEvT_S5_
FNDA:18,_ZNSt12_Destroy_auxILb1EE9__destroyIPSt5tupleIJiiiEEEEvT_S5_
FN:182,_ZSt8_DestroyIPPN7testing8internal30ParameterizedTestSuiteInfoBaseEEvT_S5_
FNDA:0,_ZSt8_DestroyIPPN7testing8internal30ParameterizedTestSuiteInfoBaseEEvT_S5_
FN:182,_ZSt8_DestroyIPSt5tupleIJiiEEEvT_S3_
FNDA:18,_ZSt8_DestroyIPSt5tupleIJiiEEEvT_S3_
FN:182,_ZSt8_DestroyIPSt5tupleIJiiiEEEvT_S3_
FNDA:18,_ZSt8_DestroyIPSt5tupleIJiiiEEEvT_S3_
FN:182,_ZSt8_DestroyIPSt10shared_ptrIN7testing8internal26ParameterizedTestSuiteInfoI21LXRotateInsertFixtureE8TestInfoEEEvT_S9_
FNDA:3,_ZSt8_DestroyIPSt10shared_ptrIN7testing8internal26ParameterizedTestSuiteInfoI21LXRotateInsertFixtureE8TestInfoEEEvT_S9_
FN:182,_ZSt8_DestroyIPN7testing8internal26ParameterizedTestSuiteInfoI21LXRotateInsertFixtureE17InstantiationInfoEEvT_S7_
FNDA:3,_ZSt8_DestroyIPN7testing8internal26ParameterizedTestSuiteInfoI21LXRotateInsertFixtureE17InstantiationInfoEEvT_S7_
FN:182,_ZSt8_DestroyIPSt10shared_ptrIN7testing8internal26ParameterizedTestSuiteInfoI21RXRotateInsertFixtureE8TestInfoEEEvT_S9_
FNDA:3,_ZSt8_DestroyIPSt10shared_ptrIN7testing8internal26ParameterizedTestSuiteInfoI21RXRotateInsertFixtureE8TestInfoEEEvT_S9_
FN:182,_ZSt8_DestroyIPN7testing8internal26ParameterizedTestSuiteInfoI21RXRotateInsertFixtureE17InstantiationInfoEEvT_S7_
FNDA:3,_ZSt8_DestroyIPN7testing8internal26ParameterizedTestSuiteInfoI21RXRotateInsertFixtureE17InstantiationInfoEEvT_S7_
FN:182,_ZSt8_DestroyIPSt10shared_ptrIN7testing8internal26ParameterizedTestSuiteInfoI14MinimumFixtureE8TestInfoEEEvT_S9_
FNDA:3,_ZSt8_DestroyIPSt10shared_ptrIN7testing8internal26ParameterizedTestSuiteInfoI14MinimumFixtureE8TestInfoEEEvT_S9_
FN:182,_ZSt8_DestroyIPN7testing8internal26ParameterizedTestSuiteInfoI14MinimumFixtureE17InstantiationInfoEEvT_S7_
FNDA:3,_ZSt8_DestroyIPN7testing8internal26ParameterizedTestSuiteInfoI14MinimumFixtureE17InstantiationInfoEEvT_S7_
FN:182,_ZSt8_DestroyIPSt10shared_ptrIN7testing8internal26ParameterizedTestSuiteInfoI14MaximumFixtureE8TestInfoEEEvT_S9_
FNDA:3,_ZSt8_DestroyIPSt10shared_ptrIN7testing8internal26ParameterizedTestSuiteInfoI14MaximumFixtureE8TestInfoEEEvT_S9_
FN:182,_ZSt8_DestroyIPN7testing8internal26ParameterizedTestSuiteInfoI14MaximumFixtureE17InstantiationInfoEEvT_S7_
FNDA:3,_ZSt8_DestroyIPN7testing8internal26ParameterizedTestSuiteInfoI14MaximumFixtureE17InstantiationInfoEEvT_S7_
FN:182,_ZSt8_DestroyIPSt10shared_ptrIN7testing8internal26ParameterizedTestSuiteInfoI11RankFixtureE8TestInfoEEEvT_S9_
FNDA:3,_ZSt8_DestroyIPSt10shared_ptrIN7testing8internal26ParameterizedTestSuiteInfoI11RankFixtureE8TestInfoEEEvT_S9_
FN:182,_ZSt8_DestroyIPN7testing8internal26ParameterizedTestSuiteInfoI11RankFixtureE17InstantiationInfoEEvT_S7_
FNDA:3,_ZSt8_DestroyIPN7testing8internal26ParameterizedTestSuiteInfoI11RankFixtureE17InstantiationInfoEEvT_S7_
FN:182,_ZSt8_DestroyIPSt10shared_ptrIN7testing8internal26ParameterizedTestSuiteInfoI11FindFixtureE8TestInfoEEEvT_S9_
FNDA:3,_ZSt8_DestroyIPSt10shared_ptrIN7testing8internal26ParameterizedTestSuiteInfoI11FindFixtureE8TestInfoEEEvT_S9_
FN:182,_ZSt8_DestroyIPN7testing8internal26ParameterizedTestSuiteInfoI11FindFixtureE17InstantiationInfoEEvT_S7_
FNDA:3,_ZSt8_DestroyIPN7testing8internal26ParameterizedTestSuiteInfoI11FindFixtureE17InstantiationInfoEEvT_S7_
DA:109,0
DA:119,0
DA:120,0
DA:109,0
DA:119,0
DA:120,0
DA:109,0
DA:119,0
DA:120,0
DA:109,0
DA:119,0
DA:120,0
DA:109,0
DA:119,0
DA:120,0
DA:109,0
DA:119,0
DA:120,0
DA:109,0
DA:119,0
DA:120,0
DA:109,0
DA:119,0
DA:120,0
DA:109,0
DA:119,0
DA:120,0
DA:109,0
DA:119,0
DA:120,0
DA:109,0
DA:119,0
DA:120,0
DA:109,0
DA:119,0
DA:120,0
DA:109,684
DA:119,684
DA:120,684
DA:109,252
DA:119,252
DA:120,252
DA:146,3
DA:151,3
DA:153,3
DA:146,3
DA:151,3
DA:153,3
DA:146,3
DA:151,3
DA:153,3
DA:146,3
DA:151,3
DA:153,3
DA:146,3
DA:151,3
DA:153,3
DA:146,3
DA:151,3
DA:153,3
DA:146,3
DA:151,3
DA:153,3
DA:146,3
DA:151,3
DA:153,3
DA:146,3
DA:151,3
DA:153,3
DA:146,3
DA:151,3
DA:153,3
DA:146,3
DA:151,3
DA:153,3
DA:146,3
DA:151,3
DA:153,3
DA:160,3
DA:162,6
DA:163,3
DA:164,3
DA:160,3
DA:162,6
DA:163,3
DA:164,3
DA:160,3
DA:162,6
DA:163,3
DA:164,3
DA:160,3
DA:162,6
DA:163,3
DA:164,3
DA:160,3
DA:162,6
DA:163,3
DA:164,3
DA:160,3
DA:162,6
DA:163,3
DA:164,3
DA:160,3
DA:162,6
DA:163,3
DA:164,3
DA:160,3
DA:162,6
DA:163,3
DA:164,3
DA:160,3
DA:162,6
DA:163,3
DA:164,3
DA:160,3
DA:162,6
DA:163,3
DA:164,3
DA:160,3
DA:162,6
DA:163,3
DA:164,3
DA:160,3
DA:162,6
DA:163,3
DA:164,3
DA:172,18
DA:172,18
DA:172,0
DA:182,3
DA:196,3
DA:197,3
DA:182,3
DA:196,3
DA:197,3
DA:182,3
DA:196,3
DA:197,3
DA:182,3
DA:196,3
DA:197,3
DA:182,3
DA:196,3
DA:197,3
DA:182,3
DA:196,3
DA:197,3
DA:182,3
DA:196,3
DA:197,3
DA:182,3
DA:196,3
DA:197,3
DA:182,3
DA:196,3
DA:197,3
DA:182,3
DA:196,3
DA:197,3
DA:182,3
DA:196,3
DA:197,3
DA:182,3
DA:196,3
DA:197,3
DA:182,18
DA:196,18
DA:197,18
DA:182,18
DA:196,18
DA:197,18
DA:182,0
DA:196,0
DA:197,0
end_of_record
SF:/usr/include/c++/11/bits/stl_iterator.h
FN:1027,_ZN9__gnu_cxx17__normal_iteratorIPN7testing8internal26ParameterizedTestSuiteInfoI11RankFixtureE17InstantiationInfoESt6vectorIS6_SaIS6_EEEC2ERKS7_
FNDA:15,_ZN9__gnu_cxx17__normal_iteratorIPN7testing8internal26ParameterizedTestSuiteInfoI11RankFixtureE17InstantiationInfoESt6vectorIS6_SaIS6_EEEC2ERKS7_
FN:1027,_ZN9__gnu_cxx17__normal_iteratorIPN7testing8internal26ParameterizedTestSuiteInfoI21RXRotateInsertFixtureE17InstantiationInfoESt6vectorIS6_SaIS6_EEEC2ERKS7_
FNDA:15,_ZN9__gnu_cxx17__normal_iteratorIPN7testing8internal26ParameterizedTestSuiteInfoI21RXRotateInsertFixtureE17InstantiationInfoESt6vectorIS6_SaIS6_EEEC2ERKS7_
FN:1027,_ZN9__gnu_cxx17__normal_iteratorIPPN7testing8internal30ParameterizedTestSuiteInfoBaseESt6vectorIS4_SaIS4_EEEC2ERKS5_
FNDA:96,_ZN9__gnu_cxx17__normal_iteratorIPPN7testing8internal30ParameterizedTestSuiteInfoBaseESt6vectorIS4_SaIS4_EEEC2ERKS5_
FN:1027,_ZN9__gnu_cxx17__normal_iteratorIPSt10shared_ptrIN7testing8internal26ParameterizedTestSuiteInfoI21RXRotateInsertFixtureE8TestInfoEESt6vectorIS8_SaIS8_EEEC2ERKS9_
FNDA:15,_ZN9__gnu_cxx17__normal_iteratorIPSt10shared_ptrIN7testing8internal26ParameterizedTestSuiteInfoI21RXRotateInsertFixtureE8TestInfoEESt6vectorIS8_SaIS8_EEEC2ERKS9_
FN:1027,_ZN9__gnu_cxx17__normal_iteratorIPSt10shared_ptrIN7testing8internal26ParameterizedTestSuiteInfoI14MinimumFixtureE8TestInfoEESt6vectorIS8_SaIS8_EEEC2ERKS9_
FNDA:15,_ZN9__gnu_cxx17__normal_iteratorIPSt10shared_ptrIN7testing8internal26ParameterizedTestSuiteInfoI14MinimumFixtureE8TestInfoEESt6vectorIS8_SaIS8_EEEC2ERKS9_
FN:1027,_ZN9__gnu_cxx17__normal_iteratorIPSt10shared_ptrIN7testing8internal26ParameterizedTestSuiteInfoI21LXRotateInsertFixtureE8TestInfoEESt6vectorIS8_SaIS8_EEEC2ERKS9_
FNDA:15,_ZN9__gnu_cxx17__normal_iteratorIPSt10shared_ptrIN7testing8internal26ParameterizedTestSuiteInfoI21LXRotateInsertFixtureE8TestInfoEESt6vectorIS8_SaIS8_EEEC2ERKS9_
FN:1027,_ZN9__gnu_cxx17__normal_iteratorIPSt10shared_ptrIN7testing8internal26ParameterizedTestSuiteInfoI14MaximumFixtureE8TestInfoEESt6vectorIS8_SaIS8_EEEC2ERKS9_
FNDA:15,_ZN9__gnu_cxx17__normal_iteratorIPSt10shared_ptrIN7testing8internal26ParameterizedTestSuiteInfoI14MaximumFixtureE8TestInfoEESt6vectorIS8_SaIS8_EEEC2ERKS9_
FN:1027,_ZN9__gnu_cxx17__normal_iteratorIPSt10shared_ptrIN7testing8internal26ParameterizedTestSuiteInfoI11RankFixtureE8TestInfoEESt6vectorIS8_SaIS8_EEEC2ERKS9_
FNDA:15,_ZN9__gnu_cxx17__normal_iteratorIPSt10shared_ptrIN7testing8internal26ParameterizedTestSuiteInfoI11RankFixtureE8TestInfoEESt6vectorIS8_SaIS8_EEEC2ERKS9_
FN:1027,_ZN9__gnu_cxx17__normal_iteratorIPN7testing8internal26ParameterizedTestSuiteInfoI21LXRotateInsertFixtureE17InstantiationInfoESt6vectorIS6_SaIS6_EEEC2ERKS7_
FNDA:15,_ZN9__gnu_cxx17__normal_iteratorIPN7testing8internal26ParameterizedTestSuiteInfoI21LXRotateInsertFixtureE17InstantiationInfoESt6vectorIS6_SaIS6_EEEC2ERKS7_
FN:1027,_ZN9__gnu_cxx17__normal_iteratorIPKSt10shared_ptrIN7testing8internal26ParameterizedTestSuiteInfoI11FindFixtureE8TestInfoEESt6vectorIS8_SaIS8_EEEC2ERKSA_
FNDA:0,_ZN9__gnu_cxx17__normal_iteratorIPKSt10shared_ptrIN7testing8internal26ParameterizedTestSuiteInfoI11FindFixtureE8TestInfoEESt6vectorIS8_SaIS8_EEEC2ERKSA_
FN:1027,_ZN9__gnu_cxx17__normal_iteratorIPSt10shared_ptrIN7testing8internal26ParameterizedTestSuiteInfoI11FindFixtureE8TestInfoEESt6vectorIS8_SaIS8_EEEC2ERKS9_
FNDA:15,_ZN9__gnu_cxx17__normal_iteratorIPSt10shared_ptrIN7testing8internal26ParameterizedTestSuiteInfoI11FindFixtureE8TestInfoEESt6vectorIS8_SaIS8_EEEC2ERKS9_
FN:1027,_ZN9__gnu_cxx17__normal_iteratorIPKSt10shared_ptrIN7testing8internal26ParameterizedTestSuiteInfoI11RankFixtureE8TestInfoEESt6vectorIS8_SaIS8_EEEC2ERKSA_
FNDA:0,_ZN9__gnu_cxx17__normal_iteratorIPKSt10shared_ptrIN7testing8internal26ParameterizedTestSuiteInfoI11RankFixtureE8TestInfoEESt6vectorIS8_SaIS8_EEEC2ERKSA_
FN:1027,_ZN9__gnu_cxx17__normal_iteratorIPN7testing8internal26ParameterizedTestSuiteInfoI14MinimumFixtureE17InstantiationInfoESt6vectorIS6_SaIS6_EEEC2ERKS7_
FNDA:15,_ZN9__gnu_cxx17__normal_iteratorIPN7testing8internal26ParameterizedTestSuiteInfoI14MinimumFixtureE17InstantiationInfoESt6vectorIS6_SaIS6_EEEC2ERKS7_
FN:1027,_ZN9__gnu_cxx17__normal_iteratorIPKSt10shared_ptrIN7testing8internal26ParameterizedTestSuiteInfoI14MaximumFixtureE8TestInfoEESt6vectorIS8_SaIS8_EEEC2ERKSA_
FNDA:0,_ZN9__gnu_cxx17__normal_iteratorIPKSt10shared_ptrIN7testing8internal26ParameterizedTestSuiteInfoI14MaximumFixtureE8TestInfoEESt6vectorIS8_SaIS8_EEEC2ERKSA_
FN:1027,_ZN9__gnu_cxx17__normal_iteratorIPN7testing8internal26ParameterizedTestSuiteInfoI14MaximumFixtureE17InstantiationInfoESt6vectorIS6_SaIS6_EEEC2ERKS7_
FNDA:15,_ZN9__gnu_cxx17__normal_iteratorIPN7testing8internal26ParameterizedTestSuiteInfoI14MaximumFixtureE17InstantiationInfoESt6vectorIS6_SaIS6_EEEC2ERKS7_
FN:1027,_ZN9__gnu_cxx17__normal_iteratorIPKSt10shared_ptrIN7testing8internal26ParameterizedTestSuiteInfoI14MinimumFixtureE8TestInfoEESt6vectorIS8_SaIS8_EEEC2ERKSA_
FNDA:0,_ZN9__gnu_cxx17__normal_iteratorIPKSt10shared_ptrIN7testing8internal26ParameterizedTestSuiteInfoI14MinimumFixtureE8TestInfoEESt6vectorIS8_SaIS8_EEEC2ERKSA_
FN:1027,_ZN9__gnu_cxx17__normal_iteratorIPN7testing8internal26ParameterizedTestSuiteInfoI11FindFixtureE17InstantiationInfoESt6vectorIS6_SaIS6_EEEC2ERKS7_
FNDA:15,_ZN9__gnu_cxx17__normal_iteratorIPN7testing8internal26ParameterizedTestSuiteInfoI11FindFixtureE17InstantiationInfoESt6vectorIS6_SaIS6_EEEC2ERKS7_
FN:1027,_ZN9__gnu_cxx17__normal_iteratorIPKSt10shared_ptrIN7testing8internal26ParameterizedTestSuiteInfoI21RXRotateInsertFixtureE8TestInfoEESt6vectorIS8_SaIS8_EEEC2ERKSA_
FNDA:0,_ZN9__gnu_cxx17__normal_iteratorIPKSt10shared_ptrIN7testing8internal26ParameterizedTestSuiteInfoI21RXRotateInsertFixtureE8TestInfoEESt6vectorIS8_SaIS8_EEEC2ERKSA_
FN:1027,_ZN9__gnu_cxx17__normal_iteratorIPKSt5tupleIJiiEESt6vectorIS2_SaIS2_EEEC2ERKS4_
FNDA:162,_ZN9__gnu_cxx17__normal_iteratorIPKSt5tupleIJiiEESt6vectorIS2_SaIS2_EEEC2ERKS4_
FN:1027,_ZN9__gnu_cxx17__normal_iteratorIPKSt10shared_ptrIN7testing8internal26ParameterizedTestSuiteInfoI21LXRotateInsertFixtureE8TestInfoEESt6vectorIS8_SaIS8_EEEC2ERKSA_
FNDA:0,_ZN9__gnu_cxx17__normal_iteratorIPKSt10shared_ptrIN7testing8internal26ParameterizedTestSuiteInfoI21LXRotateInsertFixtureE8TestInfoEESt6vectorIS8_SaIS8_EEEC2ERKSA_
FN:1027,_ZN9__gnu_cxx17__normal_iteratorIPKSt5tupleIJiiiEESt6vectorIS2_SaIS2_EEEC2ERKS4_
FNDA:378,_ZN9__gnu_cxx17__normal_iteratorIPKSt5tupleIJiiiEESt6vectorIS2_SaIS2_EEEC2ERKS4_
FN:1042,_ZNK9__gnu_cxx17__normal_iteratorIPSt10shared_ptrIN7testing8internal26ParameterizedTestSuiteInfoI14MinimumFixtureE8TestInfoEESt6vectorIS8_SaIS8_EEEdeEv
FNDA:3,_ZNK9__gnu_cxx17__normal_iteratorIPSt10shared_ptrIN7testing8internal26ParameterizedTestSuiteInfoI14MinimumFixtureE8TestInfoEESt6vectorIS8_SaIS8_EEEdeEv
FN:1042,_ZNK9__gnu_cxx17__normal_iteratorIPSt10shared_ptrIN7testing8internal26ParameterizedTestSuiteInfoI21RXRotateInsertFixtureE8TestInfoEESt6vectorIS8_SaIS8_EEEdeEv
FNDA:3,_ZNK9__gnu_cxx17__normal_iteratorIPSt10shared_ptrIN7testing8internal26ParameterizedTestSuiteInfoI21RXRotateInsertFixtureE8TestInfoEESt6vectorIS8_SaIS8_EEEdeEv
FN:1042,_ZNK9__gnu_cxx17__normal_iteratorIPPN7testing8internal30ParameterizedTestSuiteInfoBaseESt6vectorIS4_SaIS4_EEEdeEv
FNDA:108,_ZNK9__gnu_cxx17__normal_iteratorIPPN7testing8internal30ParameterizedTestSuiteInfoBaseESt6vectorIS4_SaIS4_EEEdeEv
FN:1042,_ZNK9__gnu_cxx17__normal_iteratorIPSt10shared_ptrIN7testing8internal26ParameterizedTestSuiteInfoI14MaximumFixtureE8TestInfoEESt6vectorIS8_SaIS8_EEEdeEv
FNDA:3,_ZNK9__gnu_cxx17__normal_iteratorIPSt10shared_ptrIN7testing8internal26ParameterizedTestSuiteInfoI14MaximumFixtureE8TestInfoEESt6vectorIS8_SaIS8_EEEdeEv
FN:1042,_ZNK9__gnu_cxx17__normal_iteratorIPSt10shared_ptrIN7testing8internal26ParameterizedTestSuiteInfoI11RankFixtureE8TestInfoEESt6vectorIS8_SaIS8_EEEdeEv
FNDA:3,_ZNK9__gnu_cxx17__normal_iteratorIPSt10shared_ptrIN7testing8internal26ParameterizedTestSuiteInfoI11RankFixtureE8TestInfoEESt6vectorIS8_SaIS8_EEEdeEv
FN:1042,_ZNK9__gnu_cxx17__normal_iteratorIPSt10shared_ptrIN7testing8internal26ParameterizedTestSuiteInfoI21LXRotateInsertFixtureE8TestInfoEESt6vectorIS8_SaIS8_EEEdeEv
FNDA:3,_ZNK9__gnu_cxx17__normal_iteratorIPSt10shared_ptrIN7testing8internal26ParameterizedTestSuiteInfoI21LXRotateInsertFixtureE8TestInfoEESt6vectorIS8_SaIS8_EEEdeEv
FN:1042,_ZNK9__gnu_cxx17__normal_iteratorIPSt10shared_ptrIN7testing8internal26ParameterizedTestSuiteInfoI11FindFixtureE8TestInfoEESt6vectorIS8_SaIS8_EEEdeEv
FNDA:3,_ZNK9__gnu_cxx17__normal_iteratorIPSt10shared_ptrIN7testing8internal26ParameterizedTestSuiteInfoI11FindFixtureE8TestInfoEESt6vectorIS8_SaIS8_EEEdeEv
FN:1042,_ZNK9__gnu_cxx17__normal_iteratorIPKSt5tupleIJiiEESt6vectorIS2_SaIS2_EEEdeEv
FNDA:252,_ZNK9__gnu_cxx17__normal_iteratorIPKSt5tupleIJiiEESt6vectorIS2_SaIS2_EEEdeEv
FN:1042,_ZNK9__gnu_cxx17__normal_iteratorIPKSt5tupleIJiiiEESt6vectorIS2_SaIS2_EEEdeEv
FNDA:684,_ZNK9__gnu_cxx17__normal_iteratorIPKSt5tupleIJiiiEESt6vectorIS2_SaIS2_EEEdeEv
FN:1047,_ZNK9__gnu_cxx17__normal_iteratorIPN7testing8internal26ParameterizedTestSuiteInfoI21RXRotateInsertFixtureE17InstantiationInfoESt6vectorIS6_SaIS6_EEEptEv
FNDA:15,_ZNK9__gnu_cxx17__normal_iteratorIPN7testing8internal26ParameterizedTestSuiteInfoI21RXRotateInsertFixtureE17InstantiationInfoESt6vectorIS6_SaIS6_EEEptEv
FN:1047,_ZNK9__gnu_cxx17__normal_iteratorIPN7testing8internal26ParameterizedTestSuiteInfoI11FindFixtureE17InstantiationInfoESt6vectorIS6_SaIS6_EEEptEv
FNDA:15,_ZNK9__gnu_cxx17__normal_iteratorIPN7testing8internal26ParameterizedTestSuiteInfoI11FindFixtureE17InstantiationInfoESt6vectorIS6_SaIS6_EEEptEv
FN:1047,_ZNK9__gnu_cxx17__normal_iteratorIPN7testing8internal26ParameterizedTestSuiteInfoI14MinimumFixtureE17InstantiationInfoESt6vectorIS6_SaIS6_EEEptEv
FNDA:15,_ZNK9__gnu_cxx17__normal_iteratorIPN7testing8internal26ParameterizedTestSuiteInfoI14MinimumFixtureE17InstantiationInfoESt6vectorIS6_SaIS6_EEEptEv
FN:1047,_ZNK9__gnu_cxx17__normal_iteratorIPN7testing8internal26ParameterizedTestSuiteInfoI11RankFixtureE17InstantiationInfoESt6vectorIS6_SaIS6_EEEptEv
FNDA:15,_ZNK9__gnu_cxx17__normal_iteratorIPN7testing8internal26ParameterizedTestSuiteInfoI11RankFixtureE17InstantiationInfoESt6vectorIS6_SaIS6_EEEptEv
FN:1047,_ZNK9__gnu_cxx17__normal_iteratorIPN7testing8internal26ParameterizedTestSuiteInfoI21LXRotateInsertFixtureE17InstantiationInfoESt6vectorIS6_SaIS6_EEEptEv
FNDA:15,_ZNK9__gnu_cxx17__normal_iteratorIPN7testing8internal26ParameterizedTestSuiteInfoI21LXRotateInsertFixtureE17InstantiationInfoESt6vectorIS6_SaIS6_EEEptEv
FN:1047,_ZNK9__gnu_cxx17__normal_iteratorIPN7testing8internal26ParameterizedTestSuiteInfoI14MaximumFixtureE17InstantiationInfoESt6vectorIS6_SaIS6_EEEptEv
FNDA:15,_ZNK9__gnu_cxx17__normal_iteratorIPN7testing8internal26ParameterizedTestSuiteInfoI14MaximumFixtureE17InstantiationInfoESt6vectorIS6_SaIS6_EEEptEv
FN:1052,_ZN9__gnu_cxx17__normal_iteratorIPSt10shared_ptrIN7testing8internal26ParameterizedTestSuiteInfoI11RankFixtureE8TestInfoEESt6vectorIS8_SaIS8_EEEppEv
FNDA:3,_ZN9__gnu_cxx17__normal_iteratorIPSt10shared_ptrIN7testing8internal26ParameterizedTestSuiteInfoI11RankFixtureE8TestInfoEESt6vectorIS8_SaIS8_EEEppEv
FN:1052,_ZN9__gnu_cxx17__normal_iteratorIPN7testing8internal26ParameterizedTestSuiteInfoI11RankFixtureE17InstantiationInfoESt6vectorIS6_SaIS6_EEEppEv
FNDA:3,_ZN9__gnu_cxx17__normal_iteratorIPN7testing8internal26ParameterizedTestSuiteInfoI11RankFixtureE17InstantiationInfoESt6vectorIS6_SaIS6_EEEppEv
FN:1052,_ZN9__gnu_cxx17__normal_iteratorIPN7testing8internal26ParameterizedTestSuiteInfoI11FindFixtureE17InstantiationInfoESt6vectorIS6_SaIS6_EEEppEv
FNDA:3,_ZN9__gnu_cxx17__normal_iteratorIPN7testing8internal26ParameterizedTestSuiteInfoI11FindFixtureE17InstantiationInfoESt6vectorIS6_SaIS6_EEEppEv
FN:1052,_ZN9__gnu_cxx17__normal_iteratorIPSt10shared_ptrIN7testing8internal26ParameterizedTestSuiteInfoI11FindFixtureE8TestInfoEESt6vectorIS8_SaIS8_EEEppEv
FNDA:3,_ZN9__gnu_cxx17__normal_iteratorIPSt10shared_ptrIN7testing8internal26ParameterizedTestSuiteInfoI11FindFixtureE8TestInfoEESt6vectorIS8_SaIS8_EEEppEv
FN:1052,_ZN9__gnu_cxx17__normal_iteratorIPSt10shared_ptrIN7testing8internal26ParameterizedTestSuiteInfoI14MaximumFixtureE8TestInfoEESt6vectorIS8_SaIS8_EEEppEv
FNDA:3,_ZN9__gnu_cxx17__normal_iteratorIPSt10shared_ptrIN7testing8internal26ParameterizedTestSuiteInfoI14MaximumFixtureE8TestInfoEESt6vectorIS8_SaIS8_EEEppEv
FN:1052,_ZN9__gnu_cxx17__normal_iteratorIPSt10shared_ptrIN7testing8internal26ParameterizedTestSuiteInfoI21RXRotateInsertFixtureE8TestInfoEESt6vectorIS8_SaIS8_EEEppEv
FNDA:3,_ZN9__gnu_cxx17__normal_iteratorIPSt10shared_ptrIN7testing8internal26ParameterizedTestSuiteInfoI21RXRotateInsertFixtureE8TestInfoEESt6vectorIS8_SaIS8_EEEppEv
FN:1052,_ZN9__gnu_cxx17__normal_iteratorIPN7testing8internal26ParameterizedTestSuiteInfoI21LXRotateInsertFixtureE17InstantiationInfoESt6vectorIS6_SaIS6_EEEppEv
FNDA:3,_ZN9__gnu_cxx17__normal_iteratorIPN7testing8internal26ParameterizedTestSuiteInfoI21LXRotateInsertFixtureE17InstantiationInfoESt6vectorIS6_SaIS6_EEEppEv
FN:1052,_ZN9__gnu_cxx17__normal_iteratorIPKSt5tupleIJiiiEESt6vectorIS2_SaIS2_EEEppEv
FNDA:684,_ZN9__gnu_cxx17__normal_iteratorIPKSt5tupleIJiiiEESt6vectorIS2_SaIS2_EEEppEv
FN:1052,_ZN9__gnu_cxx17__normal_iteratorIPKSt5tupleIJiiEESt6vectorIS2_SaIS2_EEEppEv
FNDA:252,_ZN9__gnu_cxx17__normal_iteratorIPKSt5tupleIJiiEESt6vectorIS2_SaIS2_EEEppEv
FN:1052,_ZN9__gnu_cxx17__normal_iteratorIPN7testing8internal26ParameterizedTestSuiteInfoI14MaximumFixtureE17InstantiationInfoESt6vectorIS6_SaIS6_EEEppEv
FNDA:3,_ZN9__gnu_cxx17__normal_iteratorIPN7testing8internal26ParameterizedTestSuiteInfoI14MaximumFixtureE17InstantiationInfoESt6vectorIS6_SaIS6_EEEppEv
FN:1052,_ZN9__gnu_cxx17__normal_iteratorIPSt10shared_ptrIN7testing8internal26ParameterizedTestSuiteInfoI21LXRotateInsertFixtureE8TestInfoEESt6vectorIS8_SaIS8_EEEppEv
FNDA:3,_ZN9__gnu_cxx17__normal_iteratorIPSt10shared_ptrIN7testing8internal26ParameterizedTestSuiteInfoI21LXRotateInsertFixtureE8TestInfoEESt6vectorIS8_SaIS8_EEEppEv
FN:1052,_ZN9__gnu_cxx17__normal_iteratorIPPN7testing8internal30ParameterizedTestSuiteInfoBaseESt6vectorIS4_SaIS4_EEEppEv
FNDA:90,_ZN9__gnu_cxx17__normal_iteratorIPPN7testing8internal30ParameterizedTestSuiteInfoBaseESt6vectorIS4_SaIS4_EEEppEv
FN:1052,_ZN9__gnu_cxx17__normal_iteratorIPN7testing8internal26ParameterizedTestSuiteInfoI21RXRotateInsertFixtureE17InstantiationInfoESt6vectorIS6_SaIS6_EEEppEv
FNDA:3,_ZN9__gnu_cxx17__normal_iteratorIPN7testing8internal26ParameterizedTestSuiteInfoI21RXRotateInsertFixtureE17InstantiationInfoESt6vectorIS6_SaIS6_EEEppEv
FN:1052,_ZN9__gnu_cxx17__normal_iteratorIPN7testing8internal26ParameterizedTestSuiteInfoI14MinimumFixtureE17InstantiationInfoESt6vectorIS6_SaIS6_EEEppEv
FNDA:3,_ZN9__gnu_cxx17__normal_iteratorIPN7testing8internal26ParameterizedTestSuiteInfoI14MinimumFixtureE17InstantiationInfoESt6vectorIS6_SaIS6_EEEppEv
FN:1052,_ZN9__gnu_cxx17__normal_iteratorIPSt10shared_ptrIN7testing8internal26ParameterizedTestSuiteInfoI14MinimumFixtureE8TestInfoEESt6vectorIS8_SaIS8_EEEppEv
FNDA:3,_ZN9__gnu_cxx17__normal_iteratorIPSt10shared_ptrIN7testing8internal26ParameterizedTestSuiteInfoI14MinimumFixtureE8TestInfoEESt6vectorIS8_SaIS8_EEEppEv
FN:1105,_ZNK9__gnu_cxx17__normal_iteratorIPSt10shared_ptrIN7testing8internal26ParameterizedTestSuiteInfoI21LXRotateInsertFixtureE8TestInfoEESt6vectorIS8_SaIS8_EEE4baseEv
FNDA:24,_ZNK9__gnu_cxx17__normal_iteratorIPSt10shared_ptrIN7testing8internal26ParameterizedTestSuiteInfoI21LXRotateInsertFixtureE8TestInfoEESt6vectorIS8_SaIS8_EEE4baseEv
FN:1105,_ZNK9__gnu_cxx17__normal_iteratorIPSt10shared_ptrIN7testing8internal26ParameterizedTestSuiteInfoI21RXRotateInsertFixtureE8TestInfoEESt6vectorIS8_SaIS8_EEE4baseEv
FNDA:24,_ZNK9__gnu_cxx17__normal_iteratorIPSt10shared_ptrIN7testing8internal26ParameterizedTestSuiteInfoI21RXRotateInsertFixtureE8TestInfoEESt6vectorIS8_SaIS8_EEE4baseEv
FN:1105,_ZNK9__gnu_cxx17__normal_iteratorIPKSt5tupleIJiiiEESt6vectorIS2_SaIS2_EEE4baseEv
FNDA:1422,_ZNK9__gnu_cxx17__normal_iteratorIPKSt5tupleIJiiiEESt6vectorIS2_SaIS2_EEE4baseEv
FN:1105,_ZNK9__gnu_cxx17__normal_iteratorIPSt10shared_ptrIN7testing8internal26ParameterizedTestSuiteInfoI14MinimumFixtureE8TestInfoEESt6vectorIS8_SaIS8_EEE4baseEv
FNDA:24,_ZNK9__gnu_cxx17__normal_iteratorIPSt10shared_ptrIN7testing8internal26ParameterizedTestSuiteInfoI14MinimumFixtureE8TestInfoEESt6vectorIS8_SaIS8_EEE4baseEv
FN:1105,_ZNK9__gnu_cxx17__normal_iteratorIPSt10shared_ptrIN7testing8internal26ParameterizedTestSuiteInfoI14MaximumFixtureE8TestInfoEESt6vectorIS8_SaIS8_EEE4baseEv
FNDA:24,_ZNK9__gnu_cxx17__normal_iteratorIPSt10shared_ptrIN7testing8internal26ParameterizedTestSuiteInfoI14MaximumFixtureE8TestInfoEESt6vectorIS8_SaIS8_EEE4baseEv
FN:1105,_ZNK9__gnu_cxx17__normal_iteratorIPSt10shared_ptrIN7testing8internal26ParameterizedTestSuiteInfoI11RankFixtureE8TestInfoEESt6vectorIS8_SaIS8_EEE4baseEv
FNDA:24,_ZNK9__gnu_cxx17__normal_iteratorIPSt10shared_ptrIN7testing8internal26ParameterizedTestSuiteInfoI11RankFixtureE8TestInfoEESt6vectorIS8_SaIS8_EEE4baseEv
FN:1105,_ZNK9__gnu_cxx17__normal_iteratorIPSt10shared_ptrIN7testing8internal26ParameterizedTestSuiteInfoI11FindFixtureE8TestInfoEESt6vectorIS8_SaIS8_EEE4baseEv
FNDA:24,_ZNK9__gnu_cxx17__normal_iteratorIPSt10shared_ptrIN7testing8internal26ParameterizedTestSuiteInfoI11FindFixtureE8TestInfoEESt6vectorIS8_SaIS8_EEE4baseEv
FN:1105,_ZNK9__gnu_cxx17__normal_iteratorIPN7testing8internal26ParameterizedTestSuiteInfoI11FindFixtureE17InstantiationInfoESt6vectorIS6_SaIS6_EEE4baseEv
FNDA:24,_ZNK9__gnu_cxx17__normal_iteratorIPN7testing8internal26ParameterizedTestSuiteInfoI11FindFixtureE17InstantiationInfoESt6vectorIS6_SaIS6_EEE4baseEv
FN:1105,_ZNK9__gnu_cxx17__normal_iteratorIPKSt5tupleIJiiEESt6vectorIS2_SaIS2_EEE4baseEv
FNDA:558,_ZNK9__gnu_cxx17__normal_iteratorIPKSt5tupleIJiiEESt6vectorIS2_SaIS2_EEE4baseEv
FN:1105,_ZNK9__gnu_cxx17__normal_iteratorIPN7testing8internal26ParameterizedTestSuiteInfoI14MaximumFixtureE17InstantiationInfoESt6vectorIS6_SaIS6_EEE4baseEv
FNDA:24,_ZNK9__gnu_cxx17__normal_iteratorIPN7testing8internal26ParameterizedTestSuiteInfoI14MaximumFixtureE17InstantiationInfoESt6vectorIS6_SaIS6_EEE4baseEv
FN:1105,_ZNK9__gnu_cxx17__normal_iteratorIPN7testing8internal26ParameterizedTestSuiteInfoI14MinimumFixtureE17InstantiationInfoESt6vectorIS6_SaIS6_EEE4baseEv
FNDA:24,_ZNK9__gnu_cxx17__normal_iteratorIPN7testing8internal26ParameterizedTestSuiteInfoI14MinimumFixtureE17InstantiationInfoESt6vectorIS6_SaIS6_EEE4baseEv
FN:1105,_ZNK9__gnu_cxx17__normal_iteratorIPN7testing8internal26ParameterizedTestSuiteInfoI21RXRotateInsertFixtureE17InstantiationInfoESt6vectorIS6_SaIS6_EEE4baseEv
FNDA:24,_ZNK9__gnu_cxx17__normal_iteratorIPN7testing8internal26ParameterizedTestSuiteInfoI21RXRotateInsertFixtureE17InstantiationInfoESt6vectorIS6_SaIS6_EEE4baseEv
FN:1105,_ZNK9__gnu_cxx17__normal_iteratorIPN7testing8internal26ParameterizedTestSuiteInfoI21LXRotateInsertFixtureE17InstantiationInfoESt6vectorIS6_SaIS6_EEE4baseEv
FNDA:24,_ZNK9__gnu_cxx17__normal_iteratorIPN7testing8internal26ParameterizedTestSuiteInfoI21LXRotateInsertFixtureE17InstantiationInfoESt6vectorIS6_SaIS6_EEE4baseEv
FN:1105,_ZNK9__gnu_cxx17__normal_iteratorIPPN7testing8internal30ParameterizedTestSuiteInfoBaseESt6vectorIS4_SaIS4_EEE4baseEv
FNDA:300,_ZNK9__gnu_cxx17__normal_iteratorIPPN7testing8internal30ParameterizedTestSuiteInfoBaseESt6vectorIS4_SaIS4_EEE4baseEv
FN:1105,_ZNK9__gnu_cxx17__normal_iteratorIPKSt10shared_ptrIN7testing8internal26ParameterizedTestSuiteInfoI21LXRotateInsertFixtureE8TestInfoEESt6vectorIS8_SaIS8_EEE4baseEv
FNDA:0,_ZNK9__gnu_cxx17__normal_iteratorIPKSt10shared_ptrIN7testing8internal26ParameterizedTestSuiteInfoI21LXRotateInsertFixtureE8TestInfoEESt6vectorIS8_SaIS8_EEE4baseEv
FN:1105,_ZNK9__gnu_cxx17__normal_iteratorIPKSt10shared_ptrIN7testing8internal26ParameterizedTestSuiteInfoI21RXRotateInsertFixtureE8TestInfoEESt6vectorIS8_SaIS8_EEE4baseEv
FNDA:0,_ZNK9__gnu_cxx17__normal_iteratorIPKSt10shared_ptrIN7testing8internal26ParameterizedTestSuiteInfoI21RXRotateInsertFixtureE8TestInfoEESt6vectorIS8_SaIS8_EEE4baseEv
FN:1105,_ZNK9__gnu_cxx17__normal_iteratorIPKSt10shared_ptrIN7testing8internal26ParameterizedTestSuiteInfoI14MinimumFixtureE8TestInfoEESt6vectorIS8_SaIS8_EEE4baseEv
FNDA:0,_ZNK9__gnu_cxx17__normal_iteratorIPKSt10shared_ptrIN7testing8internal26ParameterizedTestSuiteInfoI14MinimumFixtureE8TestInfoEESt6vectorIS8_SaIS8_EEE4baseEv
FN:1105,_ZNK9__gnu_cxx17__normal_iteratorIPKSt10shared_ptrIN7testing8internal26ParameterizedTestSuiteInfoI14MaximumFixtureE8TestInfoEESt6vectorIS8_SaIS8_EEE4baseEv
FNDA:0,_ZNK9__gnu_cxx17__normal_iteratorIPKSt10shared_ptrIN7testing8internal26ParameterizedTestSuiteInfoI14MaximumFixtureE8TestInfoEESt6vectorIS8_SaIS8_EEE4baseEv
FN:1105,_ZNK9__gnu_cxx17__normal_iteratorIPN7testing8internal26ParameterizedTestSuiteInfoI11RankFixtureE17InstantiationInfoESt6vectorIS6_SaIS6_EEE4baseEv
FNDA:24,_ZNK9__gnu_cxx17__normal_iteratorIPN7testing8internal26ParameterizedTestSuiteInfoI11RankFixtureE17InstantiationInfoESt6vectorIS6_SaIS6_EEE4baseEv
FN:1105,_ZNK9__gnu_cxx17__normal_iteratorIPKSt10shared_ptrIN7testing8internal26ParameterizedTestSuiteInfoI11RankFixtureE8TestInfoEESt6vectorIS8_SaIS8_EEE4baseEv
FNDA:0,_ZNK9__gnu_cxx17__normal_iteratorIPKSt10shared_ptrIN7testing8internal26ParameterizedTestSuiteInfoI11RankFixtureE8TestInfoEESt6vectorIS8_SaIS8_EEE4baseEv
FN:1105,_ZNK9__gnu_cxx17__normal_iteratorIPKSt10shared_ptrIN7testing8internal26ParameterizedTestSuiteInfoI11FindFixtureE8TestInfoEESt6vectorIS8_SaIS8_EEE4baseEv
FNDA:0,_ZNK9__gnu_cxx17__normal_iteratorIPKSt10shared_ptrIN7testing8internal26ParameterizedTestSuiteInfoI11FindFixtureE8TestInfoEESt6vectorIS8_SaIS8_EEE4baseEv
FN:1163,_ZN9__gnu_cxxeqIPKSt10shared_ptrIN7testing8internal26ParameterizedTestSuiteInfoI21RXRotateInsertFixtureE8TestInfoEESt6vectorIS8_SaIS8_EEEEbRKNS_17__normal_iteratorIT_T0_EESJ_
FNDA:0,_ZN9__gnu_cxxeqIPKSt10shared_ptrIN7testing8internal26ParameterizedTestSuiteInfoI21RXRotateInsertFixtureE8TestInfoEESt6vectorIS8_SaIS8_EEEEbRKNS_17__normal_iteratorIT_T0_EESJ_
FN:1163,_ZN9__gnu_cxxeqIPKSt5tupleIJiiEESt6vectorIS2_SaIS2_EEEEbRKNS_17__normal_iteratorIT_T0_EESD_
FNDA:135,_ZN9__gnu_cxxeqIPKSt5tupleIJiiEESt6vectorIS2_SaIS2_EEEEbRKNS_17__normal_iteratorIT_T0_EESD_
FN:1163,_ZN9__gnu_cxxeqIPKSt10shared_ptrIN7testing8internal26ParameterizedTestSuiteInfoI21LXRotateInsertFixtureE8TestInfoEESt6vectorIS8_SaIS8_EEEEbRKNS_17__normal_iteratorIT_T0_EESJ_
FNDA:0,_ZN9__gnu_cxxeqIPKSt10shared_ptrIN7testing8internal26ParameterizedTestSuiteInfoI21LXRotateInsertFixtureE8TestInfoEESt6vectorIS8_SaIS8_EEEEbRKNS_17__normal_iteratorIT_T0_EESJ_
FN:1163,_ZN9__gnu_cxxeqIPKSt10shared_ptrIN7testing8internal26ParameterizedTestSuiteInfoI14MinimumFixtureE8TestInfoEESt6vectorIS8_SaIS8_EEEEbRKNS_17__normal_iteratorIT_T0_EESJ_
FNDA:0,_ZN9__gnu_cxxeqIPKSt10shared_ptrIN7testing8internal26ParameterizedTestSuiteInfoI14MinimumFixtureE8TestInfoEESt6vectorIS8_SaIS8_EEEEbRKNS_17__normal_iteratorIT_T0_EESJ_
FN:1163,_ZN9__gnu_cxxeqIPKSt10shared_ptrIN7testing8internal26ParameterizedTestSuiteInfoI14MaximumFixtureE8TestInfoEESt6vectorIS8_SaIS8_EEEEbRKNS_17__normal_iteratorIT_T0_EESJ_
FNDA:0,_ZN9__gnu_cxxeqIPKSt10shared_ptrIN7testing8internal26ParameterizedTestSuiteInfoI14MaximumFixtureE8TestInfoEESt6vectorIS8_SaIS8_EEEEbRKNS_17__normal_iteratorIT_T0_EESJ_
FN:1163,_ZN9__gnu_cxxeqIPKSt10shared_ptrIN7testing8internal26ParameterizedTestSuiteInfoI11RankFixtureE8TestInfoEESt6vectorIS8_SaIS8_EEEEbRKNS_17__normal_iteratorIT_T0_EESJ_
FNDA:0,_ZN9__gnu_cxxeqIPKSt10shared_ptrIN7testing8internal26ParameterizedTestSuiteInfoI11RankFixtureE8TestInfoEESt6vectorIS8_SaIS8_EEEEbRKNS_17__normal_iteratorIT_T0_EESJ_
FN:1163,_ZN9__gnu_cxxeqIPKSt10shared_ptrIN7testing8internal26ParameterizedTestSuiteInfoI11FindFixtureE8TestInfoEESt6vectorIS8_SaIS8_EEEEbRKNS_17__normal_iteratorIT_T0_EESJ_
FNDA:0,_ZN9__gnu_cxxeqIPKSt10shared_ptrIN7testing8internal26ParameterizedTestSuiteInfoI11FindFixtureE8TestInfoEESt6vectorIS8_SaIS8_EEEEbRKNS_17__normal_iteratorIT_T0_EESJ_
FN:1163,_ZN9__gnu_cxxeqIPKSt5tupleIJiiiEESt6vectorIS2_SaIS2_EEEEbRKNS_17__normal_iteratorIT_T0_EESD_
FNDA:351,_ZN9__gnu_cxxeqIPKSt5tupleIJiiiEESt6vectorIS2_SaIS2_EEEEbRKNS_17__normal_iteratorIT_T0_EESD_
FN:1179,_ZN9__gnu_cxxneIPKSt5tupleIJiiEESt6vectorIS2_SaIS2_EEEEbRKNS_17__normal_iteratorIT_T0_EESD_
FNDA:135,_ZN9__gnu_cxxneIPKSt5tupleIJiiEESt6vectorIS2_SaIS2_EEEEbRKNS_17__normal_iteratorIT_T0_EESD_
FN:1179,_ZN9__gnu_cxxneIPPN7testing8internal30ParameterizedTestSuiteInfoBaseESt6vectorIS4_SaIS4_EEEEbRKNS_17__normal_iteratorIT_T0_EESE_
FNDA:126,_ZN9__gnu_cxxneIPPN7testing8internal30ParameterizedTestSuiteInfoBaseESt6vectorIS4_SaIS4_EEEEbRKNS_17__normal_iteratorIT_T0_EESE_
FN:1179,_ZN9__gnu_cxxneIPN7testing8internal26ParameterizedTestSuiteInfoI21LXRotateInsertFixtureE17InstantiationInfoESt6vectorIS6_SaIS6_EEEEbRKNS_17__normal_iteratorIT_T0_EESG_
FNDA:6,_ZN9__gnu_cxxneIPN7testing8internal26ParameterizedTestSuiteInfoI21LXRotateInsertFixtureE17InstantiationInfoESt6vectorIS6_SaIS6_EEEEbRKNS_17__normal_iteratorIT_T0_EESG_
FN:1179,_ZN9__gnu_cxxneIPSt10shared_ptrIN7testing8internal26ParameterizedTestSuiteInfoI11FindFixtureE8TestInfoEESt6vectorIS8_SaIS8_EEEEbRKNS_17__normal_iteratorIT_T0_EESI_
FNDA:6,_ZN9__gnu_cxxneIPSt10shared_ptrIN7testing8internal26ParameterizedTestSuiteInfoI11FindFixtureE8TestInfoEESt6vectorIS8_SaIS8_EEEEbRKNS_17__normal_iteratorIT_T0_EESI_
FN:1179,_ZN9__gnu_cxxneIPN7testing8internal26ParameterizedTestSuiteInfoI11FindFixtureE17InstantiationInfoESt6vectorIS6_SaIS6_EEEEbRKNS_17__normal_iteratorIT_T0_EESG_
FNDA:6,_ZN9__gnu_cxxneIPN7testing8internal26ParameterizedTestSuiteInfoI11FindFixtureE17InstantiationInfoESt6vectorIS6_SaIS6_EEEEbRKNS_17__normal_iteratorIT_T0_EESG_
FN:1179,_ZN9__gnu_cxxneIPSt10shared_ptrIN7testing8internal26ParameterizedTestSuiteInfoI11RankFixtureE8TestInfoEESt6vectorIS8_SaIS8_EEEEbRKNS_17__normal_iteratorIT_T0_EESI_
FNDA:6,_ZN9__gnu_cxxneIPSt10shared_ptrIN7testing8internal26ParameterizedTestSuiteInfoI11RankFixtureE8TestInfoEESt6vectorIS8_SaIS8_EEEEbRKNS_17__normal_iteratorIT_T0_EESI_
FN:1179,_ZN9__gnu_cxxneIPN7testing8internal26ParameterizedTestSuiteInfoI11RankFixtureE17InstantiationInfoESt6vectorIS6_SaIS6_EEEEbRKNS_17__normal_iteratorIT_T0_EESG_
FNDA:6,_ZN9__gnu_cxxneIPN7testing8internal26ParameterizedTestSuiteInfoI11RankFixtureE17InstantiationInfoESt6vectorIS6_SaIS6_EEEEbRKNS_17__normal_iteratorIT_T0_EESG_
FN:1179,_ZN9__gnu_cxxneIPKSt5tupleIJiiiEESt6vectorIS2_SaIS2_EEEEbRKNS_17__normal_iteratorIT_T0_EESD_
FNDA:351,_ZN9__gnu_cxxneIPKSt5tupleIJiiiEESt6vectorIS2_SaIS2_EEEEbRKNS_17__normal_iteratorIT_T0_EESD_
FN:1179,_ZN9__gnu_cxxneIPSt10shared_ptrIN7testing8internal26ParameterizedTestSuiteInfoI14MaximumFixtureE8TestInfoEESt6vectorIS8_SaIS8_EEEEbRKNS_17__normal_iteratorIT_T0_EESI_
FNDA:6,_ZN9__gnu_cxxneIPSt10shared_ptrIN7testing8internal26ParameterizedTestSuiteInfoI14MaximumFixtureE8TestInfoEESt6vectorIS8_SaIS8_EEEEbRKNS_17__normal_iteratorIT_T0_EESI_
FN:1179,_ZN9__gnu_cxxneIPN7testing8internal26ParameterizedTestSuiteInfoI14MaximumFixtureE17InstantiationInfoESt6vectorIS6_SaIS6_EEEEbRKNS_17__normal_iteratorIT_T0_EESG_
FNDA:6,_ZN9__gnu_cxxneIPN7testing8internal26ParameterizedTestSuiteInfoI14MaximumFixtureE17InstantiationInfoESt6vectorIS6_SaIS6_EEEEbRKNS_17__normal_iteratorIT_T0_EESG_
FN:1179,_ZN9__gnu_cxxneIPSt10shared_ptrIN7testing8internal26ParameterizedTestSuiteInfoI14MinimumFixtureE8TestInfoEESt6vectorIS8_SaIS8_EEEEbRKNS_17__normal_iteratorIT_T0_EESI_
FNDA:6,_ZN9__gnu_cxxneIPSt10shared_ptrIN7testing8internal26ParameterizedTestSuiteInfoI14MinimumFixtureE8TestInfoEESt6vectorIS8_SaIS8_EEEEbRKNS_17__normal_iteratorIT_T0_EESI_
FN:1179,_ZN9__gnu_cxxneIPN7testing8internal26ParameterizedTestSuiteInfoI14MinimumFixtureE17InstantiationInfoESt6vectorIS6_SaIS6_EEEEbRKNS_17__normal_iteratorIT_T0_EESG_
FNDA:6,_ZN9__gnu_cxxneIPN7testing8internal26ParameterizedTestSuiteInfoI14MinimumFixtureE17InstantiationInfoESt6vectorIS6_SaIS6_EEEEbRKNS_17__normal_iteratorIT_T0_EESG_
FN:1179,_ZN9__gnu_cxxneIPSt10shared_ptrIN7testing8internal26ParameterizedTestSuiteInfoI21RXRotateInsertFixtureE8TestInfoEESt6vectorIS8_SaIS8_EEEEbRKNS_17__normal_iteratorIT_T0_EESI_
FNDA:6,_ZN9__gnu_cxxneIPSt10shared_ptrIN7testing8internal26ParameterizedTestSuiteInfoI21RXRotateInsertFixtureE8TestInfoEESt6vectorIS8_SaIS8_EEEEbRKNS_17__normal_iteratorIT_T0_EESI_
FN:1179,_ZN9__gnu_cxxneIPN7testing8internal26ParameterizedTestSuiteInfoI21RXRotateInsertFixtureE17InstantiationInfoESt6vectorIS6_SaIS6_EEEEbRKNS_17__normal_iteratorIT_T0_EESG_
FNDA:6,_ZN9__gnu_cxxneIPN7testing8internal26ParameterizedTestSuiteInfoI21RXRotateInsertFixtureE17InstantiationInfoESt6vectorIS6_SaIS6_EEEEbRKNS_17__normal_iteratorIT_T0_EESG_
FN:1179,_ZN9__gnu_cxxneIPSt10shared_ptrIN7testing8internal26ParameterizedTestSuiteInfoI21LXRotateInsertFixtureE8TestInfoEESt6vectorIS8_SaIS8_EEEEbRKNS_17__normal_iteratorIT_T0_EESI_
FNDA:6,_ZN9__gnu_cxxneIPSt10shared_ptrIN7testing8internal26ParameterizedTestSuiteInfoI21LXRotateInsertFixtureE8TestInfoEESt6vectorIS8_SaIS8_EEEEbRKNS_17__normal_iteratorIT_T0_EESI_
FN:1268,_ZN9__gnu_cxxmiIPKSt5tupleIJiiiEESt6vectorIS2_SaIS2_EEEENS_17__normal_iteratorIT_T0_E15difference_typeERKSB_SE_
FNDA:9,_ZN9__gnu_cxxmiIPKSt5tupleIJiiiEESt6vectorIS2_SaIS2_EEEENS_17__normal_iteratorIT_T0_E15difference_typeERKSB_SE_
FN:1268,_ZN9__gnu_cxxmiIPSt10shared_ptrIN7testing8internal26ParameterizedTestSuiteInfoI11FindFixtureE8TestInfoEESt6vectorIS8_SaIS8_EEEENS_17__normal_iteratorIT_T0_E15difference_typeERKSG_SJ_
FNDA:3,_ZN9__gnu_cxxmiIPSt10shared_ptrIN7testing8internal26ParameterizedTestSuiteInfoI11FindFixtureE8TestInfoEESt6vectorIS8_SaIS8_EEEENS_17__normal_iteratorIT_T0_E15difference_typeERKSG_SJ_
FN:1268,_ZN9__gnu_cxxmiIPKSt5tupleIJiiEESt6vectorIS2_SaIS2_EEEENS_17__normal_iteratorIT_T0_E15difference_typeERKSB_SE_
FNDA:9,_ZN9__gnu_cxxmiIPKSt5tupleIJiiEESt6vectorIS2_SaIS2_EEEENS_17__normal_iteratorIT_T0_E15difference_typeERKSB_SE_
FN:1268,_ZN9__gnu_cxxmiIPSt10shared_ptrIN7testing8internal26ParameterizedTestSuiteInfoI11RankFixtureE8TestInfoEESt6vectorIS8_SaIS8_EEEENS_17__normal_iteratorIT_T0_E15difference_typeERKSG_SJ_
FNDA:3,_ZN9__gnu_cxxmiIPSt10shared_ptrIN7testing8internal26ParameterizedTestSuiteInfoI11RankFixtureE8TestInfoEESt6vectorIS8_SaIS8_EEEENS_17__normal_iteratorIT_T0_E15difference_typeERKSG_SJ_
FN:1268,_ZN9__gnu_cxxmiIPSt10shared_ptrIN7testing8internal26ParameterizedTestSuiteInfoI14MaximumFixtureE8TestInfoEESt6vectorIS8_SaIS8_EEEENS_17__normal_iteratorIT_T0_E15difference_typeERKSG_SJ_
FNDA:3,_ZN9__gnu_cxxmiIPSt10shared_ptrIN7testing8internal26ParameterizedTestSuiteInfoI14MaximumFixtureE8TestInfoEESt6vectorIS8_SaIS8_EEEENS_17__normal_iteratorIT_T0_E15difference_typeERKSG_SJ_
FN:1268,_ZN9__gnu_cxxmiIPSt10shared_ptrIN7testing8internal26ParameterizedTestSuiteInfoI14MinimumFixtureE8TestInfoEESt6vectorIS8_SaIS8_EEEENS_17__normal_iteratorIT_T0_E15difference_typeERKSG_SJ_
FNDA:3,_ZN9__gnu_cxxmiIPSt10shared_ptrIN7testing8internal26ParameterizedTestSuiteInfoI14MinimumFixtureE8TestInfoEESt6vectorIS8_SaIS8_EEEENS_17__normal_iteratorIT_T0_E15difference_typeERKSG_SJ_
FN:1268,_ZN9__gnu_cxxmiIPSt10shared_ptrIN7testing8internal26ParameterizedTestSuiteInfoI21RXRotateInsertFixtureE8TestInfoEESt6vectorIS8_SaIS8_EEEENS_17__normal_iteratorIT_T0_E15difference_typeERKSG_SJ_
FNDA:3,_ZN9__gnu_cxxmiIPSt10shared_ptrIN7testing8internal26ParameterizedTestSuiteInfoI21RXRotateInsertFixtureE8TestInfoEESt6vectorIS8_SaIS8_EEEENS_17__normal_iteratorIT_T0_E15difference_typeERKSG_SJ_
FN:1268,_ZN9__gnu_cxxmiIPN7testing8internal26ParameterizedTestSuiteInfoI11FindFixtureE17InstantiationInfoESt6vectorIS6_SaIS6_EEEENS_17__normal_iteratorIT_T0_E15difference_typeERKSE_SH_
FNDA:3,_ZN9__gnu_cxxmiIPN7testing8internal26ParameterizedTestSuiteInfoI11FindFixtureE17InstantiationInfoESt6vectorIS6_SaIS6_EEEENS_17__normal_iteratorIT_T0_E15difference_typeERKSE_SH_
FN:1268,_ZN9__gnu_cxxmiIPN7testing8internal26ParameterizedTestSuiteInfoI11RankFixtureE17InstantiationInfoESt6vectorIS6_SaIS6_EEEENS_17__normal_iteratorIT_T0_E15difference_typeERKSE_SH_
FNDA:3,_ZN9__gnu_cxxmiIPN7testing8internal26ParameterizedTestSuiteInfoI11RankFixtureE17InstantiationInfoESt6vectorIS6_SaIS6_EEEENS_17__normal_iteratorIT_T0_E15difference_typeERKSE_SH_
FN:1268,_ZN9__gnu_cxxmiIPN7testing8internal26ParameterizedTestSuiteInfoI14MaximumFixtureE17InstantiationInfoESt6vectorIS6_SaIS6_EEEENS_17__normal_iteratorIT_T0_E15difference_typeERKSE_SH_
FNDA:3,_ZN9__gnu_cxxmiIPN7testing8internal26ParameterizedTestSuiteInfoI14MaximumFixtureE17InstantiationInfoESt6vectorIS6_SaIS6_EEEENS_17__normal_iteratorIT_T0_E15difference_typeERKSE_SH_
FN:1268,_ZN9__gnu_cxxmiIPN7testing8internal26ParameterizedTestSuiteInfoI14MinimumFixtureE17InstantiationInfoESt6vectorIS6_SaIS6_EEEENS_17__normal_iteratorIT_T0_E15difference_typeERKSE_SH_
FNDA:3,_ZN9__gnu_cxxmiIPN7testing8internal26ParameterizedTestSuiteInfoI14MinimumFixtureE17InstantiationInfoESt6vectorIS6_SaIS6_EEEENS_17__normal_iteratorIT_T0_E15difference_typeERKSE_SH_
FN:1268,_ZN9__gnu_cxxmiIPN7testing8internal26ParameterizedTestSuiteInfoI21RXRotateInsertFixtureE17InstantiationInfoESt6vectorIS6_SaIS6_EEEENS_17__normal_iteratorIT_T0_E15difference_typeERKSE_SH_
FNDA:3,_ZN9__gnu_cxxmiIPN7testing8internal26ParameterizedTestSuiteInfoI21RXRotateInsertFixtureE17InstantiationInfoESt6vectorIS6_SaIS6_EEEENS_17__normal_iteratorIT_T0_E15difference_typeERKSE_SH_
FN:1268,_ZN9__gnu_cxxmiIPN7testing8internal26ParameterizedTestSuiteInfoI21LXRotateInsertFixtureE17InstantiationInfoESt6vectorIS6_SaIS6_EEEENS_17__normal_iteratorIT_T0_E15difference_typeERKSE_SH_
FNDA:3,_ZN9__gnu_cxxmiIPN7testing8internal26ParameterizedTestSuiteInfoI21LXRotateInsertFixtureE17InstantiationInfoESt6vectorIS6_SaIS6_EEEENS_17__normal_iteratorIT_T0_E15difference_typeERKSE_SH_
FN:1268,_ZN9__gnu_cxxmiIPSt10shared_ptrIN7testing8internal26ParameterizedTestSuiteInfoI21LXRotateInsertFixtureE8TestInfoEESt6vectorIS8_SaIS8_EEEENS_17__normal_iteratorIT_T0_E15difference_typeERKSG_SJ_
FNDA:3,_ZN9__gnu_cxxmiIPSt10shared_ptrIN7testing8internal26ParameterizedTestSuiteInfoI21LXRotateInsertFixtureE8TestInfoEESt6vectorIS8_SaIS8_EEEENS_17__normal_iteratorIT_T0_E15difference_typeERKSG_SJ_
FN:1268,_ZN9__gnu_cxxmiIPPN7testing8internal30ParameterizedTestSuiteInfoBaseESt6vectorIS4_SaIS4_EEEENS_17__normal_iteratorIT_T0_E15difference_typeERKSC_SF_
FNDA:12,_ZN9__gnu_cxxmiIPPN7testing8internal30ParameterizedTestSuiteInfoBaseESt6vectorIS4_SaIS4_EEEENS_17__normal_iteratorIT_T0_E15difference_typeERKSC_SF_
FN:1439,_ZNSt13move_iteratorIPPN7testing8internal30ParameterizedTestSuiteInfoBaseEEC2ES4_
FNDA:0,_ZNSt13move_iteratorIPPN7testing8internal30ParameterizedTestSuiteInfoBaseEEC2ES4_
FN:1439,_ZNSt13move_iteratorIPSt10shared_ptrIN7testing8internal26ParameterizedTestSuiteInfoI11FindFixtureE8TestInfoEEEC2ES8_
FNDA:0,_ZNSt13move_iteratorIPSt10shared_ptrIN7testing8internal26ParameterizedTestSuiteInfoI11FindFixtureE8TestInfoEEEC2ES8_
FN:1439,_ZNSt13move_iteratorIPSt10shared_ptrIN7testing8internal26ParameterizedTestSuiteInfoI11RankFixtureE8TestInfoEEEC2ES8_
FNDA:0,_ZNSt13move_iteratorIPSt10shared_ptrIN7testing8internal26ParameterizedTestSuiteInfoI11RankFixtureE8TestInfoEEEC2ES8_
FN:1439,_ZNSt13move_iteratorIPSt10shared_ptrIN7testing8internal26ParameterizedTestSuiteInfoI14MaximumFixtureE8TestInfoEEEC2ES8_
FNDA:0,_ZNSt13move_iteratorIPSt10shared_ptrIN7testing8internal26ParameterizedTestSuiteInfoI14MaximumFixtureE8TestInfoEEEC2ES8_
FN:1439,_ZNSt13move_iteratorIPSt10shared_ptrIN7testing8internal26ParameterizedTestSuiteInfoI14MinimumFixtureE8TestInfoEEEC2ES8_
FNDA:0,_ZNSt13move_iteratorIPSt10shared_ptrIN7testing8internal26ParameterizedTestSuiteInfoI14MinimumFixtureE8TestInfoEEEC2ES8_
FN:1439,_ZNSt13move_iteratorIPSt10shared_ptrIN7testing8internal26ParameterizedTestSuiteInfoI21RXRotateInsertFixtureE8TestInfoEEEC2ES8_
FNDA:0,_ZNSt13move_iteratorIPSt10shared_ptrIN7testing8internal26ParameterizedTestSuiteInfoI21RXRotateInsertFixtureE8TestInfoEEEC2ES8_
FN:1439,_ZNSt13move_iteratorIPSt10shared_ptrIN7testing8internal26ParameterizedTestSuiteInfoI21LXRotateInsertFixtureE8TestInfoEEEC2ES8_
FNDA:0,_ZNSt13move_iteratorIPSt10shared_ptrIN7testing8internal26ParameterizedTestSuiteInfoI21LXRotateInsertFixtureE8TestInfoEEEC2ES8_
FN:1439,_ZNSt13move_iteratorIPN7testing8internal26ParameterizedTestSuiteInfoI11FindFixtureE17InstantiationInfoEEC2ES6_
FNDA:0,_ZNSt13move_iteratorIPN7testing8internal26ParameterizedTestSuiteInfoI11FindFixtureE17InstantiationInfoEEC2ES6_
FN:1439,_ZNSt13move_iteratorIPN7testing8internal26ParameterizedTestSuiteInfoI11RankFixtureE17InstantiationInfoEEC2ES6_
FNDA:0,_ZNSt13move_iteratorIPN7testing8internal26ParameterizedTestSuiteInfoI11RankFixtureE17InstantiationInfoEEC2ES6_
FN:1439,_ZNSt13move_iteratorIPN7testing8internal26ParameterizedTestSuiteInfoI14MaximumFixtureE17InstantiationInfoEEC2ES6_
FNDA:0,_ZNSt13move_iteratorIPN7testing8internal26ParameterizedTestSuiteInfoI14MaximumFixtureE17InstantiationInfoEEC2ES6_
FN:1439,_ZNSt13move_iteratorIPN7testing8internal26ParameterizedTestSuiteInfoI14MinimumFixtureE17InstantiationInfoEEC2ES6_
FNDA:0,_ZNSt13move_iteratorIPN7testing8internal26ParameterizedTestSuiteInfoI14MinimumFixtureE17InstantiationInfoEEC2ES6_
FN:1439,_ZNSt13move_iteratorIPN7testing8internal26ParameterizedTestSuiteInfoI21RXRotateInsertFixtureE17InstantiationInfoEEC2ES6_
FNDA:0,_ZNSt13move_iteratorIPN7testing8internal26ParameterizedTestSuiteInfoI21RXRotateInsertFixtureE17InstantiationInfoEEC2ES6_
FN:1439,_ZNSt13move_iteratorIPN7testing8internal26ParameterizedTestSuiteInfoI21LXRotateInsertFixtureE17InstantiationInfoEEC2ES6_
FNDA:0,_ZNSt13move_iteratorIPN7testing8internal26ParameterizedTestSuiteInfoI21LXRotateInsertFixtureE17InstantiationInfoEEC2ES6_
FN:1464,_ZNKSt13move_iteratorIPN7testing8internal26ParameterizedTestSuiteInfoI21LXRotateInsertFixtureE17InstantiationInfoEE4baseEv
FNDA:0,_ZNKSt13move_iteratorIPN7testing8internal26ParameterizedTestSuiteInfoI21LXRotateInsertFixtureE17InstantiationInfoEE4baseEv
FN:1464,_ZNKSt13move_iteratorIPSt10shared_ptrIN7testing8internal26ParameterizedTestSuiteInfoI11FindFixtureE8TestInfoEEE4baseEv
FNDA:0,_ZNKSt13move_iteratorIPSt10shared_ptrIN7testing8internal26ParameterizedTestSuiteInfoI11FindFixtureE8TestInfoEEE4baseEv
FN:1464,_ZNKSt13move_iteratorIPSt10shared_ptrIN7testing8internal26ParameterizedTestSuiteInfoI11RankFixtureE8TestInfoEEE4baseEv
FNDA:0,_ZNKSt13move_iteratorIPSt10shared_ptrIN7testing8internal26ParameterizedTestSuiteInfoI11RankFixtureE8TestInfoEEE4baseEv
FN:1464,_ZNKSt13move_iteratorIPSt10shared_ptrIN7testing8internal26ParameterizedTestSuiteInfoI14MaximumFixtureE8TestInfoEEE4baseEv
FNDA:0,_ZNKSt13move_iteratorIPSt10shared_ptrIN7testing8internal26ParameterizedTestSuiteInfoI14MaximumFixtureE8TestInfoEEE4baseEv
FN:1464,_ZNKSt13move_iteratorIPSt10shared_ptrIN7testing8internal26ParameterizedTestSuiteInfoI14MinimumFixtureE8TestInfoEEE4baseEv
FNDA:0,_ZNKSt13move_iteratorIPSt10shared_ptrIN7testing8internal26ParameterizedTestSuiteInfoI14MinimumFixtureE8TestInfoEEE4baseEv
FN:1464,_ZNKSt13move_iteratorIPSt10shared_ptrIN7testing8internal26ParameterizedTestSuiteInfoI21RXRotateInsertFixtureE8TestInfoEEE4baseEv
FNDA:0,_ZNKSt13move_iteratorIPSt10shared_ptrIN7testing8internal26ParameterizedTestSuiteInfoI21RXRotateInsertFixtureE8TestInfoEEE4baseEv
FN:1464,_ZNKSt13move_iteratorIPSt10shared_ptrIN7testing8internal26ParameterizedTestSuiteInfoI21LXRotateInsertFixtureE8TestInfoEEE4baseEv
FNDA:0,_ZNKSt13move_iteratorIPSt10shared_ptrIN7testing8internal26ParameterizedTestSuiteInfoI21LXRotateInsertFixtureE8TestInfoEEE4baseEv
FN:1464,_ZNKSt13move_iteratorIPN7testing8internal26ParameterizedTestSuiteInfoI11FindFixtureE17InstantiationInfoEE4baseEv
FNDA:0,_ZNKSt13move_iteratorIPN7testing8internal26ParameterizedTestSuiteInfoI11FindFixtureE17InstantiationInfoEE4baseEv
FN:1464,_ZNKSt13move_iteratorIPN7testing8internal26ParameterizedTestSuiteInfoI11RankFixtureE17InstantiationInfoEE4baseEv
FNDA:0,_ZNKSt13move_iteratorIPN7testing8internal26ParameterizedTestSuiteInfoI11RankFixtureE17InstantiationInfoEE4baseEv
FN:1464,_ZNKSt13move_iteratorIPN7testing8internal26ParameterizedTestSuiteInfoI14MaximumFixtureE17InstantiationInfoEE4baseEv
FNDA:0,_ZNKSt13move_iteratorIPN7testing8internal26ParameterizedTestSuiteInfoI14MaximumFixtureE17InstantiationInfoEE4baseEv
FN:1464,_ZNKSt13move_iteratorIPN7testing8internal26ParameterizedTestSuiteInfoI14MinimumFixtureE17InstantiationInfoEE4baseEv
FNDA:0,_ZNKSt13move_iteratorIPN7testing8internal26ParameterizedTestSuiteInfoI14MinimumFixtureE17InstantiationInfoEE4baseEv
FN:1464,_ZNKSt13move_iteratorIPPN7testing8internal30ParameterizedTestSuiteInfoBaseEE4baseEv
FNDA:0,_ZNKSt13move_iteratorIPPN7testing8internal30ParameterizedTestSuiteInfoBaseEE4baseEv
FN:1464,_ZNKSt13move_iteratorIPN7testing8internal26ParameterizedTestSuiteInfoI21RXRotateInsertFixtureE17InstantiationInfoEE4baseEv
FNDA:0,_ZNKSt13move_iteratorIPN7testing8internal26ParameterizedTestSuiteInfoI21RXRotateInsertFixtureE17InstantiationInfoEE4baseEv
FN:1477,_ZNKSt13move_iteratorIPSt10shared_ptrIN7testing8internal26ParameterizedTestSuiteInfoI21RXRotateInsertFixtureE8TestInfoEEEdeEv
FNDA:0,_ZNKSt13move_iteratorIPSt10shared_ptrIN7testing8internal26ParameterizedTestSuiteInfoI21RXRotateInsertFixtureE8TestInfoEEEdeEv
FN:1477,_ZNKSt13move_iteratorIPSt10shared_ptrIN7testing8internal26ParameterizedTestSuiteInfoI21LXRotateInsertFixtureE8TestInfoEEEdeEv
FNDA:0,_ZNKSt13move_iteratorIPSt10shared_ptrIN7testing8internal26ParameterizedTestSuiteInfoI21LXRotateInsertFixtureE8TestInfoEEEdeEv
FN:1477,_ZNKSt13move_iteratorIPSt10shared_ptrIN7testing8internal26ParameterizedTestSuiteInfoI14MinimumFixtureE8TestInfoEEEdeEv
FNDA:0,_ZNKSt13move_iteratorIPSt10shared_ptrIN7testing8internal26ParameterizedTestSuiteInfoI14MinimumFixtureE8TestInfoEEEdeEv
FN:1477,_ZNKSt13move_iteratorIPN7testing8internal26ParameterizedTestSuiteInfoI21LXRotateInsertFixtureE17InstantiationInfoEEdeEv
FNDA:0,_ZNKSt13move_iteratorIPN7testing8internal26ParameterizedTestSuiteInfoI21LXRotateInsertFixtureE17InstantiationInfoEEdeEv
FN:1477,_ZNKSt13move_iteratorIPSt10shared_ptrIN7testing8internal26ParameterizedTestSuiteInfoI14MaximumFixtureE8TestInfoEEEdeEv
FNDA:0,_ZNKSt13move_iteratorIPSt10shared_ptrIN7testing8internal26ParameterizedTestSuiteInfoI14MaximumFixtureE8TestInfoEEEdeEv
FN:1477,_ZNKSt13move_iteratorIPSt10shared_ptrIN7testing8internal26ParameterizedTestSuiteInfoI11RankFixtureE8TestInfoEEEdeEv
FNDA:0,_ZNKSt13move_iteratorIPSt10shared_ptrIN7testing8internal26ParameterizedTestSuiteInfoI11RankFixtureE8TestInfoEEEdeEv
FN:1477,_ZNKSt13move_iteratorIPSt10shared_ptrIN7testing8internal26ParameterizedTestSuiteInfoI11FindFixtureE8TestInfoEEEdeEv
FNDA:0,_ZNKSt13move_iteratorIPSt10shared_ptrIN7testing8internal26ParameterizedTestSuiteInfoI11FindFixtureE8TestInfoEEEdeEv
FN:1477,_ZNKSt13move_iteratorIPN7testing8internal26ParameterizedTestSuiteInfoI11FindFixtureE17InstantiationInfoEEdeEv
FNDA:0,_ZNKSt13move_iteratorIPN7testing8internal26ParameterizedTestSuiteInfoI11FindFixtureE17InstantiationInfoEEdeEv
FN:1477,_ZNKSt13move_iteratorIPN7testing8internal26ParameterizedTestSuiteInfoI21RXRotateInsertFixtureE17InstantiationInfoEEdeEv
FNDA:0,_ZNKSt13move_iteratorIPN7testing8internal26ParameterizedTestSuiteInfoI21RXRotateInsertFixtureE17InstantiationInfoEEdeEv
FN:1477,_ZNKSt13move_iteratorIPN7testing8internal26ParameterizedTestSuiteInfoI11RankFixtureE17InstantiationInfoEEdeEv
FNDA:0,_ZNKSt13move_iteratorIPN7testing8internal26ParameterizedTestSuiteInfoI11RankFixtureE17InstantiationInfoEEdeEv
FN:1477,_ZNKSt13move_iteratorIPN7testing8internal26ParameterizedTestSuiteInfoI14MinimumFixtureE17InstantiationInfoEEdeEv
FNDA:0,_ZNKSt13move_iteratorIPN7testing8internal26ParameterizedTestSuiteInfoI14MinimumFixtureE17InstantiationInfoEEdeEv
FN:1477,_ZNKSt13move_iteratorIPN7testing8internal26ParameterizedTestSuiteInfoI14MaximumFixtureE17InstantiationInfoEEdeEv
FNDA:0,_ZNKSt13move_iteratorIPN7testing8internal26ParameterizedTestSuiteInfoI14MaximumFixtureE17InstantiationInfoEEdeEv
FN:1489,_ZNSt13move_iteratorIPN7testing8internal26ParameterizedTestSuiteInfoI14MaximumFixtureE17InstantiationInfoEEppEv
FNDA:0,_ZNSt13move_iteratorIPN7testing8internal26ParameterizedTestSuiteInfoI14MaximumFixtureE17InstantiationInfoEEppEv
FN:1489,_ZNSt13move_iteratorIPN7testing8internal26ParameterizedTestSuiteInfoI21LXRotateInsertFixtureE17InstantiationInfoEEppEv
FNDA:0,_ZNSt13move_iteratorIPN7testing8internal26ParameterizedTestSuiteInfoI21LXRotateInsertFixtureE17InstantiationInfoEEppEv
FN:1489,_ZNSt13move_iteratorIPSt10shared_ptrIN7testing8internal26ParameterizedTestSuiteInfoI21RXRotateInsertFixtureE8TestInfoEEEppEv
FNDA:0,_ZNSt13move_iteratorIPSt10shared_ptrIN7testing8internal26ParameterizedTestSuiteInfoI21RXRotateInsertFixtureE8TestInfoEEEppEv
FN:1489,_ZNSt13move_iteratorIPN7testing8internal26ParameterizedTestSuiteInfoI21RXRotateInsertFixtureE17InstantiationInfoEEppEv
FNDA:0,_ZNSt13move_iteratorIPN7testing8internal26ParameterizedTestSuiteInfoI21RXRotateInsertFixtureE17InstantiationInfoEEppEv
FN:1489,_ZNSt13move_iteratorIPSt10shared_ptrIN7testing8internal26ParameterizedTestSuiteInfoI21LXRotateInsertFixtureE8TestInfoEEEppEv
FNDA:0,_ZNSt13move_iteratorIPSt10shared_ptrIN7testing8internal26ParameterizedTestSuiteInfoI21LXRotateInsertFixtureE8TestInfoEEEppEv
FN:1489,_ZNSt13move_iteratorIPN7testing8internal26ParameterizedTestSuiteInfoI14MinimumFixtureE17InstantiationInfoEEppEv
FNDA:0,_ZNSt13move_iteratorIPN7testing8internal26ParameterizedTestSuiteInfoI14MinimumFixtureE17InstantiationInfoEEppEv
FN:1489,_ZNSt13move_iteratorIPSt10shared_ptrIN7testing8internal26ParameterizedTestSuiteInfoI11FindFixtureE8TestInfoEEEppEv
FNDA:0,_ZNSt13move_iteratorIPSt10shared_ptrIN7testing8internal26ParameterizedTestSuiteInfoI11FindFixtureE8TestInfoEEEppEv
FN:1489,_ZNSt13move_iteratorIPSt10shared_ptrIN7testing8internal26ParameterizedTestSuiteInfoI14MinimumFixtureE8TestInfoEEEppEv
FNDA:0,_ZNSt13move_iteratorIPSt10shared_ptrIN7testing8internal26ParameterizedTestSuiteInfoI14MinimumFixtureE8TestInfoEEEppEv
FN:1489,_ZNSt13move_iteratorIPN7testing8internal26ParameterizedTestSuiteInfoI11RankFixtureE17InstantiationInfoEEppEv
FNDA:0,_ZNSt13move_iteratorIPN7testing8internal26ParameterizedTestSuiteInfoI11RankFixtureE17InstantiationInfoEEppEv
FN:1489,_ZNSt13move_iteratorIPN7testing8internal26ParameterizedTestSuiteInfoI11FindFixtureE17InstantiationInfoEEppEv
FNDA:0,_ZNSt13move_iteratorIPN7testing8internal26ParameterizedTestSuiteInfoI11FindFixtureE17InstantiationInfoEEppEv
FN:1489,_ZNSt13move_iteratorIPSt10shared_ptrIN7testing8internal26ParameterizedTestSuiteInfoI14MaximumFixtureE8TestInfoEEEppEv
FNDA:0,_ZNSt13move_iteratorIPSt10shared_ptrIN7testing8internal26ParameterizedTestSuiteInfoI14MaximumFixtureE8TestInfoEEEppEv
FN:1489,_ZNSt13move_iteratorIPSt10shared_ptrIN7testing8internal26ParameterizedTestSuiteInfoI11RankFixtureE8TestInfoEEEppEv
FNDA:0,_ZNSt13move_iteratorIPSt10shared_ptrIN7testing8internal26ParameterizedTestSuiteInfoI11RankFixtureE8TestInfoEEEppEv
FN:1648,_ZSteqIPN7testing8internal26ParameterizedTestSuiteInfoI14MaximumFixtureE17InstantiationInfoEEbRKSt13move_iteratorIT_ESB_
FNDA:0,_ZSteqIPN7testing8internal26ParameterizedTestSuiteInfoI14MaximumFixtureE17InstantiationInfoEEbRKSt13move_iteratorIT_ESB_
FN:1648,_ZSteqIPN7testing8internal26ParameterizedTestSuiteInfoI11RankFixtureE17InstantiationInfoEEbRKSt13move_iteratorIT_ESB_
FNDA:0,_ZSteqIPN7testing8internal26ParameterizedTestSuiteInfoI11RankFixtureE17InstantiationInfoEEbRKSt13move_iteratorIT_ESB_
FN:1648,_ZSteqIPN7testing8internal26ParameterizedTestSuiteInfoI14MinimumFixtureE17InstantiationInfoEEbRKSt13move_iteratorIT_ESB_
FNDA:0,_ZSteqIPN7testing8internal26ParameterizedTestSuiteInfoI14MinimumFixtureE17InstantiationInfoEEbRKSt13move_iteratorIT_ESB_
FN:1648,_ZSteqIPN7testing8internal26ParameterizedTestSuiteInfoI11FindFixtureE17InstantiationInfoEEbRKSt13move_iteratorIT_ESB_
FNDA:0,_ZSteqIPN7testing8internal26ParameterizedTestSuiteInfoI11FindFixtureE17InstantiationInfoEEbRKSt13move_iteratorIT_ESB_
FN:1648,_ZSteqIPN7testing8internal26ParameterizedTestSuiteInfoI21LXRotateInsertFixtureE17InstantiationInfoEEbRKSt13move_iteratorIT_ESB_
FNDA:0,_ZSteqIPN7testing8internal26ParameterizedTestSuiteInfoI21LXRotateInsertFixtureE17InstantiationInfoEEbRKSt13move_iteratorIT_ESB_
FN:1648,_ZSteqIPN7testing8internal26ParameterizedTestSuiteInfoI21RXRotateInsertFixtureE17InstantiationInfoEEbRKSt13move_iteratorIT_ESB_
FNDA:0,_ZSteqIPN7testing8internal26ParameterizedTestSuiteInfoI21RXRotateInsertFixtureE17InstantiationInfoEEbRKSt13move_iteratorIT_ESB_
FN:1648,_ZSteqIPSt10shared_ptrIN7testing8internal26ParameterizedTestSuiteInfoI11FindFixtureE8TestInfoEEEbRKSt13move_iteratorIT_ESD_
FNDA:0,_ZSteqIPSt10shared_ptrIN7testing8internal26ParameterizedTestSuiteInfoI11FindFixtureE8TestInfoEEEbRKSt13move_iteratorIT_ESD_
FN:1648,_ZSteqIPSt10shared_ptrIN7testing8internal26ParameterizedTestSuiteInfoI11RankFixtureE8TestInfoEEEbRKSt13move_iteratorIT_ESD_
FNDA:0,_ZSteqIPSt10shared_ptrIN7testing8internal26ParameterizedTestSuiteInfoI11RankFixtureE8TestInfoEEEbRKSt13move_iteratorIT_ESD_
FN:1648,_ZSteqIPSt10shared_ptrIN7testing8internal26ParameterizedTestSuiteInfoI14MaximumFixtureE8TestInfoEEEbRKSt13move_iteratorIT_ESD_
FNDA:0,_ZSteqIPSt10shared_ptrIN7testing8internal26ParameterizedTestSuiteInfoI14MaximumFixtureE8TestInfoEEEbRKSt13move_iteratorIT_ESD_
FN:1648,_ZSteqIPSt10shared_ptrIN7testing8internal26ParameterizedTestSuiteInfoI14MinimumFixtureE8TestInfoEEEbRKSt13move_iteratorIT_ESD_
FNDA:0,_ZSteqIPSt10shared_ptrIN7testing8internal26ParameterizedTestSuiteInfoI14MinimumFixtureE8TestInfoEEEbRKSt13move_iteratorIT_ESD_
FN:1648,_ZSteqIPSt10shared_ptrIN7testing8internal26ParameterizedTestSuiteInfoI21RXRotateInsertFixtureE8TestInfoEEEbRKSt13move_iteratorIT_ESD_
FNDA:0,_ZSteqIPSt10shared_ptrIN7testing8internal26ParameterizedTestSuiteInfoI21RXRotateInsertFixtureE8TestInfoEEEbRKSt13move_iteratorIT_ESD_
FN:1648,_ZSteqIPSt10shared_ptrIN7testing8internal26ParameterizedTestSuiteInfoI21LXRotateInsertFixtureE8TestInfoEEEbRKSt13move_iteratorIT_ESD_
FNDA:0,_ZSteqIPSt10shared_ptrIN7testing8internal26ParameterizedTestSuiteInfoI21LXRotateInsertFixtureE8TestInfoEEEbRKSt13move_iteratorIT_ESD_
FN:1661,_ZStneIPN7testing8internal26ParameterizedTestSuiteInfoI21RXRotateInsertFixtureE17InstantiationInfoEEbRKSt13move_iteratorIT_ESB_
FNDA:0,_ZStneIPN7testing8internal26ParameterizedTestSuiteInfoI21RXRotateInsertFixtureE17InstantiationInfoEEbRKSt13move_iteratorIT_ESB_
FN:1661,_ZStneIPSt10shared_ptrIN7testing8internal26ParameterizedTestSuiteInfoI21RXRotateInsertFixtureE8TestInfoEEEbRKSt13move_iteratorIT_ESD_
FNDA:0,_ZStneIPSt10shared_ptrIN7testing8internal26ParameterizedTestSuiteInfoI21RXRotateInsertFixtureE8TestInfoEEEbRKSt13move_iteratorIT_ESD_
FN:1661,_ZStneIPN7testing8internal26ParameterizedTestSuiteInfoI21LXRotateInsertFixtureE17InstantiationInfoEEbRKSt13move_iteratorIT_ESB_
FNDA:0,_ZStneIPN7testing8internal26ParameterizedTestSuiteInfoI21LXRotateInsertFixtureE17InstantiationInfoEEbRKSt13move_iteratorIT_ESB_
FN:1661,_ZStneIPN7testing8internal26ParameterizedTestSuiteInfoI14MinimumFixtureE17InstantiationInfoEEbRKSt13move_iteratorIT_ESB_
FNDA:0,_ZStneIPN7testing8internal26ParameterizedTestSuiteInfoI14MinimumFixtureE17InstantiationInfoEEbRKSt13move_iteratorIT_ESB_
FN:1661,_ZStneIPN7testing8internal26ParameterizedTestSuiteInfoI14MaximumFixtureE17InstantiationInfoEEbRKSt13move_iteratorIT_ESB_
FNDA:0,_ZStneIPN7testing8internal26ParameterizedTestSuiteInfoI14MaximumFixtureE17InstantiationInfoEEbRKSt13move_iteratorIT_ESB_
FN:1661,_ZStneIPN7testing8internal26ParameterizedTestSuiteInfoI11RankFixtureE17InstantiationInfoEEbRKSt13move_iteratorIT_ESB_
FNDA:0,_ZStneIPN7testing8internal26ParameterizedTestSuiteInfoI11RankFixtureE17InstantiationInfoEEbRKSt13move_iteratorIT_ESB_
FN:1661,_ZStneIPN7testing8internal26ParameterizedTestSuiteInfoI11FindFixtureE17InstantiationInfoEEbRKSt13move_iteratorIT_ESB_
FNDA:0,_ZStneIPN7testing8internal26ParameterizedTestSuiteInfoI11FindFixtureE17InstantiationInfoEEbRKSt13move_iteratorIT_ESB_
FN:1661,_ZStneIPSt10shared_ptrIN7testing8internal26ParameterizedTestSuiteInfoI11FindFixtureE8TestInfoEEEbRKSt13move_iteratorIT_ESD_
FNDA:0,_ZStneIPSt10shared_ptrIN7testing8internal26ParameterizedTestSuiteInfoI11FindFixtureE8TestInfoEEEbRKSt13move_iteratorIT_ESD_
FN:1661,_ZStneIPSt10shared_ptrIN7testing8internal26ParameterizedTestSuiteInfoI11RankFixtureE8TestInfoEEEbRKSt13move_iteratorIT_ESD_
FNDA:0,_ZStneIPSt10shared_ptrIN7testing8internal26ParameterizedTestSuiteInfoI11RankFixtureE8TestInfoEEEbRKSt13move_iteratorIT_ESD_
FN:1661,_ZStneIPSt10shared_ptrIN7testing8internal26ParameterizedTestSuiteInfoI14MaximumFixtureE8TestInfoEEEbRKSt13move_iteratorIT_ESD_
FNDA:0,_ZStneIPSt10shared_ptrIN7testing8internal26ParameterizedTestSuiteInfoI14MaximumFixtureE8TestInfoEEEbRKSt13move_iteratorIT_ESD_
FN:1661,_ZStneIPSt10shared_ptrIN7testing8internal26ParameterizedTestSuiteInfoI14MinimumFixtureE8TestInfoEEEbRKSt13move_iteratorIT_ESD_
FNDA:0,_ZStneIPSt10shared_ptrIN7testing8internal26ParameterizedTestSuiteInfoI14MinimumFixtureE8TestInfoEEEbRKSt13move_iteratorIT_ESD_
FN:1661,_ZStneIPSt10shared_ptrIN7testing8internal26ParameterizedTestSuiteInfoI21LXRotateInsertFixtureE8TestInfoEEEbRKSt13move_iteratorIT_ESD_
FNDA:0,_ZStneIPSt10shared_ptrIN7testing8internal26ParameterizedTestSuiteInfoI21LXRotateInsertFixtureE8TestInfoEEEbRKSt13move_iteratorIT_ESD_
FN:1723,_ZSt32__make_move_if_noexcept_iteratorIN7testing8internal26ParameterizedTestSuiteInfoI11FindFixtureE17InstantiationInfoESt13move_iteratorIPS5_EET0_PT_
FNDA:0,_ZSt32__make_move_if_noexcept_iteratorIN7testing8internal26ParameterizedTestSuiteInfoI11FindFixtureE17InstantiationInfoESt13move_iteratorIPS5_EET0_PT_
FN:1723,_ZSt32__make_move_if_noexcept_iteratorISt10shared_ptrIN7testing8internal26ParameterizedTestSuiteInfoI21LXRotateInsertFixtureE8TestInfoEESt13move_iteratorIPS7_EET0_PT_
FNDA:0,_ZSt32__make_move_if_noexcept_iteratorISt10shared_ptrIN7testing8internal26ParameterizedTestSuiteInfoI21LXRotateInsertFixtureE8TestInfoEESt13move_iteratorIPS7_EET0_PT_
FN:1723,_ZSt32__make_move_if_noexcept_iteratorISt10shared_ptrIN7testing8internal26ParameterizedTestSuiteInfoI21RXRotateInsertFixtureE8TestInfoEESt13move_iteratorIPS7_EET0_PT_
FNDA:0,_ZSt32__make_move_if_noexcept_iteratorISt10shared_ptrIN7testing8internal26ParameterizedTestSuiteInfoI21RXRotateInsertFixtureE8TestInfoEESt13move_iteratorIPS7_EET0_PT_
FN:1723,_ZSt32__make_move_if_noexcept_iteratorIN7testing8internal26ParameterizedTestSuiteInfoI11RankFixtureE17InstantiationInfoESt13move_iteratorIPS5_EET0_PT_
FNDA:0,_ZSt32__make_move_if_noexcept_iteratorIN7testing8internal26ParameterizedTestSuiteInfoI11RankFixtureE17InstantiationInfoESt13move_iteratorIPS5_EET0_PT_
FN:1723,_ZSt32__make_move_if_noexcept_iteratorISt10shared_ptrIN7testing8internal26ParameterizedTestSuiteInfoI14MinimumFixtureE8TestInfoEESt13move_iteratorIPS7_EET0_PT_
FNDA:0,_ZSt32__make_move_if_noexcept_iteratorISt10shared_ptrIN7testing8internal26ParameterizedTestSuiteInfoI14MinimumFixtureE8TestInfoEESt13move_iteratorIPS7_EET0_PT_
FN:1723,_ZSt32__make_move_if_noexcept_iteratorISt10shared_ptrIN7testing8internal26ParameterizedTestSuiteInfoI14MaximumFixtureE8TestInfoEESt13move_iteratorIPS7_EET0_PT_
FNDA:0,_ZSt32__make_move_if_noexcept_iteratorISt10shared_ptrIN7testing8internal26ParameterizedTestSuiteInfoI14MaximumFixtureE8TestInfoEESt13move_iteratorIPS7_EET0_PT_
FN:1723,_ZSt32__make_move_if_noexcept_iteratorIN7testing8internal26ParameterizedTestSuiteInfoI14MaximumFixtureE17InstantiationInfoESt13move_iteratorIPS5_EET0_PT_
FNDA:0,_ZSt32__make_move_if_noexcept_iteratorIN7testing8internal26ParameterizedTestSuiteInfoI14MaximumFixtureE17InstantiationInfoESt13move_iteratorIPS5_EET0_PT_
FN:1723,_ZSt32__make_move_if_noexcept_iteratorISt10shared_ptrIN7testing8internal26ParameterizedTestSuiteInfoI11RankFixtureE8TestInfoEESt13move_iteratorIPS7_EET0_PT_
FNDA:0,_ZSt32__make_move_if_noexcept_iteratorISt10shared_ptrIN7testing8internal26ParameterizedTestSuiteInfoI11RankFixtureE8TestInfoEESt13move_iteratorIPS7_EET0_PT_
FN:1723,_ZSt32__make_move_if_noexcept_iteratorISt10shared_ptrIN7testing8internal26ParameterizedTestSuiteInfoI11FindFixtureE8TestInfoEESt13move_iteratorIPS7_EET0_PT_
FNDA:0,_ZSt32__make_move_if_noexcept_iteratorISt10shared_ptrIN7testing8internal26ParameterizedTestSuiteInfoI11FindFixtureE8TestInfoEESt13move_iteratorIPS7_EET0_PT_
FN:1723,_ZSt32__make_move_if_noexcept_iteratorIN7testing8internal26ParameterizedTestSuiteInfoI14MinimumFixtureE17InstantiationInfoESt13move_iteratorIPS5_EET0_PT_
FNDA:0,_ZSt32__make_move_if_noexcept_iteratorIN7testing8internal26ParameterizedTestSuiteInfoI14MinimumFixtureE17InstantiationInfoESt13move_iteratorIPS5_EET0_PT_
FN:1723,_ZSt32__make_move_if_noexcept_iteratorIN7testing8internal26ParameterizedTestSuiteInfoI21RXRotateInsertFixtureE17InstantiationInfoESt13move_iteratorIPS5_EET0_PT_
FNDA:0,_ZSt32__make_move_if_noexcept_iteratorIN7testing8internal26ParameterizedTestSuiteInfoI21RXRotateInsertFixtureE17InstantiationInfoESt13move_iteratorIPS5_EET0_PT_
FN:1723,_ZSt32__make_move_if_noexcept_iteratorIN7testing8internal26ParameterizedTestSuiteInfoI21LXRotateInsertFixtureE17InstantiationInfoESt13move_iteratorIPS5_EET0_PT_
FNDA:0,_ZSt32__make_move_if_noexcept_iteratorIN7testing8internal26ParameterizedTestSuiteInfoI21LXRotateInsertFixtureE17InstantiationInfoESt13move_iteratorIPS5_EET0_PT_
FN:1723,_ZSt32__make_move_if_noexcept_iteratorIPN7testing8internal30ParameterizedTestSuiteInfoBaseESt13move_iteratorIPS3_EET0_PT_
FNDA:0,_ZSt32__make_move_if_noexcept_iteratorIPN7testing8internal30ParameterizedTestSuiteInfoBaseESt13move_iteratorIPS3_EET0_PT_
FN:2464,_ZSt12__miter_baseIPPN7testing8internal30ParameterizedTestSuiteInfoBaseEEDTcl12__miter_basecldtfp_4baseEEESt13move_iteratorIT_E
FNDA:0,_ZSt12__miter_baseIPPN7testing8internal30ParameterizedTestSuiteInfoBaseEEDTcl12__miter_basecldtfp_4baseEEESt13move_iteratorIT_E
DA:1027,15
DA:1028,15
DA:1027,96
DA:1028,96
DA:1027,162
DA:1028,162
DA:1027,378
DA:1028,378
DA:1027,15
DA:1028,15
DA:1027,15
DA:1028,15
DA:1027,15
DA:1028,15
DA:1027,15
DA:1028,15
DA:1027,15
DA:1028,15
DA:1027,15
DA:1028,15
DA:1027,15
DA:1028,15
DA:1027,0
DA:1028,0
DA:1027,15
DA:1028,15
DA:1027,15
DA:1028,15
DA:1027,15
DA:1028,15
DA:1027,15
DA:1028,15
DA:1027,0
DA:1028,0
DA:1027,0
DA:1028,0
DA:1027,0
DA:1028,0
DA:1027,0
DA:1028,0
DA:1027,0
DA:1028,0
DA:1042,3
DA:1043,3
DA:1042,3
DA:1043,3
DA:1042,3
DA:1043,3
DA:1042,3
DA:1043,3
DA:1042,3
DA:1043,3
DA:1042,3
DA:1043,3
DA:1042,684
DA:1043,684
DA:1042,252
DA:1043,252
DA:1042,108
DA:1043,108
DA:1047,15
DA:1048,15
DA:1047,15
DA:1048,15
DA:1047,15
DA:1048,15
DA:1047,15
DA:1048,15
DA:1047,15
DA:1048,15
DA:1047,15
DA:1048,15
DA:1052,3
DA:1054,3
DA:1055,3
DA:1052,3
DA:1054,3
DA:1055,3
DA:1052,3
DA:1054,3
DA:1055,3
DA:1052,3
DA:1054,3
DA:1055,3
DA:1052,3
DA:1054,3
DA:1055,3
DA:1052,3
DA:1054,3
DA:1055,3
DA:1052,3
DA:1054,3
DA:1055,3
DA:1052,3
DA:1054,3
DA:1055,3
DA:1052,3
DA:1054,3
DA:1055,3
DA:1052,3
DA:1054,3
DA:1055,3
DA:1052,3
DA:1054,3
DA:1055,3
DA:1052,3
DA:1054,3
DA:1055,3
DA:1052,684
DA:1054,684
DA:1055,684
DA:1052,252
DA:1054,252
DA:1055,252
DA:1052,90
DA:1054,90
DA:1055,90
DA:1105,24
DA:1106,24
DA:1105,300
DA:1106,300
DA:1105,24
DA:1106,24
DA:1105,24
DA:1106,24
DA:1105,24
DA:1106,24
DA:1105,24
DA:1106,24
DA:1105,24
DA:1106,24
DA:1105,24
DA:1106,24
DA:1105,24
DA:1106,24
DA:1105,24
DA:1106,24
DA:1105,24
DA:1106,24
DA:1105,0
DA:1106,0
DA:1105,24
DA:1106,24
DA:1105,24
DA:1106,24
DA:1105,558
DA:1106,558
DA:1105,1422
DA:1106,1422
DA:1105,0
DA:1106,0
DA:1105,0
DA:1106,0
DA:1105,0
DA:1106,0
DA:1105,0
DA:1106,0
DA:1105,0
DA:1106,0
DA:1163,351
DA:1166,351
DA:1163,135
DA:1166,135
DA:1163,0
DA:1166,0
DA:1163,0
DA:1166,0
DA:1163,0
DA:1166,0
DA:1163,0
DA:1166,0
DA:1163,0
DA:1166,0
DA:1163,0
DA:1166,0
DA:1179,6
DA:1182,6
DA:1179,6
DA:1182,6
DA:1179,6
DA:1182,6
DA:1179,6
DA:1182,6
DA:1179,6
DA:1182,6
DA:1179,6
DA:1182,6
DA:1179,6
DA:1182,6
DA:1179,6
DA:1182,6
DA:1179,6
DA:1182,6
DA:1179,6
DA:1182,6
DA:1179,6
DA:1182,6
DA:1179,6
DA:1182,6
DA:1179,351
DA:1182,351
DA:1179,135
DA:1182,135
DA:1179,126
DA:1182,126
DA:1268,9
DA:1271,9
DA:1268,9
DA:1271,9
DA:1268,3
DA:1271,3
DA:1268,3
DA:1271,3
DA:1268,3
DA:1271,3
DA:1268,3
DA:1271,3
DA:1268,3
DA:1271,3
DA:1268,3
DA:1271,3
DA:1268,3
DA:1271,3
DA:1268,3
DA:1271,3
DA:1268,3
DA:1271,3
DA:1268,3
DA:1271,3
DA:1268,3
DA:1271,3
DA:1268,3
DA:1271,3
DA:1268,12
DA:1271,12
DA:1439,0
DA:1440,0
DA:1439,0
DA:1440,0
DA:1439,0
DA:1440,0
DA:1439,0
DA:1440,0
DA:1439,0
DA:1440,0
DA:1439,0
DA:1440,0
DA:1439,0
DA:1440,0
DA:1439,0
DA:1440,0
DA:1439,0
DA:1440,0
DA:1439,0
DA:1440,0
DA:1439,0
DA:1440,0
DA:1439,0
DA:1440,0
DA:1439,0
DA:1440,0
DA:1464,0
DA:1465,0
DA:1464,0
DA:1465,0
DA:1464,0
DA:1465,0
DA:1464,0
DA:1465,0
DA:1464,0
DA:1465,0
DA:1464,0
DA:1465,0
DA:1464,0
DA:1465,0
DA:1464,0
DA:1465,0
DA:1464,0
DA:1465,0
DA:1464,0
DA:1465,0
DA:1464,0
DA:1465,0
DA:1464,0
DA:1465,0
DA:1464,0
DA:1465,0
DA:1477,0
DA:1481,0
DA:1477,0
DA:1481,0
DA:1477,0
DA:1481,0
DA:1477,0
DA:1481,0
DA:1477,0
DA:1481,0
DA:1477,0
DA:1481,0
DA:1477,0
DA:1481,0
DA:1477,0
DA:1481,0
DA:1477,0
DA:1481,0
DA:1477,0
DA:1481,0
DA:1477,0
DA:1481,0
DA:1477,0
DA:1481,0
DA:1489,0
DA:1491,0
DA:1492,0
DA:1489,0
DA:1491,0
DA:1492,0
DA:1489,0
DA:1491,0
DA:1492,0
DA:1489,0
DA:1491,0
DA:1492,0
DA:1489,0
DA:1491,0
DA:1492,0
DA:1489,0
DA:1491,0
DA:1492,0
DA:1489,0
DA:1491,0
DA:1492,0
DA:1489,0
DA:1491,0
DA:1492,0
DA:1489,0
DA:1491,0
DA:1492,0
DA:1489,0
DA:1491,0
DA:1492,0
DA:1489,0
DA:1491,0
DA:1492,0
DA:1489,0
DA:1491,0
DA:1492,0
DA:1648,0
DA:1650,0
DA:1648,0
DA:1650,0
DA:1648,0
DA:1650,0
DA:1648,0
DA:1650,0
DA:1648,0
DA:1650,0
DA:1648,0
DA:1650,0
DA:1648,0
DA:1650,0
DA:1648,0
DA:1650,0
DA:1648,0
DA:1650,0
DA:1648,0
DA:1650,0
DA:1648,0
DA:1650,0
DA:1648,0
DA:1650,0
DA:1661,0
DA:1663,0
DA:1661,0
DA:1663,0
DA:1661,0
DA:1663,0
DA:1661,0
DA:1663,0
DA:1661,0
DA:1663,0
DA:1661,0
DA:1663,0
DA:1661,0
DA:1663,0
DA:1661,0
DA:1663,0
DA:1661,0
DA:1663,0
DA:1661,0
DA:1663,0
DA:1661,0
DA:1663,0
DA:1661,0
DA:1663,0
DA:1723,0
DA:1724,0
DA:1723,0
DA:1724,0
DA:1723,0
DA:1724,0
DA:1723,0
DA:1724,0
DA:1723,0
DA:1724,0
DA:1723,0
DA:1724,0
DA:1723,0
DA:1724,0
DA:1723,0
DA:1724,0
DA:1723,0
DA:1724,0
DA:1723,0
DA:1724,0
DA:1723,0
DA:1724,0
DA:1723,0
DA:1724,0
DA:1723,0
DA:1724,0
DA:2464,0
DA:2466,0
end_of_record
SF:/usr/include/c++/11/bits/shared_ptr.h
FN:150,_ZNSt10shared_ptrIN7testing8internal26ParameterizedTestSuiteInfoI21RXRotateInsertFixtureE8TestInfoEEC2ERKS6_
FNDA:3,_ZNSt10shared_ptrIN7testing8internal26ParameterizedTestSuiteInfoI21RXRotateInsertFixtureE8TestInfoEEC2ERKS6_
FN:150,_ZNSt10shared_ptrIN7testing8internal26ParameterizedTestSuiteInfoI14MinimumFixtureE8TestInfoEEC2ERKS6_
FNDA:3,_ZNSt10shared_ptrIN7testing8internal26ParameterizedTestSuiteInfoI14MinimumFixtureE8TestInfoEEC2ERKS6_
FN:150,_ZNSt10shared_ptrIN7testing8internal26ParameterizedTestSuiteInfoI14MaximumFixtureE8TestInfoEEC2ERKS6_
FNDA:3,_ZNSt10shared_ptrIN7testing8internal26ParameterizedTestSuiteInfoI14MaximumFixtureE8TestInfoEEC2ERKS6_
FN:150,_ZNSt10shared_ptrIN7testing8internal26ParameterizedTestSuiteInfoI11RankFixtureE8TestInfoEEC2ERKS6_
FNDA:3,_ZNSt10shared_ptrIN7testing8internal26ParameterizedTestSuiteInfoI11RankFixtureE8TestInfoEEC2ERKS6_
FN:150,_ZNSt10shared_ptrIN7testing8internal26ParameterizedTestSuiteInfoI11FindFixtureE8TestInfoEEC2ERKS6_
FNDA:3,_ZNSt10shared_ptrIN7testing8internal26ParameterizedTestSuiteInfoI11FindFixtureE8TestInfoEEC2ERKS6_
FN:150,_ZNSt10shared_ptrIN7testing8internal26ParameterizedTestSuiteInfoI21LXRotateInsertFixtureE8TestInfoEEC2ERKS6_
FNDA:3,_ZNSt10shared_ptrIN7testing8internal26ParameterizedTestSuiteInfoI21LXRotateInsertFixtureE8TestInfoEEC2ERKS6_
FN:160,_ZNSt10shared_ptrIN7testing8internal26ParameterizedTestSuiteInfoI21LXRotateInsertFixtureE8TestInfoEEC2IS5_vEEPT_
FNDA:3,_ZNSt10shared_ptrIN7testing8internal26ParameterizedTestSuiteInfoI21LXRotateInsertFixtureE8TestInfoEEC2IS5_vEEPT_
FN:160,_ZNSt10shared_ptrIN7testing8internal26ParameterizedTestSuiteInfoI21RXRotateInsertFixtureE8TestInfoEEC2IS5_vEEPT_
FNDA:3,_ZNSt10shared_ptrIN7testing8internal26ParameterizedTestSuiteInfoI21RXRotateInsertFixtureE8TestInfoEEC2IS5_vEEPT_
FN:160,_ZNSt10shared_ptrIN7testing8internal26ParameterizedTestSuiteInfoI14MinimumFixtureE8TestInfoEEC2IS5_vEEPT_
FNDA:3,_ZNSt10shared_ptrIN7testing8internal26ParameterizedTestSuiteInfoI14MinimumFixtureE8TestInfoEEC2IS5_vEEPT_
FN:160,_ZNSt10shared_ptrIN7testing8internal26ParameterizedTestSuiteInfoI14MaximumFixtureE8TestInfoEEC2IS5_vEEPT_
FNDA:3,_ZNSt10shared_ptrIN7testing8internal26ParameterizedTestSuiteInfoI14MaximumFixtureE8TestInfoEEC2IS5_vEEPT_
FN:160,_ZNSt10shared_ptrIN7testing8internal26ParameterizedTestSuiteInfoI11RankFixtureE8TestInfoEEC2IS5_vEEPT_
FNDA:3,_ZNSt10shared_ptrIN7testing8internal26ParameterizedTestSuiteInfoI11RankFixtureE8TestInfoEEC2IS5_vEEPT_
FN:160,_ZNSt10shared_ptrIN7testing8internal26ParameterizedTestSuiteInfoI11FindFixtureE8TestInfoEEC2IS5_vEEPT_
FNDA:3,_ZNSt10shared_ptrIN7testing8internal26ParameterizedTestSuiteInfoI11FindFixtureE8TestInfoEEC2IS5_vEEPT_
FN:160,_ZNSt10shared_ptrIKN7testing8internal23ParamGeneratorInterfaceISt5tupleIJiiEEEEEC2IS5_vEEPT_
FNDA:9,_ZNSt10shared_ptrIKN7testing8internal23ParamGeneratorInterfaceISt5tupleIJiiEEEEEC2IS5_vEEPT_
FN:160,_ZNSt10shared_ptrIKN7testing8internal23ParamGeneratorInterfaceISt5tupleIJiiiEEEEEC2IS5_vEEPT_
FNDA:9,_ZNSt10shared_ptrIKN7testing8internal23ParamGeneratorInterfaceISt5tupleIJiiiEEEEEC2IS5_vEEPT_
FN:304,_ZNSt10shared_ptrIN7testing8internal26ParameterizedTestSuiteInfoI21LXRotateInsertFixtureE8TestInfoEEC2EOS6_
FNDA:3,_ZNSt10shared_ptrIN7testing8internal26ParameterizedTestSuiteInfoI21LXRotateInsertFixtureE8TestInfoEEC2EOS6_
FN:304,_ZNSt10shared_ptrIN7testing8internal26ParameterizedTestSuiteInfoI21RXRotateInsertFixtureE8TestInfoEEC2EOS6_
FNDA:3,_ZNSt10shared_ptrIN7testing8internal26ParameterizedTestSuiteInfoI21RXRotateInsertFixtureE8TestInfoEEC2EOS6_
FN:304,_ZNSt10shared_ptrIN7testing8internal26ParameterizedTestSuiteInfoI14MinimumFixtureE8TestInfoEEC2EOS6_
FNDA:3,_ZNSt10shared_ptrIN7testing8internal26ParameterizedTestSuiteInfoI14MinimumFixtureE8TestInfoEEC2EOS6_
FN:304,_ZNSt10shared_ptrIN7testing8internal26ParameterizedTestSuiteInfoI14MaximumFixtureE8TestInfoEEC2EOS6_
FNDA:3,_ZNSt10shared_ptrIN7testing8internal26ParameterizedTestSuiteInfoI14MaximumFixtureE8TestInfoEEC2EOS6_
FN:304,_ZNSt10shared_ptrIN7testing8internal26ParameterizedTestSuiteInfoI11RankFixtureE8TestInfoEEC2EOS6_
FNDA:3,_ZNSt10shared_ptrIN7testing8internal26ParameterizedTestSuiteInfoI11RankFixtureE8TestInfoEEC2EOS6_
FN:304,_ZNSt10shared_ptrIN7testing8internal26ParameterizedTestSuiteInfoI11FindFixtureE8TestInfoEEC2EOS6_
FNDA:3,_ZNSt10shared_ptrIN7testing8internal26ParameterizedTestSuiteInfoI11FindFixtureE8TestInfoEEC2EOS6_
DA:150,3
DA:150,3
DA:150,3
DA:150,3
DA:150,3
DA:150,3
DA:160,9
DA:160,9
DA:160,3
DA:160,3
DA:160,3
DA:160,3
DA:160,3
DA:160,3
DA:304,3
DA:305,3
DA:304,3
DA:305,3
DA:304,3
DA:305,3
DA:304,3
DA:305,3
DA:304,3
DA:305,3
DA:304,3
DA:305,3
end_of_record
SF:/usr/include/gtest/gtest-param-test.h
FN:294,_ZN7testing8ValuesInIN9__gnu_cxx17__normal_iteratorIPKSt5tupleIJiiiEESt6vectorIS4_SaIS4_EEEEEENS_8internal14ParamGeneratorINSt15iterator_traitsIT_E10value_typeEEESE_SE_
FNDA:9,_ZN7testing8ValuesInIN9__gnu_cxx17__normal_iteratorIPKSt5tupleIJiiiEESt6vectorIS4_SaIS4_EEEEEENS_8internal14ParamGeneratorINSt15iterator_traitsIT_E10value_typeEEESE_SE_
FN:294,_ZN7testing8ValuesInIN9__gnu_cxx17__normal_iteratorIPKSt5tupleIJiiEESt6vectorIS4_SaIS4_EEEEEENS_8internal14ParamGeneratorINSt15iterator_traitsIT_E10value_typeEEESE_SE_
FNDA:9,_ZN7testing8ValuesInIN9__gnu_cxx17__normal_iteratorIPKSt5tupleIJiiEESt6vectorIS4_SaIS4_EEEEEENS_8internal14ParamGeneratorINSt15iterator_traitsIT_E10value_typeEEESE_SE_
FN:306,_ZN7testing8ValuesInISt6vectorISt5tupleIJiiiEESaIS3_EEEENS_8internal14ParamGeneratorINT_10value_typeEEERKS8_
FNDA:9,_ZN7testing8ValuesInISt6vectorISt5tupleIJiiiEESaIS3_EEEENS_8internal14ParamGeneratorINT_10value_typeEEERKS8_
FN:306,_ZN7testing8ValuesInISt6vectorISt5tupleIJiiEESaIS3_EEEENS_8internal14ParamGeneratorINT_10value_typeEEERKS8_
FNDA:9,_ZN7testing8ValuesInISt6vectorISt5tupleIJiiEESaIS3_EEEENS_8internal14ParamGeneratorINT_10value_typeEEERKS8_
FN:332,_ZN7testing6ValuesIJSt5tupleIJiiEES2_S2_S2_S2_S2_S2_S2_S2_S2_S2_S2_S2_S2_S2_S2_S2_S2_S2_S2_S2_S2_S2_S2_S2_S2_S2_S2_S2_S2_S2_S2_S2_S2_S2_S2_S2_S2_EEENS_8internal10ValueArrayIJDpT_EEES6_
FNDA:3,_ZN7testing6ValuesIJSt5tupleIJiiEES2_S2_S2_S2_S2_S2_S2_S2_S2_S2_S2_S2_S2_S2_S2_S2_S2_S2_S2_S2_S2_S2_S2_S2_S2_S2_S2_S2_S2_S2_S2_S2_S2_S2_S2_S2_S2_EEENS_8internal10ValueArrayIJDpT_EEES6_
FN:332,_ZN7testing6ValuesIJSt5tupleIJiiiEES2_S2_S2_S2_S2_S2_S2_S2_S2_S2_S2_S2_S2_S2_S2_S2_S2_S2_S2_S2_S2_S2_S2_S2_S2_S2_S2_S2_S2_S2_S2_S2_S2_S2_S2_S2_S2_EEENS_8internal10ValueArrayIJDpT_EEES6_
FNDA:9,_ZN7testing6ValuesIJSt5tupleIJiiiEES2_S2_S2_S2_S2_S2_S2_S2_S2_S2_S2_S2_S2_S2_S2_S2_S2_S2_S2_S2_S2_S2_S2_S2_S2_S2_S2_S2_S2_S2_S2_S2_S2_S2_S2_S2_S2_EEENS_8internal10ValueArrayIJDpT_EEES6_
FN:332,_ZN7testing6ValuesIJSt5tupleIJiiEES2_EEENS_8internal10ValueArrayIJDpT_EEES6_
FNDA:6,_ZN7testing6ValuesIJSt5tupleIJiiEES2_EEENS_8internal10ValueArrayIJDpT_EEES6_
DA:294,9
DA:297,9
DA:294,9
DA:297,9
DA:306,9
DA:308,9
DA:306,9
DA:308,9
DA:332,3
DA:333,3
DA:332,9
DA:333,9
DA:332,6
DA:333,6
end_of_record
SF:/usr/include/c++/11/bits/shared_ptr_base.h
FN:126,_ZNSt16_Sp_counted_baseILN9__gnu_cxx12_Lock_policyE2EEC2Ev
FNDA:36,_ZNSt16_Sp_counted_baseILN9__gnu_cxx12_Lock_policyE2EEC2Ev
FN:130,_ZNSt16_Sp_counted_baseILN9__gnu_cxx12_Lock_policyE2EED0Ev
FNDA:0,_ZNSt16_Sp_counted_baseILN9__gnu_cxx12_Lock_policyE2EED0Ev
FN:130,_ZNSt16_Sp_counted_baseILN9__gnu_cxx12_Lock_policyE2EED2Ev
FNDA:36,_ZNSt16_Sp_counted_baseILN9__gnu_cxx12_Lock_policyE2EED2Ev
FN:140,_ZNSt16_Sp_counted_baseILN9__gnu_cxx12_Lock_policyE2EE10_M_destroyEv
FNDA:0,_ZNSt16_Sp_counted_baseILN9__gnu_cxx12_Lock_policyE2EE10_M_destroyEv
FN:147,_ZNSt16_Sp_counted_baseILN9__gnu_cxx12_Lock_policyE2EE15_M_add_ref_copyEv
FNDA:18,_ZNSt16_Sp_counted_baseILN9__gnu_cxx12_Lock_policyE2EE15_M_add_ref_copyEv
FN:161,_ZNSt16_Sp_counted_baseILN9__gnu_cxx12_Lock_policyE2EE10_M_releaseEv
FNDA:54,_ZNSt16_Sp_counted_baseILN9__gnu_cxx12_Lock_policyE2EE10_M_releaseEv
FN:343,_ZNSt15_Sp_counted_ptrIPN7testing8internal23ParamGeneratorInterfaceISt5tupleIJiiiEEEELN9__gnu_cxx12_Lock_policyE2EEC2ES6_
FNDA:9,_ZNSt15_Sp_counted_ptrIPN7testing8internal23ParamGeneratorInterfaceISt5tupleIJiiiEEEELN9__gnu_cxx12_Lock_policyE2EEC2ES6_
FN:343,_ZNSt15_Sp_counted_ptrIPN7testing8internal23ParamGeneratorInterfaceISt5tupleIJiiEEEELN9__gnu_cxx12_Lock_policyE2EEC2ES6_
FNDA:9,_ZNSt15_Sp_counted_ptrIPN7testing8internal23ParamGeneratorInterfaceISt5tupleIJiiEEEELN9__gnu_cxx12_Lock_policyE2EEC2ES6_
FN:343,_ZNSt15_Sp_counted_ptrIPN7testing8internal26ParameterizedTestSuiteInfoI11FindFixtureE8TestInfoELN9__gnu_cxx12_Lock_policyE2EEC2ES6_
FNDA:3,_ZNSt15_Sp_counted_ptrIPN7testing8internal26ParameterizedTestSuiteInfoI11FindFixtureE8TestInfoELN9__gnu_cxx12_Lock_policyE2EEC2ES6_
FN:343,_ZNSt15_Sp_counted_ptrIPN7testing8internal26ParameterizedTestSuiteInfoI11RankFixtureE8TestInfoELN9__gnu_cxx12_Lock_policyE2EEC2ES6_
FNDA:3,_ZNSt15_Sp_counted_ptrIPN7testing8internal26ParameterizedTestSuiteInfoI11RankFixtureE8TestInfoELN9__gnu_cxx12_Lock_policyE2EEC2ES6_
FN:343,_ZNSt15_Sp_counted_ptrIPN7testing8internal26ParameterizedTestSuiteInfoI14MaximumFixtureE8TestInfoELN9__gnu_cxx12_Lock_policyE2EEC2ES6_
FNDA:3,_ZNSt15_Sp_counted_ptrIPN7testing8internal26ParameterizedTestSuiteInfoI14MaximumFixtureE8TestInfoELN9__gnu_cxx12_Lock_policyE2EEC2ES6_
FN:343,_ZNSt15_Sp_counted_ptrIPN7testing8internal26ParameterizedTestSuiteInfoI14MinimumFixtureE8TestInfoELN9__gnu_cxx12_Lock_policyE2EEC2ES6_
FNDA:3,_ZNSt15_Sp_counted_ptrIPN7testing8internal26ParameterizedTestSuiteInfoI14MinimumFixtureE8TestInfoELN9__gnu_cxx12_Lock_policyE2EEC2ES6_
FN:343,_ZNSt15_Sp_counted_ptrIPN7testing8internal26ParameterizedTestSuiteInfoI21RXRotateInsertFixtureE8TestInfoELN9__gnu_cxx12_Lock_policyE2EEC2ES6_
FNDA:3,_ZNSt15_Sp_counted_ptrIPN7testing8internal26ParameterizedTestSuiteInfoI21RXRotateInsertFixtureE8TestInfoELN9__gnu_cxx12_Lock_policyE2EEC2ES6_
FN:343,_ZNSt15_Sp_counted_ptrIPN7testing8internal26ParameterizedTestSuiteInfoI21LXRotateInsertFixtureE8TestInfoELN9__gnu_cxx12_Lock_policyE2EEC2ES6_
FNDA:3,_ZNSt15_Sp_counted_ptrIPN7testing8internal26ParameterizedTestSuiteInfoI21LXRotateInsertFixtureE8TestInfoELN9__gnu_cxx12_Lock_policyE2EEC2ES6_
FN:347,_ZNSt15_Sp_counted_ptrIPN7testing8internal26ParameterizedTestSuiteInfoI11RankFixtureE8TestInfoELN9__gnu_cxx12_Lock_policyE2EE10_M_disposeEv
FNDA:3,_ZNSt15_Sp_counted_ptrIPN7testing8internal26ParameterizedTestSuiteInfoI11RankFixtureE8TestInfoELN9__gnu_cxx12_Lock_policyE2EE10_M_disposeEv
FN:347,_ZNSt15_Sp_counted_ptrIPN7testing8internal26ParameterizedTestSuiteInfoI21LXRotateInsertFixtureE8TestInfoELN9__gnu_cxx12_Lock_policyE2EE10_M_disposeEv
FNDA:3,_ZNSt15_Sp_counted_ptrIPN7testing8internal26ParameterizedTestSuiteInfoI21LXRotateInsertFixtureE8TestInfoELN9__gnu_cxx12_Lock_policyE2EE10_M_disposeEv
FN:347,_ZNSt15_Sp_counted_ptrIPN7testing8internal26ParameterizedTestSuiteInfoI21RXRotateInsertFixtureE8TestInfoELN9__gnu_cxx12_Lock_policyE2EE10_M_disposeEv
FNDA:3,_ZNSt15_Sp_counted_ptrIPN7testing8internal26ParameterizedTestSuiteInfoI21RXRotateInsertFixtureE8TestInfoELN9__gnu_cxx12_Lock_policyE2EE10_M_disposeEv
FN:347,_ZNSt15_Sp_counted_ptrIPN7testing8internal26ParameterizedTestSuiteInfoI14MaximumFixtureE8TestInfoELN9__gnu_cxx12_Lock_policyE2EE10_M_disposeEv
FNDA:3,_ZNSt15_Sp_counted_ptrIPN7testing8internal26ParameterizedTestSuiteInfoI14MaximumFixtureE8TestInfoELN9__gnu_cxx12_Lock_policyE2EE10_M_disposeEv
FN:347,_ZNSt15_Sp_counted_ptrIPN7testing8internal23ParamGeneratorInterfaceISt5tupleIJiiiEEEELN9__gnu_cxx12_Lock_policyE2EE10_M_disposeEv
FNDA:9,_ZNSt15_Sp_counted_ptrIPN7testing8internal23ParamGeneratorInterfaceISt5tupleIJiiiEEEELN9__gnu_cxx12_Lock_policyE2EE10_M_disposeEv
FN:347,_ZNSt15_Sp_counted_ptrIPN7testing8internal23ParamGeneratorInterfaceISt5tupleIJiiEEEELN9__gnu_cxx12_Lock_policyE2EE10_M_disposeEv
FNDA:9,_ZNSt15_Sp_counted_ptrIPN7testing8internal23ParamGeneratorInterfaceISt5tupleIJiiEEEELN9__gnu_cxx12_Lock_policyE2EE10_M_disposeEv
FN:347,_ZNSt15_Sp_counted_ptrIPN7testing8internal26ParameterizedTestSuiteInfoI14MinimumFixtureE8TestInfoELN9__gnu_cxx12_Lock_policyE2EE10_M_disposeEv
FNDA:3,_ZNSt15_Sp_counted_ptrIPN7testing8internal26ParameterizedTestSuiteInfoI14MinimumFixtureE8TestInfoELN9__gnu_cxx12_Lock_policyE2EE10_M_disposeEv
FN:347,_ZNSt15_Sp_counted_ptrIPN7testing8internal26ParameterizedTestSuiteInfoI11FindFixtureE8TestInfoELN9__gnu_cxx12_Lock_policyE2EE10_M_disposeEv
FNDA:3,_ZNSt15_Sp_counted_ptrIPN7testing8internal26ParameterizedTestSuiteInfoI11FindFixtureE8TestInfoELN9__gnu_cxx12_Lock_policyE2EE10_M_disposeEv
FN:351,_ZNSt15_Sp_counted_ptrIPN7testing8internal23ParamGeneratorInterfaceISt5tupleIJiiEEEELN9__gnu_cxx12_Lock_policyE2EE10_M_destroyEv
FNDA:9,_ZNSt15_Sp_counted_ptrIPN7testing8internal23ParamGeneratorInterfaceISt5tupleIJiiEEEELN9__gnu_cxx12_Lock_policyE2EE10_M_destroyEv
FN:351,_ZNSt15_Sp_counted_ptrIPN7testing8internal26ParameterizedTestSuiteInfoI11RankFixtureE8TestInfoELN9__gnu_cxx12_Lock_policyE2EE10_M_destroyEv
FNDA:3,_ZNSt15_Sp_counted_ptrIPN7testing8internal26ParameterizedTestSuiteInfoI11RankFixtureE8TestInfoELN9__gnu_cxx12_Lock_policyE2EE10_M_destroyEv
FN:351,_ZNSt15_Sp_counted_ptrIPN7testing8internal26ParameterizedTestSuiteInfoI14MinimumFixtureE8TestInfoELN9__gnu_cxx12_Lock_policyE2EE10_M_destroyEv
FNDA:3,_ZNSt15_Sp_counted_ptrIPN7testing8internal26ParameterizedTestSuiteInfoI14MinimumFixtureE8TestInfoELN9__gnu_cxx12_Lock_policyE2EE10_M_destroyEv
FN:351,_ZNSt15_Sp_counted_ptrIPN7testing8internal23ParamGeneratorInterfaceISt5tupleIJiiiEEEELN9__gnu_cxx12_Lock_policyE2EE10_M_destroyEv
FNDA:9,_ZNSt15_Sp_counted_ptrIPN7testing8internal23ParamGeneratorInterfaceISt5tupleIJiiiEEEELN9__gnu_cxx12_Lock_policyE2EE10_M_destroyEv
FN:351,_ZNSt15_Sp_counted_ptrIPN7testing8internal26ParameterizedTestSuiteInfoI14MaximumFixtureE8TestInfoELN9__gnu_cxx12_Lock_policyE2EE10_M_destroyEv
FNDA:3,_ZNSt15_Sp_counted_ptrIPN7testing8internal26ParameterizedTestSuiteInfoI14MaximumFixtureE8TestInfoELN9__gnu_cxx12_Lock_policyE2EE10_M_destroyEv
FN:351,_ZNSt15_Sp_counted_ptrIPN7testing8internal26ParameterizedTestSuiteInfoI11FindFixtureE8TestInfoELN9__gnu_cxx12_Lock_policyE2EE10_M_destroyEv
FNDA:3,_ZNSt15_Sp_counted_ptrIPN7testing8internal26ParameterizedTestSuiteInfoI11FindFixtureE8TestInfoELN9__gnu_cxx12_Lock_policyE2EE10_M_destroyEv
FN:351,_ZNSt15_Sp_counted_ptrIPN7testing8internal26ParameterizedTestSuiteInfoI21RXRotateInsertFixtureE8TestInfoELN9__gnu_cxx12_Lock_policyE2EE10_M_destroyEv
FNDA:3,_ZNSt15_Sp_counted_ptrIPN7testing8internal26ParameterizedTestSuiteInfoI21RXRotateInsertFixtureE8TestInfoELN9__gnu_cxx12_Lock_policyE2EE10_M_destroyEv
FN:351,_ZNSt15_Sp_counted_ptrIPN7testing8internal26ParameterizedTestSuiteInfoI21LXRotateInsertFixtureE8TestInfoELN9__gnu_cxx12_Lock_policyE2EE10_M_destroyEv
FNDA:3,_ZNSt15_Sp_counted_ptrIPN7testing8internal26ParameterizedTestSuiteInfoI21LXRotateInsertFixtureE8TestInfoELN9__gnu_cxx12_Lock_policyE2EE10_M_destroyEv
FN:355,_ZNSt15_Sp_counted_ptrIPN7testing8internal26ParameterizedTestSuiteInfoI14MinimumFixtureE8TestInfoELN9__gnu_cxx12_Lock_policyE2EE14_M_get_deleterERKSt9type_info
FNDA:0,_ZNSt15_Sp_counted_ptrIPN7testing8internal26ParameterizedTestSuiteInfoI14MinimumFixtureE8TestInfoELN9__gnu_cxx12_Lock_policyE2EE14_M_get_deleterERKSt9type_info
FN:355,_ZNSt15_Sp_counted_ptrIPN7testing8internal26ParameterizedTestSuiteInfoI21RXRotateInsertFixtureE8TestInfoELN9__gnu_cxx12_Lock_policyE2EE14_M_get_deleterERKSt9type_info
FNDA:0,_ZNSt15_Sp_counted_ptrIPN7testing8internal26ParameterizedTestSuiteInfoI21RXRotateInsertFixtureE8TestInfoELN9__gnu_cxx12_Lock_policyE2EE14_M_get_deleterERKSt9type_info
FN:355,_ZNSt15_Sp_counted_ptrIPN7testing8internal26ParameterizedTestSuiteInfoI14MaximumFixtureE8TestInfoELN9__gnu_cxx12_Lock_policyE2EE14_M_get_deleterERKSt9type_info
FNDA:0,_ZNSt15_Sp_counted_ptrIPN7testing8internal26ParameterizedTestSuiteInfoI14MaximumFixtureE8TestInfoELN9__gnu_cxx12_Lock_policyE2EE14_M_get_deleterERKSt9type_info
FN:355,_ZNSt15_Sp_counted_ptrIPN7testing8internal26ParameterizedTestSuiteInfoI21LXRotateInsertFixtureE8TestInfoELN9__gnu_cxx12_Lock_policyE2EE14_M_get_deleterERKSt9type_info
FNDA:0,_ZNSt15_Sp_counted_ptrIPN7testing8internal26ParameterizedTestSuiteInfoI21LXRotateInsertFixtureE8TestInfoELN9__gnu_cxx12_Lock_policyE2EE14_M_get_deleterERKSt9type_info
FN:355,_ZNSt15_Sp_counted_ptrIPN7testing8internal23ParamGeneratorInterfaceISt5tupleIJiiiEEEELN9__gnu_cxx12_Lock_policyE2EE14_M_get_deleterERKSt9type_info
FNDA:0,_ZNSt15_Sp_counted_ptrIPN7testing8internal23ParamGeneratorInterfaceISt5tupleIJiiiEEEELN9__gnu_cxx12_Lock_policyE2EE14_M_get_deleterERKSt9type_info
FN:355,_ZNSt15_Sp_counted_ptrIPN7testing8internal26ParameterizedTestSuiteInfoI11RankFixtureE8TestInfoELN9__gnu_cxx12_Lock_policyE2EE14_M_get_deleterERKSt9type_info
FNDA:0,_ZNSt15_Sp_counted_ptrIPN7testing8internal26ParameterizedTestSuiteInfoI11RankFixtureE8TestInfoELN9__gnu_cxx12_Lock_policyE2EE14_M_get_deleterERKSt9type_info
FN:355,_ZNSt15_Sp_counted_ptrIPN7testing8internal23ParamGeneratorInterfaceISt5tupleIJiiEEEELN9__gnu_cxx12_Lock_policyE2EE14_M_get_deleterERKSt9type_info
FNDA:0,_ZNSt15_Sp_counted_ptrIPN7testing8internal23ParamGeneratorInterfaceISt5tupleIJiiEEEELN9__gnu_cxx12_Lock_policyE2EE14_M_get_deleterERKSt9type_info
FN:355,_ZNSt15_Sp_counted_ptrIPN7testing8internal26ParameterizedTestSuiteInfoI11FindFixtureE8TestInfoELN9__gnu_cxx12_Lock_policyE2EE14_M_get_deleterERKSt9type_info
FNDA:0,_ZNSt15_Sp_counted_ptrIPN7testing8internal26ParameterizedTestSuiteInfoI11FindFixtureE8TestInfoELN9__gnu_cxx12_Lock_policyE2EE14_M_get_deleterERKSt9type_info
FN:587,_ZNSt14__shared_countILN9__gnu_cxx12_Lock_policyE2EEC2Ev
FNDA:18,_ZNSt14__shared_countILN9__gnu_cxx12_Lock_policyE2EEC2Ev
FN:592,_ZNSt14__shared_countILN9__gnu_cxx12_Lock_policyE2EEC2IPN7testing8internal23ParamGeneratorInterfaceISt5tupleIJiiiEEEEEET_
FNDA:9,_ZNSt14__shared_countILN9__gnu_cxx12_Lock_policyE2EEC2IPN7testing8internal23ParamGeneratorInterfaceISt5tupleIJiiiEEEEEET_
FN:592,_ZNSt14__shared_countILN9__gnu_cxx12_Lock_policyE2EEC2IPN7testing8internal23ParamGeneratorInterfaceISt5tupleIJiiEEEEEET_
FNDA:9,_ZNSt14__shared_countILN9__gnu_cxx12_Lock_policyE2EEC2IPN7testing8internal23ParamGeneratorInterfaceISt5tupleIJiiEEEEEET_
FN:592,_ZNSt14__shared_countILN9__gnu_cxx12_Lock_policyE2EEC2IPN7testing8internal26ParameterizedTestSuiteInfoI11FindFixtureE8TestInfoEEET_
FNDA:3,_ZNSt14__shared_countILN9__gnu_cxx12_Lock_policyE2EEC2IPN7testing8internal26ParameterizedTestSuiteInfoI11FindFixtureE8TestInfoEEET_
FN:592,_ZNSt14__shared_countILN9__gnu_cxx12_Lock_policyE2EEC2IPN7testing8internal26ParameterizedTestSuiteInfoI11RankFixtureE8TestInfoEEET_
FNDA:3,_ZNSt14__shared_countILN9__gnu_cxx12_Lock_policyE2EEC2IPN7testing8internal26ParameterizedTestSuiteInfoI11RankFixtureE8TestInfoEEET_
FN:592,_ZNSt14__shared_countILN9__gnu_cxx12_Lock_policyE2EEC2IPN7testing8internal26ParameterizedTestSuiteInfoI14MaximumFixtureE8TestInfoEEET_
FNDA:3,_ZNSt14__shared_countILN9__gnu_cxx12_Lock_policyE2EEC2IPN7testing8internal26ParameterizedTestSuiteInfoI14MaximumFixtureE8TestInfoEEET_
FN:592,_ZNSt14__shared_countILN9__gnu_cxx12_Lock_policyE2EEC2IPN7testing8internal26ParameterizedTestSuiteInfoI14MinimumFixtureE8TestInfoEEET_
FNDA:3,_ZNSt14__shared_countILN9__gnu_cxx12_Lock_policyE2EEC2IPN7testing8internal26ParameterizedTestSuiteInfoI14MinimumFixtureE8TestInfoEEET_
FN:592,_ZNSt14__shared_countILN9__gnu_cxx12_Lock_policyE2EEC2IPN7testing8internal26ParameterizedTestSuiteInfoI21RXRotateInsertFixtureE8TestInfoEEET_
FNDA:3,_ZNSt14__shared_countILN9__gnu_cxx12_Lock_policyE2EEC2IPN7testing8internal26ParameterizedTestSuiteInfoI21RXRotateInsertFixtureE8TestInfoEEET_
FN:592,_ZNSt14__shared_countILN9__gnu_cxx12_Lock_policyE2EEC2IPN7testing8internal26ParameterizedTestSuiteInfoI21LXRotateInsertFixtureE8TestInfoEEET_
FNDA:3,_ZNSt14__shared_countILN9__gnu_cxx12_Lock_policyE2EEC2IPN7testing8internal26ParameterizedTestSuiteInfoI21LXRotateInsertFixtureE8TestInfoEEET_
FN:606,_ZNSt14__shared_countILN9__gnu_cxx12_Lock_policyE2EEC2IPN7testing8internal26ParameterizedTestSuiteInfoI21LXRotateInsertFixtureE8TestInfoEEET_St17integral_constantIbLb0EE
FNDA:3,_ZNSt14__shared_countILN9__gnu_cxx12_Lock_policyE2EEC2IPN7testing8internal26ParameterizedTestSuiteInfoI21LXRotateInsertFixtureE8TestInfoEEET_St17integral_constantIbLb0EE
FN:606,_ZNSt14__shared_countILN9__gnu_cxx12_Lock_policyE2EEC2IPN7testing8internal23ParamGeneratorInterfaceISt5tupleIJiiiEEEEEET_St17integral_constantIbLb0EE
FNDA:9,_ZNSt14__shared_countILN9__gnu_cxx12_Lock_policyE2EEC2IPN7testing8internal23ParamGeneratorInterfaceISt5tupleIJiiiEEEEEET_St17integral_constantIbLb0EE
FN:606,_ZNSt14__shared_countILN9__gnu_cxx12_Lock_policyE2EEC2IPN7testing8internal23ParamGeneratorInterfaceISt5tupleIJiiEEEEEET_St17integral_constantIbLb0EE
FNDA:9,_ZNSt14__shared_countILN9__gnu_cxx12_Lock_policyE2EEC2IPN7testing8internal23ParamGeneratorInterfaceISt5tupleIJiiEEEEEET_St17integral_constantIbLb0EE
FN:606,_ZNSt14__shared_countILN9__gnu_cxx12_Lock_policyE2EEC2IPN7testing8internal26ParameterizedTestSuiteInfoI11FindFixtureE8TestInfoEEET_St17integral_constantIbLb0EE
FNDA:3,_ZNSt14__shared_countILN9__gnu_cxx12_Lock_policyE2EEC2IPN7testing8internal26ParameterizedTestSuiteInfoI11FindFixtureE8TestInfoEEET_St17integral_constantIbLb0EE
FN:606,_ZNSt14__shared_countILN9__gnu_cxx12_Lock_policyE2EEC2IPN7testing8internal26ParameterizedTestSuiteInfoI11RankFixtureE8TestInfoEEET_St17integral_constantIbLb0EE
FNDA:3,_ZNSt14__shared_countILN9__gnu_cxx12_Lock_policyE2EEC2IPN7testing8internal26ParameterizedTestSuiteInfoI11RankFixtureE8TestInfoEEET_St17integral_constantIbLb0EE
FN:606,_ZNSt14__shared_countILN9__gnu_cxx12_Lock_policyE2EEC2IPN7testing8internal26ParameterizedTestSuiteInfoI14MaximumFixtureE8TestInfoEEET_St17integral_constantIbLb0EE
FNDA:3,_ZNSt14__shared_countILN9__gnu_cxx12_Lock_policyE2EEC2IPN7testing8internal26ParameterizedTestSuiteInfoI14MaximumFixtureE8TestInfoEEET_St17integral_constantIbLb0EE
FN:606,_ZNSt14__shared_countILN9__gnu_cxx12_Lock_policyE2EEC2IPN7testing8internal26ParameterizedTestSuiteInfoI14MinimumFixtureE8TestInfoEEET_St17integral_constantIbLb0EE
FNDA:3,_ZNSt14__shared_countILN9__gnu_cxx12_Lock_policyE2EEC2IPN7testing8internal26ParameterizedTestSuiteInfoI14MinimumFixtureE8TestInfoEEET_St17integral_constantIbLb0EE
FN:606,_ZNSt14__shared_countILN9__gnu_cxx12_Lock_policyE2EEC2IPN7testing8internal26ParameterizedTestSuiteInfoI21RXRotateInsertFixtureE8TestInfoEEET_St17integral_constantIbLb0EE
FNDA:3,_ZNSt14__shared_countILN9__gnu_cxx12_Lock_policyE2EEC2IPN7testing8internal26ParameterizedTestSuiteInfoI21RXRotateInsertFixtureE8TestInfoEEET_St17integral_constantIbLb0EE
FN:702,_ZNSt14__shared_countILN9__gnu_cxx12_Lock_policyE2EED2Ev
FNDA:72,_ZNSt14__shared_countILN9__gnu_cxx12_Lock_policyE2EED2Ev
FN:708,_ZNSt14__shared_countILN9__gnu_cxx12_Lock_policyE2EEC2ERKS2_
FNDA:18,_ZNSt14__shared_countILN9__gnu_cxx12_Lock_policyE2EEC2ERKS2_
FN:731,_ZNSt14__shared_countILN9__gnu_cxx12_Lock_policyE2EE7_M_swapERS2_
FNDA:18,_ZNSt14__shared_countILN9__gnu_cxx12_Lock_policyE2EE7_M_swapERS2_
FN:984,_ZNKSt19__shared_ptr_accessIN7testing8internal26ParameterizedTestSuiteInfoI21LXRotateInsertFixtureE8TestInfoELN9__gnu_cxx12_Lock_policyE2ELb0ELb0EEptEv
FNDA:27,_ZNKSt19__shared_ptr_accessIN7testing8internal26ParameterizedTestSuiteInfoI21LXRotateInsertFixtureE8TestInfoELN9__gnu_cxx12_Lock_policyE2ELb0ELb0EEptEv
FN:984,_ZNKSt19__shared_ptr_accessIN7testing8internal26ParameterizedTestSuiteInfoI21RXRotateInsertFixtureE8TestInfoELN9__gnu_cxx12_Lock_policyE2ELb0ELb0EEptEv
FNDA:27,_ZNKSt19__shared_ptr_accessIN7testing8internal26ParameterizedTestSuiteInfoI21RXRotateInsertFixtureE8TestInfoELN9__gnu_cxx12_Lock_policyE2ELb0ELb0EEptEv
FN:984,_ZNKSt19__shared_ptr_accessIN7testing8internal26ParameterizedTestSuiteInfoI14MinimumFixtureE8TestInfoELN9__gnu_cxx12_Lock_policyE2ELb0ELb0EEptEv
FNDA:459,_ZNKSt19__shared_ptr_accessIN7testing8internal26ParameterizedTestSuiteInfoI14MinimumFixtureE8TestInfoELN9__gnu_cxx12_Lock_policyE2ELb0ELb0EEptEv
FN:984,_ZNKSt19__shared_ptr_accessIN7testing8internal26ParameterizedTestSuiteInfoI14MaximumFixtureE8TestInfoELN9__gnu_cxx12_Lock_policyE2ELb0ELb0EEptEv
FNDA:459,_ZNKSt19__shared_ptr_accessIN7testing8internal26ParameterizedTestSuiteInfoI14MaximumFixtureE8TestInfoELN9__gnu_cxx12_Lock_policyE2ELb0ELb0EEptEv
FN:984,_ZNKSt19__shared_ptr_accessIKN7testing8internal23ParamGeneratorInterfaceISt5tupleIJiiEEEELN9__gnu_cxx12_Lock_policyE2ELb0ELb0EEptEv
FNDA:144,_ZNKSt19__shared_ptr_accessIKN7testing8internal23ParamGeneratorInterfaceISt5tupleIJiiEEEELN9__gnu_cxx12_Lock_policyE2ELb0ELb0EEptEv
FN:984,_ZNKSt19__shared_ptr_accessIN7testing8internal26ParameterizedTestSuiteInfoI11RankFixtureE8TestInfoELN9__gnu_cxx12_Lock_policyE2ELb0ELb0EEptEv
FNDA:459,_ZNKSt19__shared_ptr_accessIN7testing8internal26ParameterizedTestSuiteInfoI11RankFixtureE8TestInfoELN9__gnu_cxx12_Lock_policyE2ELb0ELb0EEptEv
FN:984,_ZNKSt19__shared_ptr_accessIKN7testing8internal23ParamGeneratorInterfaceISt5tupleIJiiiEEEELN9__gnu_cxx12_Lock_policyE2ELb0ELb0EEptEv
FNDA:360,_ZNKSt19__shared_ptr_accessIKN7testing8internal23ParamGeneratorInterfaceISt5tupleIJiiiEEEELN9__gnu_cxx12_Lock_policyE2ELb0ELb0EEptEv
FN:984,_ZNKSt19__shared_ptr_accessIN7testing8internal26ParameterizedTestSuiteInfoI11FindFixtureE8TestInfoELN9__gnu_cxx12_Lock_policyE2ELb0ELb0EEptEv
FNDA:459,_ZNKSt19__shared_ptr_accessIN7testing8internal26ParameterizedTestSuiteInfoI11FindFixtureE8TestInfoELN9__gnu_cxx12_Lock_policyE2ELb0ELb0EEptEv
FN:992,_ZNKSt19__shared_ptr_accessIN7testing8internal26ParameterizedTestSuiteInfoI14MaximumFixtureE8TestInfoELN9__gnu_cxx12_Lock_policyE2ELb0ELb0EE6_M_getEv
FNDA:459,_ZNKSt19__shared_ptr_accessIN7testing8internal26ParameterizedTestSuiteInfoI14MaximumFixtureE8TestInfoELN9__gnu_cxx12_Lock_policyE2ELb0ELb0EE6_M_getEv
FN:992,_ZNKSt19__shared_ptr_accessIN7testing8internal26ParameterizedTestSuiteInfoI14MinimumFixtureE8TestInfoELN9__gnu_cxx12_Lock_policyE2ELb0ELb0EE6_M_getEv
FNDA:459,_ZNKSt19__shared_ptr_accessIN7testing8internal26ParameterizedTestSuiteInfoI14MinimumFixtureE8TestInfoELN9__gnu_cxx12_Lock_policyE2ELb0ELb0EE6_M_getEv
FN:992,_ZNKSt19__shared_ptr_accessIN7testing8internal26ParameterizedTestSuiteInfoI21RXRotateInsertFixtureE8TestInfoELN9__gnu_cxx12_Lock_policyE2ELb0ELb0EE6_M_getEv
FNDA:27,_ZNKSt19__shared_ptr_accessIN7testing8internal26ParameterizedTestSuiteInfoI21RXRotateInsertFixtureE8TestInfoELN9__gnu_cxx12_Lock_policyE2ELb0ELb0EE6_M_getEv
FN:992,_ZNKSt19__shared_ptr_accessIN7testing8internal26ParameterizedTestSuiteInfoI21LXRotateInsertFixtureE8TestInfoELN9__gnu_cxx12_Lock_policyE2ELb0ELb0EE6_M_getEv
FNDA:27,_ZNKSt19__shared_ptr_accessIN7testing8internal26ParameterizedTestSuiteInfoI21LXRotateInsertFixtureE8TestInfoELN9__gnu_cxx12_Lock_policyE2ELb0ELb0EE6_M_getEv
FN:992,_ZNKSt19__shared_ptr_accessIKN7testing8internal23ParamGeneratorInterfaceISt5tupleIJiiEEEELN9__gnu_cxx12_Lock_policyE2ELb0ELb0EE6_M_getEv
FNDA:144,_ZNKSt19__shared_ptr_accessIKN7testing8internal23ParamGeneratorInterfaceISt5tupleIJiiEEEELN9__gnu_cxx12_Lock_policyE2ELb0ELb0EE6_M_getEv
FN:992,_ZNKSt19__shared_ptr_accessIKN7testing8internal23ParamGeneratorInterfaceISt5tupleIJiiiEEEELN9__gnu_cxx12_Lock_policyE2ELb0ELb0EE6_M_getEv
FNDA:360,_ZNKSt19__shared_ptr_accessIKN7testing8internal23ParamGeneratorInterfaceISt5tupleIJiiiEEEELN9__gnu_cxx12_Lock_policyE2ELb0ELb0EE6_M_getEv
FN:992,_ZNKSt19__shared_ptr_accessIN7testing8internal26ParameterizedTestSuiteInfoI11RankFixtureE8TestInfoELN9__gnu_cxx12_Lock_policyE2ELb0ELb0EE6_M_getEv
FNDA:459,_ZNKSt19__shared_ptr_accessIN7testing8internal26ParameterizedTestSuiteInfoI11RankFixtureE8TestInfoELN9__gnu_cxx12_Lock_policyE2ELb0ELb0EE6_M_getEv
FN:992,_ZNKSt19__shared_ptr_accessIN7testing8internal26ParameterizedTestSuiteInfoI11FindFixtureE8TestInfoELN9__gnu_cxx12_Lock_policyE2ELb0ELb0EE6_M_getEv
FNDA:459,_ZNKSt19__shared_ptr_accessIN7testing8internal26ParameterizedTestSuiteInfoI11FindFixtureE8TestInfoELN9__gnu_cxx12_Lock_policyE2ELb0ELb0EE6_M_getEv
FN:1098,_ZNSt12__shared_ptrIN7testing8internal26ParameterizedTestSuiteInfoI14MinimumFixtureE8TestInfoELN9__gnu_cxx12_Lock_policyE2EEC2IS5_vEEPT_
FNDA:3,_ZNSt12__shared_ptrIN7testing8internal26ParameterizedTestSuiteInfoI14MinimumFixtureE8TestInfoELN9__gnu_cxx12_Lock_policyE2EEC2IS5_vEEPT_
FN:1098,_ZNSt12__shared_ptrIN7testing8internal26ParameterizedTestSuiteInfoI11FindFixtureE8TestInfoELN9__gnu_cxx12_Lock_policyE2EEC2IS5_vEEPT_
FNDA:3,_ZNSt12__shared_ptrIN7testing8internal26ParameterizedTestSuiteInfoI11FindFixtureE8TestInfoELN9__gnu_cxx12_Lock_policyE2EEC2IS5_vEEPT_
FN:1098,_ZNSt12__shared_ptrIN7testing8internal26ParameterizedTestSuiteInfoI11RankFixtureE8TestInfoELN9__gnu_cxx12_Lock_policyE2EEC2IS5_vEEPT_
FNDA:3,_ZNSt12__shared_ptrIN7testing8internal26ParameterizedTestSuiteInfoI11RankFixtureE8TestInfoELN9__gnu_cxx12_Lock_policyE2EEC2IS5_vEEPT_
FN:1098,_ZNSt12__shared_ptrIN7testing8internal26ParameterizedTestSuiteInfoI14MaximumFixtureE8TestInfoELN9__gnu_cxx12_Lock_policyE2EEC2IS5_vEEPT_
FNDA:3,_ZNSt12__shared_ptrIN7testing8internal26ParameterizedTestSuiteInfoI14MaximumFixtureE8TestInfoELN9__gnu_cxx12_Lock_policyE2EEC2IS5_vEEPT_
FN:1098,_ZNSt12__shared_ptrIN7testing8internal26ParameterizedTestSuiteInfoI21LXRotateInsertFixtureE8TestInfoELN9__gnu_cxx12_Lock_policyE2EEC2IS5_vEEPT_
FNDA:3,_ZNSt12__shared_ptrIN7testing8internal26ParameterizedTestSuiteInfoI21LXRotateInsertFixtureE8TestInfoELN9__gnu_cxx12_Lock_policyE2EEC2IS5_vEEPT_
FN:1098,_ZNSt12__shared_ptrIN7testing8internal26ParameterizedTestSuiteInfoI21RXRotateInsertFixtureE8TestInfoELN9__gnu_cxx12_Lock_policyE2EEC2IS5_vEEPT_
FNDA:3,_ZNSt12__shared_ptrIN7testing8internal26ParameterizedTestSuiteInfoI21RXRotateInsertFixtureE8TestInfoELN9__gnu_cxx12_Lock_policyE2EEC2IS5_vEEPT_
FN:1098,_ZNSt12__shared_ptrIKN7testing8internal23ParamGeneratorInterfaceISt5tupleIJiiEEEELN9__gnu_cxx12_Lock_policyE2EEC2IS5_vEEPT_
FNDA:9,_ZNSt12__shared_ptrIKN7testing8internal23ParamGeneratorInterfaceISt5tupleIJiiEEEELN9__gnu_cxx12_Lock_policyE2EEC2IS5_vEEPT_
FN:1098,_ZNSt12__shared_ptrIKN7testing8internal23ParamGeneratorInterfaceISt5tupleIJiiiEEEELN9__gnu_cxx12_Lock_policyE2EEC2IS5_vEEPT_
FNDA:9,_ZNSt12__shared_ptrIKN7testing8internal23ParamGeneratorInterfaceISt5tupleIJiiiEEEELN9__gnu_cxx12_Lock_policyE2EEC2IS5_vEEPT_
FN:1152,_ZNSt12__shared_ptrIN7testing8internal26ParameterizedTestSuiteInfoI21LXRotateInsertFixtureE8TestInfoELN9__gnu_cxx12_Lock_policyE2EEC2ERKS8_
FNDA:3,_ZNSt12__shared_ptrIN7testing8internal26ParameterizedTestSuiteInfoI21LXRotateInsertFixtureE8TestInfoELN9__gnu_cxx12_Lock_policyE2EEC2ERKS8_
FN:1152,_ZNSt12__shared_ptrIN7testing8internal26ParameterizedTestSuiteInfoI21RXRotateInsertFixtureE8TestInfoELN9__gnu_cxx12_Lock_policyE2EEC2ERKS8_
FNDA:3,_ZNSt12__shared_ptrIN7testing8internal26ParameterizedTestSuiteInfoI21RXRotateInsertFixtureE8TestInfoELN9__gnu_cxx12_Lock_policyE2EEC2ERKS8_
FN:1152,_ZNSt12__shared_ptrIN7testing8internal26ParameterizedTestSuiteInfoI11RankFixtureE8TestInfoELN9__gnu_cxx12_Lock_policyE2EEC2ERKS8_
FNDA:3,_ZNSt12__shared_ptrIN7testing8internal26ParameterizedTestSuiteInfoI11RankFixtureE8TestInfoELN9__gnu_cxx12_Lock_policyE2EEC2ERKS8_
FN:1152,_ZNSt12__shared_ptrIN7testing8internal26ParameterizedTestSuiteInfoI14MaximumFixtureE8TestInfoELN9__gnu_cxx12_Lock_policyE2EEC2ERKS8_
FNDA:3,_ZNSt12__shared_ptrIN7testing8internal26ParameterizedTestSuiteInfoI14MaximumFixtureE8TestInfoELN9__gnu_cxx12_Lock_policyE2EEC2ERKS8_
FN:1152,_ZNSt12__shared_ptrIN7testing8internal26ParameterizedTestSuiteInfoI11FindFixtureE8TestInfoELN9__gnu_cxx12_Lock_policyE2EEC2ERKS8_
FNDA:3,_ZNSt12__shared_ptrIN7testing8internal26ParameterizedTestSuiteInfoI11FindFixtureE8TestInfoELN9__gnu_cxx12_Lock_policyE2EEC2ERKS8_
FN:1152,_ZNSt12__shared_ptrIN7testing8internal26ParameterizedTestSuiteInfoI14MinimumFixtureE8TestInfoELN9__gnu_cxx12_Lock_policyE2EEC2ERKS8_
FNDA:3,_ZNSt12__shared_ptrIN7testing8internal26ParameterizedTestSuiteInfoI14MinimumFixtureE8TestInfoELN9__gnu_cxx12_Lock_policyE2EEC2ERKS8_
FN:1154,_ZNSt12__shared_ptrIKN7testing8internal23ParamGeneratorInterfaceISt5tupleIJiiiEEEELN9__gnu_cxx12_Lock_policyE2EED2Ev
FNDA:9,_ZNSt12__shared_ptrIKN7testing8internal23ParamGeneratorInterfaceISt5tupleIJiiiEEEELN9__gnu_cxx12_Lock_policyE2EED2Ev
FN:1154,_ZNSt12__shared_ptrIKN7testing8internal23ParamGeneratorInterfaceISt5tupleIJiiEEEELN9__gnu_cxx12_Lock_policyE2EED2Ev
FNDA:9,_ZNSt12__shared_ptrIKN7testing8internal23ParamGeneratorInterfaceISt5tupleIJiiEEEELN9__gnu_cxx12_Lock_policyE2EED2Ev
FN:1154,_ZNSt12__shared_ptrIN7testing8internal26ParameterizedTestSuiteInfoI21LXRotateInsertFixtureE8TestInfoELN9__gnu_cxx12_Lock_policyE2EED2Ev
FNDA:9,_ZNSt12__shared_ptrIN7testing8internal26ParameterizedTestSuiteInfoI21LXRotateInsertFixtureE8TestInfoELN9__gnu_cxx12_Lock_policyE2EED2Ev
FN:1154,_ZNSt12__shared_ptrIN7testing8internal26ParameterizedTestSuiteInfoI21RXRotateInsertFixtureE8TestInfoELN9__gnu_cxx12_Lock_policyE2EED2Ev
FNDA:9,_ZNSt12__shared_ptrIN7testing8internal26ParameterizedTestSuiteInfoI21RXRotateInsertFixtureE8TestInfoELN9__gnu_cxx12_Lock_policyE2EED2Ev
FN:1154,_ZNSt12__shared_ptrIN7testing8internal26ParameterizedTestSuiteInfoI14MinimumFixtureE8TestInfoELN9__gnu_cxx12_Lock_policyE2EED2Ev
FNDA:9,_ZNSt12__shared_ptrIN7testing8internal26ParameterizedTestSuiteInfoI14MinimumFixtureE8TestInfoELN9__gnu_cxx12_Lock_policyE2EED2Ev
FN:1154,_ZNSt12__shared_ptrIN7testing8internal26ParameterizedTestSuiteInfoI11RankFixtureE8TestInfoELN9__gnu_cxx12_Lock_policyE2EED2Ev
FNDA:9,_ZNSt12__shared_ptrIN7testing8internal26ParameterizedTestSuiteInfoI11RankFixtureE8TestInfoELN9__gnu_cxx12_Lock_policyE2EED2Ev
FN:1154,_ZNSt12__shared_ptrIN7testing8internal26ParameterizedTestSuiteInfoI14MaximumFixtureE8TestInfoELN9__gnu_cxx12_Lock_policyE2EED2Ev
FNDA:9,_ZNSt12__shared_ptrIN7testing8internal26ParameterizedTestSuiteInfoI14MaximumFixtureE8TestInfoELN9__gnu_cxx12_Lock_policyE2EED2Ev
FN:1154,_ZNSt12__shared_ptrIN7testing8internal26ParameterizedTestSuiteInfoI11FindFixtureE8TestInfoELN9__gnu_cxx12_Lock_policyE2EED2Ev
FNDA:9,_ZNSt12__shared_ptrIN7testing8internal26ParameterizedTestSuiteInfoI11FindFixtureE8TestInfoELN9__gnu_cxx12_Lock_policyE2EED2Ev
FN:1161,_ZNSt12__shared_ptrIN7testing8internal26ParameterizedTestSuiteInfoI21LXRotateInsertFixtureE8TestInfoELN9__gnu_cxx12_Lock_policyE2EEC2EOS8_
FNDA:3,_ZNSt12__shared_ptrIN7testing8internal26ParameterizedTestSuiteInfoI21LXRotateInsertFixtureE8TestInfoELN9__gnu_cxx12_Lock_policyE2EEC2EOS8_
FN:1161,_ZNSt12__shared_ptrIN7testing8internal26ParameterizedTestSuiteInfoI21RXRotateInsertFixtureE8TestInfoELN9__gnu_cxx12_Lock_policyE2EEC2EOS8_
FNDA:3,_ZNSt12__shared_ptrIN7testing8internal26ParameterizedTestSuiteInfoI21RXRotateInsertFixtureE8TestInfoELN9__gnu_cxx12_Lock_policyE2EEC2EOS8_
FN:1161,_ZNSt12__shared_ptrIN7testing8internal26ParameterizedTestSuiteInfoI14MinimumFixtureE8TestInfoELN9__gnu_cxx12_Lock_policyE2EEC2EOS8_
FNDA:3,_ZNSt12__shared_ptrIN7testing8internal26ParameterizedTestSuiteInfoI14MinimumFixtureE8TestInfoELN9__gnu_cxx12_Lock_policyE2EEC2EOS8_
FN:1161,_ZNSt12__shared_ptrIN7testing8internal26ParameterizedTestSuiteInfoI14MaximumFixtureE8TestInfoELN9__gnu_cxx12_Lock_policyE2EEC2EOS8_
FNDA:3,_ZNSt12__shared_ptrIN7testing8internal26ParameterizedTestSuiteInfoI14MaximumFixtureE8TestInfoELN9__gnu_cxx12_Lock_policyE2EEC2EOS8_
FN:1161,_ZNSt12__shared_ptrIN7testing8internal26ParameterizedTestSuiteInfoI11RankFixtureE8TestInfoELN9__gnu_cxx12_Lock_policyE2EEC2EOS8_
FNDA:3,_ZNSt12__shared_ptrIN7testing8internal26ParameterizedTestSuiteInfoI11RankFixtureE8TestInfoELN9__gnu_cxx12_Lock_policyE2EEC2EOS8_
FN:1161,_ZNSt12__shared_ptrIN7testing8internal26ParameterizedTestSuiteInfoI11FindFixtureE8TestInfoELN9__gnu_cxx12_Lock_policyE2EEC2EOS8_
FNDA:3,_ZNSt12__shared_ptrIN7testing8internal26ParameterizedTestSuiteInfoI11FindFixtureE8TestInfoELN9__gnu_cxx12_Lock_policyE2EEC2EOS8_
FN:1295,_ZNKSt12__shared_ptrIKN7testing8internal23ParamGeneratorInterfaceISt5tupleIJiiiEEEELN9__gnu_cxx12_Lock_policyE2EE3getEv
FNDA:360,_ZNKSt12__shared_ptrIKN7testing8internal23ParamGeneratorInterfaceISt5tupleIJiiiEEEELN9__gnu_cxx12_Lock_policyE2EE3getEv
FN:1295,_ZNKSt12__shared_ptrIKN7testing8internal23ParamGeneratorInterfaceISt5tupleIJiiEEEELN9__gnu_cxx12_Lock_policyE2EE3getEv
FNDA:144,_ZNKSt12__shared_ptrIKN7testing8internal23ParamGeneratorInterfaceISt5tupleIJiiEEEELN9__gnu_cxx12_Lock_policyE2EE3getEv
FN:1295,_ZNKSt12__shared_ptrIN7testing8internal26ParameterizedTestSuiteInfoI21LXRotateInsertFixtureE8TestInfoELN9__gnu_cxx12_Lock_policyE2EE3getEv
FNDA:27,_ZNKSt12__shared_ptrIN7testing8internal26ParameterizedTestSuiteInfoI21LXRotateInsertFixtureE8TestInfoELN9__gnu_cxx12_Lock_policyE2EE3getEv
FN:1295,_ZNKSt12__shared_ptrIN7testing8internal26ParameterizedTestSuiteInfoI21RXRotateInsertFixtureE8TestInfoELN9__gnu_cxx12_Lock_policyE2EE3getEv
FNDA:27,_ZNKSt12__shared_ptrIN7testing8internal26ParameterizedTestSuiteInfoI21RXRotateInsertFixtureE8TestInfoELN9__gnu_cxx12_Lock_policyE2EE3getEv
FN:1295,_ZNKSt12__shared_ptrIN7testing8internal26ParameterizedTestSuiteInfoI14MinimumFixtureE8TestInfoELN9__gnu_cxx12_Lock_policyE2EE3getEv
FNDA:459,_ZNKSt12__shared_ptrIN7testing8internal26ParameterizedTestSuiteInfoI14MinimumFixtureE8TestInfoELN9__gnu_cxx12_Lock_policyE2EE3getEv
FN:1295,_ZNKSt12__shared_ptrIN7testing8internal26ParameterizedTestSuiteInfoI14MaximumFixtureE8TestInfoELN9__gnu_cxx12_Lock_policyE2EE3getEv
FNDA:459,_ZNKSt12__shared_ptrIN7testing8internal26ParameterizedTestSuiteInfoI14MaximumFixtureE8TestInfoELN9__gnu_cxx12_Lock_policyE2EE3getEv
FN:1295,_ZNKSt12__shared_ptrIN7testing8internal26ParameterizedTestSuiteInfoI11RankFixtureE8TestInfoELN9__gnu_cxx12_Lock_policyE2EE3getEv
FNDA:459,_ZNKSt12__shared_ptrIN7testing8internal26ParameterizedTestSuiteInfoI11RankFixtureE8TestInfoELN9__gnu_cxx12_Lock_policyE2EE3getEv
FN:1295,_ZNKSt12__shared_ptrIN7testing8internal26ParameterizedTestSuiteInfoI11FindFixtureE8TestInfoELN9__gnu_cxx12_Lock_policyE2EE3getEv
FNDA:459,_ZNKSt12__shared_ptrIN7testing8internal26ParameterizedTestSuiteInfoI11FindFixtureE8TestInfoELN9__gnu_cxx12_Lock_policyE2EE3getEv
FN:1386,_ZNSt12__shared_ptrIKN7testing8internal23ParamGeneratorInterfaceISt5tupleIJiiiEEEELN9__gnu_cxx12_Lock_policyE2EE31_M_enable_shared_from_this_withIS5_S5_EENSt9enable_ifIXntsrNS9_15__has_esft_baseIT0_vEE5valueEvE4typeEPT_
FNDA:9,_ZNSt12__shared_ptrIKN7testing8internal23ParamGeneratorInterfaceISt5tupleIJiiiEEEELN9__gnu_cxx12_Lock_policyE2EE31_M_enable_shared_from_this_withIS5_S5_EENSt9enable_ifIXntsrNS9_15__has_esft_baseIT0_vEE5valueEvE4typeEPT_
FN:1386,_ZNSt12__shared_ptrIKN7testing8internal23ParamGeneratorInterfaceISt5tupleIJiiEEEELN9__gnu_cxx12_Lock_policyE2EE31_M_enable_shared_from_this_withIS5_S5_EENSt9enable_ifIXntsrNS9_15__has_esft_baseIT0_vEE5valueEvE4typeEPT_
FNDA:9,_ZNSt12__shared_ptrIKN7testing8internal23ParamGeneratorInterfaceISt5tupleIJiiEEEELN9__gnu_cxx12_Lock_policyE2EE31_M_enable_shared_from_this_withIS5_S5_EENSt9enable_ifIXntsrNS9_15__has_esft_baseIT0_vEE5valueEvE4typeEPT_
FN:1386,_ZNSt12__shared_ptrIN7testing8internal26ParameterizedTestSuiteInfoI11FindFixtureE8TestInfoELN9__gnu_cxx12_Lock_policyE2EE31_M_enable_shared_from_this_withIS5_S5_EENSt9enable_ifIXntsrNS8_15__has_esft_baseIT0_vEE5valueEvE4typeEPT_
FNDA:3,_ZNSt12__shared_ptrIN7testing8internal26ParameterizedTestSuiteInfoI11FindFixtureE8TestInfoELN9__gnu_cxx12_Lock_policyE2EE31_M_enable_shared_from_this_withIS5_S5_EENSt9enable_ifIXntsrNS8_15__has_esft_baseIT0_vEE5valueEvE4typeEPT_
FN:1386,_ZNSt12__shared_ptrIN7testing8internal26ParameterizedTestSuiteInfoI11RankFixtureE8TestInfoELN9__gnu_cxx12_Lock_policyE2EE31_M_enable_shared_from_this_withIS5_S5_EENSt9enable_ifIXntsrNS8_15__has_esft_baseIT0_vEE5valueEvE4typeEPT_
FNDA:3,_ZNSt12__shared_ptrIN7testing8internal26ParameterizedTestSuiteInfoI11RankFixtureE8TestInfoELN9__gnu_cxx12_Lock_policyE2EE31_M_enable_shared_from_this_withIS5_S5_EENSt9enable_ifIXntsrNS8_15__has_esft_baseIT0_vEE5valueEvE4typeEPT_
FN:1386,_ZNSt12__shared_ptrIN7testing8internal26ParameterizedTestSuiteInfoI14MaximumFixtureE8TestInfoELN9__gnu_cxx12_Lock_policyE2EE31_M_enable_shared_from_this_withIS5_S5_EENSt9enable_ifIXntsrNS8_15__has_esft_baseIT0_vEE5valueEvE4typeEPT_
FNDA:3,_ZNSt12__shared_ptrIN7testing8internal26ParameterizedTestSuiteInfoI14MaximumFixtureE8TestInfoELN9__gnu_cxx12_Lock_policyE2EE31_M_enable_shared_from_this_withIS5_S5_EENSt9enable_ifIXntsrNS8_15__has_esft_baseIT0_vEE5valueEvE4typeEPT_
FN:1386,_ZNSt12__shared_ptrIN7testing8internal26ParameterizedTestSuiteInfoI14MinimumFixtureE8TestInfoELN9__gnu_cxx12_Lock_policyE2EE31_M_enable_shared_from_this_withIS5_S5_EENSt9enable_ifIXntsrNS8_15__has_esft_baseIT0_vEE5valueEvE4typeEPT_
FNDA:3,_ZNSt12__shared_ptrIN7testing8internal26ParameterizedTestSuiteInfoI14MinimumFixtureE8TestInfoELN9__gnu_cxx12_Lock_policyE2EE31_M_enable_shared_from_this_withIS5_S5_EENSt9enable_ifIXntsrNS8_15__has_esft_baseIT0_vEE5valueEvE4typeEPT_
FN:1386,_ZNSt12__shared_ptrIN7testing8internal26ParameterizedTestSuiteInfoI21RXRotateInsertFixtureE8TestInfoELN9__gnu_cxx12_Lock_policyE2EE31_M_enable_shared_from_this_withIS5_S5_EENSt9enable_ifIXntsrNS8_15__has_esft_baseIT0_vEE5valueEvE4typeEPT_
FNDA:3,_ZNSt12__shared_ptrIN7testing8internal26ParameterizedTestSuiteInfoI21RXRotateInsertFixtureE8TestInfoELN9__gnu_cxx12_Lock_policyE2EE31_M_enable_shared_from_this_withIS5_S5_EENSt9enable_ifIXntsrNS8_15__has_esft_baseIT0_vEE5valueEvE4typeEPT_
FN:1386,_ZNSt12__shared_ptrIN7testing8internal26ParameterizedTestSuiteInfoI21LXRotateInsertFixtureE8TestInfoELN9__gnu_cxx12_Lock_policyE2EE31_M_enable_shared_from_this_withIS5_S5_EENSt9enable_ifIXntsrNS8_15__has_esft_baseIT0_vEE5valueEvE4typeEPT_
FNDA:3,_ZNSt12__shared_ptrIN7testing8internal26ParameterizedTestSuiteInfoI21LXRotateInsertFixtureE8TestInfoELN9__gnu_cxx12_Lock_policyE2EE31_M_enable_shared_from_this_withIS5_S5_EENSt9enable_ifIXntsrNS8_15__has_esft_baseIT0_vEE5valueEvE4typeEPT_
DA:126,36
DA:127,36
DA:130,0
DA:131,0
DA:130,36
DA:131,36
DA:140,0
DA:141,0
DA:147,18
DA:148,18
DA:161,54
DA:165,108
DA:168,36
DA:180,36
DA:181,36
DA:184,36
DA:187,54
DA:343,9
DA:344,9
DA:343,9
DA:344,9
DA:343,3
DA:344,3
DA:343,3
DA:344,3
DA:343,3
DA:344,3
DA:343,3
DA:344,3
DA:343,3
DA:344,3
DA:343,3
DA:344,3
DA:347,3
DA:348,3
DA:347,3
DA:348,3
DA:347,3
DA:348,3
DA:347,3
DA:348,3
DA:347,3
DA:348,3
DA:347,3
DA:348,3
DA:347,9
DA:348,9
DA:347,9
DA:348,9
DA:351,3
DA:352,3
DA:351,3
DA:352,3
DA:351,3
DA:352,3
DA:351,3
DA:352,3
DA:351,3
DA:352,3
DA:351,3
DA:352,3
DA:351,9
DA:352,9
DA:351,9
DA:352,9
DA:355,0
DA:356,0
DA:355,0
DA:356,0
DA:355,0
DA:356,0
DA:355,0
DA:356,0
DA:355,0
DA:356,0
DA:355,0
DA:356,0
DA:355,0
DA:356,0
DA:355,0
DA:356,0
DA:587,18
DA:588,18
DA:592,9
DA:596,9
DA:598,0
DA:600,0
DA:601,0
DA:603,9
DA:592,9
DA:596,9
DA:598,0
DA:600,0
DA:601,0
DA:603,9
DA:592,3
DA:596,3
DA:598,0
DA:600,0
DA:601,0
DA:603,3
DA:592,3
DA:596,3
DA:598,0
DA:600,0
DA:601,0
DA:603,3
DA:592,3
DA:596,3
DA:598,0
DA:600,0
DA:601,0
DA:603,3
DA:592,3
DA:596,3
DA:598,0
DA:600,0
DA:601,0
DA:603,3
DA:592,3
DA:596,3
DA:598,0
DA:600,0
DA:601,0
DA:603,3
DA:592,3
DA:596,3
DA:598,0
DA:600,0
DA:601,0
DA:603,3
DA:606,9
DA:607,9
DA:608,9
DA:606,9
DA:607,9
DA:608,9
DA:606,3
DA:607,3
DA:608,3
DA:606,3
DA:607,3
DA:608,3
DA:606,3
DA:607,3
DA:608,3
DA:606,3
DA:607,3
DA:608,3
DA:606,3
DA:607,3
DA:608,3
DA:606,3
DA:607,3
DA:608,3
DA:702,72
DA:704,72
DA:705,54
DA:706,72
DA:708,18
DA:709,18
DA:711,18
DA:712,18
DA:713,18
DA:731,18
DA:733,18
DA:734,18
DA:735,18
DA:736,18
DA:984,360
DA:987,360
DA:984,144
DA:987,144
DA:984,27
DA:987,27
DA:984,27
DA:987,27
DA:984,459
DA:987,459
DA:984,459
DA:987,459
DA:984,459
DA:987,459
DA:984,459
DA:987,459
DA:992,360
DA:993,360
DA:992,144
DA:993,144
DA:992,27
DA:993,27
DA:992,27
DA:993,27
DA:992,459
DA:993,459
DA:992,459
DA:993,459
DA:992,459
DA:993,459
DA:992,459
DA:993,459
DA:1098,9
DA:1099,9
DA:1103,9
DA:1104,9
DA:1098,9
DA:1099,9
DA:1103,9
DA:1104,9
DA:1098,3
DA:1099,3
DA:1103,3
DA:1104,3
DA:1098,3
DA:1099,3
DA:1103,3
DA:1104,3
DA:1098,3
DA:1099,3
DA:1103,3
DA:1104,3
DA:1098,3
DA:1099,3
DA:1103,3
DA:1104,3
DA:1098,3
DA:1099,3
DA:1103,3
DA:1104,3
DA:1098,3
DA:1099,3
DA:1103,3
DA:1104,3
DA:1152,3
DA:1152,3
DA:1152,3
DA:1152,3
DA:1152,3
DA:1152,3
DA:1154,9
DA:1154,9
DA:1154,9
DA:1154,9
DA:1154,9
DA:1154,9
DA:1154,9
DA:1154,9
DA:1161,3
DA:1162,3
DA:1164,3
DA:1165,3
DA:1166,3
DA:1161,3
DA:1162,3
DA:1164,3
DA:1165,3
DA:1166,3
DA:1161,3
DA:1162,3
DA:1164,3
DA:1165,3
DA:1166,3
DA:1161,3
DA:1162,3
DA:1164,3
DA:1165,3
DA:1166,3
DA:1161,3
DA:1162,3
DA:1164,3
DA:1165,3
DA:1166,3
DA:1161,3
DA:1162,3
DA:1164,3
DA:1165,3
DA:1166,3
DA:1295,360
DA:1296,360
DA:1295,144
DA:1296,144
DA:1295,27
DA:1296,27
DA:1295,27
DA:1296,27
DA:1295,459
DA:1296,459
DA:1295,459
DA:1296,459
DA:1295,459
DA:1296,459
DA:1295,459
DA:1296,459
DA:1386,9
DA:1387,9
DA:1386,9
DA:1387,9
DA:1386,3
DA:1387,3
DA:1386,3
DA:1387,3
DA:1386,3
DA:1387,3
DA:1386,3
DA:1387,3
DA:1386,3
DA:1387,3
DA:1386,3
DA:1387,3
end_of_record
SF:/usr/include/c++/11/ext/aligned_buffer.h
FN:64,_ZN9__gnu_cxx16__aligned_membufINSt7__cxx1112basic_stringIcSt11char_traitsIcESaIcEEEE7_M_addrEv
FNDA:936,_ZN9__gnu_cxx16__aligned_membufINSt7__cxx1112basic_stringIcSt11char_traitsIcESaIcEEEE7_M_addrEv
FN:68,_ZNK9__gnu_cxx16__aligned_membufINSt7__cxx1112basic_stringIcSt11char_traitsIcESaIcEEEE7_M_addrEv
FNDA:5952,_ZNK9__gnu_cxx16__aligned_membufINSt7__cxx1112basic_stringIcSt11char_traitsIcESaIcEEEE7_M_addrEv
FN:72,_ZN9__gnu_cxx16__aligned_membufINSt7__cxx1112basic_stringIcSt11char_traitsIcESaIcEEEE6_M_ptrEv
FNDA:936,_ZN9__gnu_cxx16__aligned_membufINSt7__cxx1112basic_stringIcSt11char_traitsIcESaIcEEEE6_M_ptrEv
FN:76,_ZNK9__gnu_cxx16__aligned_membufINSt7__cxx1112basic_stringIcSt11char_traitsIcESaIcEEEE6_M_ptrEv
FNDA:5952,_ZNK9__gnu_cxx16__aligned_membufINSt7__cxx1112basic_stringIcSt11char_traitsIcESaIcEEEE6_M_ptrEv
DA:64,936
DA:65,936
DA:68,5952
DA:69,5952
DA:72,936
DA:73,936
DA:76,5952
DA:77,5952
end_of_record
SF:/usr/include/c++/11/bits/stl_uninitialized.h
FN:85,_ZNSt20__uninitialized_copyILb0EE13__uninit_copyISt13move_iteratorIPSt10shared_ptrIN7testing8internal26ParameterizedTestSuiteInfoI11RankFixtureE8TestInfoEEESB_EET0_T_SE_SD_
FNDA:0,_ZNSt20__uninitialized_copyILb0EE13__uninit_copyISt13move_iteratorIPSt10shared_ptrIN7testing8internal26ParameterizedTestSuiteInfoI11RankFixtureE8TestInfoEEESB_EET0_T_SE_SD_
FN:85,_ZNSt20__uninitialized_copyILb0EE13__uninit_copyISt13move_iteratorIPN7testing8internal26ParameterizedTestSuiteInfoI14MinimumFixtureE17InstantiationInfoEES9_EET0_T_SC_SB_
FNDA:0,_ZNSt20__uninitialized_copyILb0EE13__uninit_copyISt13move_iteratorIPN7testing8internal26ParameterizedTestSuiteInfoI14MinimumFixtureE17InstantiationInfoEES9_EET0_T_SC_SB_
FN:85,_ZNSt20__uninitialized_copyILb0EE13__uninit_copyISt13move_iteratorIPN7testing8internal26ParameterizedTestSuiteInfoI14MaximumFixtureE17InstantiationInfoEES9_EET0_T_SC_SB_
FNDA:0,_ZNSt20__uninitialized_copyILb0EE13__uninit_copyISt13move_iteratorIPN7testing8internal26ParameterizedTestSuiteInfoI14MaximumFixtureE17InstantiationInfoEES9_EET0_T_SC_SB_
FN:85,_ZNSt20__uninitialized_copyILb0EE13__uninit_copyISt13move_iteratorIPN7testing8internal26ParameterizedTestSuiteInfoI11RankFixtureE17InstantiationInfoEES9_EET0_T_SC_SB_
FNDA:0,_ZNSt20__uninitialized_copyILb0EE13__uninit_copyISt13move_iteratorIPN7testing8internal26ParameterizedTestSuiteInfoI11RankFixtureE17InstantiationInfoEES9_EET0_T_SC_SB_
FN:85,_ZNSt20__uninitialized_copyILb0EE13__uninit_copyISt13move_iteratorIPN7testing8internal26ParameterizedTestSuiteInfoI21RXRotateInsertFixtureE17InstantiationInfoEES9_EET0_T_SC_SB_
FNDA:0,_ZNSt20__uninitialized_copyILb0EE13__uninit_copyISt13move_iteratorIPN7testing8internal26ParameterizedTestSuiteInfoI21RXRotateInsertFixtureE17InstantiationInfoEES9_EET0_T_SC_SB_
FN:85,_ZNSt20__uninitialized_copyILb0EE13__uninit_copyISt13move_iteratorIPN7testing8internal26ParameterizedTestSuiteInfoI11FindFixtureE17InstantiationInfoEES9_EET0_T_SC_SB_
FNDA:0,_ZNSt20__uninitialized_copyILb0EE13__uninit_copyISt13move_iteratorIPN7testing8internal26ParameterizedTestSuiteInfoI11FindFixtureE17InstantiationInfoEES9_EET0_T_SC_SB_
FN:85,_ZNSt20__uninitialized_copyILb0EE13__uninit_copyISt13move_iteratorIPN7testing8internal26ParameterizedTestSuiteInfoI21LXRotateInsertFixtureE17InstantiationInfoEES9_EET0_T_SC_SB_
FNDA:0,_ZNSt20__uninitialized_copyILb0EE13__uninit_copyISt13move_iteratorIPN7testing8internal26ParameterizedTestSuiteInfoI21LXRotateInsertFixtureE17InstantiationInfoEES9_EET0_T_SC_SB_
FN:85,_ZNSt20__uninitialized_copyILb0EE13__uninit_copyISt13move_iteratorIPSt10shared_ptrIN7testing8internal26ParameterizedTestSuiteInfoI21LXRotateInsertFixtureE8TestInfoEEESB_EET0_T_SE_SD_
FNDA:0,_ZNSt20__uninitialized_copyILb0EE13__uninit_copyISt13move_iteratorIPSt10shared_ptrIN7testing8internal26ParameterizedTestSuiteInfoI21LXRotateInsertFixtureE8TestInfoEEESB_EET0_T_SE_SD_
FN:85,_ZNSt20__uninitialized_copyILb0EE13__uninit_copyISt13move_iteratorIPSt10shared_ptrIN7testing8internal26ParameterizedTestSuiteInfoI21RXRotateInsertFixtureE8TestInfoEEESB_EET0_T_SE_SD_
FNDA:0,_ZNSt20__uninitialized_copyILb0EE13__uninit_copyISt13move_iteratorIPSt10shared_ptrIN7testing8internal26ParameterizedTestSuiteInfoI21RXRotateInsertFixtureE8TestInfoEEESB_EET0_T_SE_SD_
FN:85,_ZNSt20__uninitialized_copyILb0EE13__uninit_copyISt13move_iteratorIPSt10shared_ptrIN7testing8internal26ParameterizedTestSuiteInfoI14MinimumFixtureE8TestInfoEEESB_EET0_T_SE_SD_
FNDA:0,_ZNSt20__uninitialized_copyILb0EE13__uninit_copyISt13move_iteratorIPSt10shared_ptrIN7testing8internal26ParameterizedTestSuiteInfoI14MinimumFixtureE8TestInfoEEESB_EET0_T_SE_SD_
FN:85,_ZNSt20__uninitialized_copyILb0EE13__uninit_copyISt13move_iteratorIPSt10shared_ptrIN7testing8internal26ParameterizedTestSuiteInfoI14MaximumFixtureE8TestInfoEEESB_EET0_T_SE_SD_
FNDA:0,_ZNSt20__uninitialized_copyILb0EE13__uninit_copyISt13move_iteratorIPSt10shared_ptrIN7testing8internal26ParameterizedTestSuiteInfoI14MaximumFixtureE8TestInfoEEESB_EET0_T_SE_SD_
FN:85,_ZNSt20__uninitialized_copyILb0EE13__uninit_copyISt13move_iteratorIPSt10shared_ptrIN7testing8internal26ParameterizedTestSuiteInfoI11FindFixtureE8TestInfoEEESB_EET0_T_SE_SD_
FNDA:0,_ZNSt20__uninitialized_copyILb0EE13__uninit_copyISt13move_iteratorIPSt10shared_ptrIN7testing8internal26ParameterizedTestSuiteInfoI11FindFixtureE8TestInfoEEESB_EET0_T_SE_SD_
FN:85,_ZNSt20__uninitialized_copyILb0EE13__uninit_copyIN9__gnu_cxx17__normal_iteratorIPKSt5tupleIJiiEESt6vectorIS5_SaIS5_EEEEPS5_EET0_T_SE_SD_
FNDA:9,_ZNSt20__uninitialized_copyILb0EE13__uninit_copyIN9__gnu_cxx17__normal_iteratorIPKSt5tupleIJiiEESt6vectorIS5_SaIS5_EEEEPS5_EET0_T_SE_SD_
FN:85,_ZNSt20__uninitialized_copyILb0EE13__uninit_copyIPKSt5tupleIJiiiEEPS3_EET0_T_S8_S7_
FNDA:9,_ZNSt20__uninitialized_copyILb0EE13__uninit_copyIPKSt5tupleIJiiiEEPS3_EET0_T_S8_S7_
FN:85,_ZNSt20__uninitialized_copyILb0EE13__uninit_copyIN9__gnu_cxx17__normal_iteratorIPKSt5tupleIJiiiEESt6vectorIS5_SaIS5_EEEEPS5_EET0_T_SE_SD_
FNDA:9,_ZNSt20__uninitialized_copyILb0EE13__uninit_copyIN9__gnu_cxx17__normal_iteratorIPKSt5tupleIJiiiEESt6vectorIS5_SaIS5_EEEEPS5_EET0_T_SE_SD_
FN:85,_ZNSt20__uninitialized_copyILb0EE13__uninit_copyIPKSt5tupleIJiiEEPS3_EET0_T_S8_S7_
FNDA:9,_ZNSt20__uninitialized_copyILb0EE13__uninit_copyIPKSt5tupleIJiiEEPS3_EET0_T_S8_S7_
FN:108,_ZNSt20__uninitialized_copyILb1EE13__uninit_copyISt13move_iteratorIPPN7testing8internal30ParameterizedTestSuiteInfoBaseEES7_EET0_T_SA_S9_
FNDA:0,_ZNSt20__uninitialized_copyILb1EE13__uninit_copyISt13move_iteratorIPPN7testing8internal30ParameterizedTestSuiteInfoBaseEES7_EET0_T_SA_S9_
FN:126,_ZSt18uninitialized_copyISt13move_iteratorIPN7testing8internal26ParameterizedTestSuiteInfoI11FindFixtureE17InstantiationInfoEES7_ET0_T_SA_S9_
FNDA:0,_ZSt18uninitialized_copyISt13move_iteratorIPN7testing8internal26ParameterizedTestSuiteInfoI11FindFixtureE17InstantiationInfoEES7_ET0_T_SA_S9_
FN:126,_ZSt18uninitialized_copyISt13move_iteratorIPN7testing8internal26ParameterizedTestSuiteInfoI21LXRotateInsertFixtureE17InstantiationInfoEES7_ET0_T_SA_S9_
FNDA:0,_ZSt18uninitialized_copyISt13move_iteratorIPN7testing8internal26ParameterizedTestSuiteInfoI21LXRotateInsertFixtureE17InstantiationInfoEES7_ET0_T_SA_S9_
FN:126,_ZSt18uninitialized_copyIN9__gnu_cxx17__normal_iteratorIPKSt5tupleIJiiiEESt6vectorIS3_SaIS3_EEEEPS3_ET0_T_SC_SB_
FNDA:9,_ZSt18uninitialized_copyIN9__gnu_cxx17__normal_iteratorIPKSt5tupleIJiiiEESt6vectorIS3_SaIS3_EEEEPS3_ET0_T_SC_SB_
FN:126,_ZSt18uninitialized_copyISt13move_iteratorIPN7testing8internal26ParameterizedTestSuiteInfoI14MinimumFixtureE17InstantiationInfoEES7_ET0_T_SA_S9_
FNDA:0,_ZSt18uninitialized_copyISt13move_iteratorIPN7testing8internal26ParameterizedTestSuiteInfoI14MinimumFixtureE17InstantiationInfoEES7_ET0_T_SA_S9_
FN:126,_ZSt18uninitialized_copyISt13move_iteratorIPPN7testing8internal30ParameterizedTestSuiteInfoBaseEES5_ET0_T_S8_S7_
FNDA:0,_ZSt18uninitialized_copyISt13move_iteratorIPPN7testing8internal30ParameterizedTestSuiteInfoBaseEES5_ET0_T_S8_S7_
FN:126,_ZSt18uninitialized_copyISt13move_iteratorIPN7testing8internal26ParameterizedTestSuiteInfoI14MaximumFixtureE17InstantiationInfoEES7_ET0_T_SA_S9_
FNDA:0,_ZSt18uninitialized_copyISt13move_iteratorIPN7testing8internal26ParameterizedTestSuiteInfoI14MaximumFixtureE17InstantiationInfoEES7_ET0_T_SA_S9_
FN:126,_ZSt18uninitialized_copyISt13move_iteratorIPN7testing8internal26ParameterizedTestSuiteInfoI11RankFixtureE17InstantiationInfoEES7_ET0_T_SA_S9_
FNDA:0,_ZSt18uninitialized_copyISt13move_iteratorIPN7testing8internal26ParameterizedTestSuiteInfoI11RankFixtureE17InstantiationInfoEES7_ET0_T_SA_S9_
FN:126,_ZSt18uninitialized_copyISt13move_iteratorIPSt10shared_ptrIN7testing8internal26ParameterizedTestSuiteInfoI14MinimumFixtureE8TestInfoEEES9_ET0_T_SC_SB_
FNDA:0,_ZSt18uninitialized_copyISt13move_iteratorIPSt10shared_ptrIN7testing8internal26ParameterizedTestSuiteInfoI14MinimumFixtureE8TestInfoEEES9_ET0_T_SC_SB_
FN:126,_ZSt18uninitialized_copyIN9__gnu_cxx17__normal_iteratorIPKSt5tupleIJiiEESt6vectorIS3_SaIS3_EEEEPS3_ET0_T_SC_SB_
FNDA:9,_ZSt18uninitialized_copyIN9__gnu_cxx17__normal_iteratorIPKSt5tupleIJiiEESt6vectorIS3_SaIS3_EEEEPS3_ET0_T_SC_SB_
FN:126,_ZSt18uninitialized_copyISt13move_iteratorIPSt10shared_ptrIN7testing8internal26ParameterizedTestSuiteInfoI21LXRotateInsertFixtureE8TestInfoEEES9_ET0_T_SC_SB_
FNDA:0,_ZSt18uninitialized_copyISt13move_iteratorIPSt10shared_ptrIN7testing8internal26ParameterizedTestSuiteInfoI21LXRotateInsertFixtureE8TestInfoEEES9_ET0_T_SC_SB_
FN:126,_ZSt18uninitialized_copyISt13move_iteratorIPSt10shared_ptrIN7testing8internal26ParameterizedTestSuiteInfoI11FindFixtureE8TestInfoEEES9_ET0_T_SC_SB_
FNDA:0,_ZSt18uninitialized_copyISt13move_iteratorIPSt10shared_ptrIN7testing8internal26ParameterizedTestSuiteInfoI11FindFixtureE8TestInfoEEES9_ET0_T_SC_SB_
FN:126,_ZSt18uninitialized_copyISt13move_iteratorIPSt10shared_ptrIN7testing8internal26ParameterizedTestSuiteInfoI11RankFixtureE8TestInfoEEES9_ET0_T_SC_SB_
FNDA:0,_ZSt18uninitialized_copyISt13move_iteratorIPSt10shared_ptrIN7testing8internal26ParameterizedTestSuiteInfoI11RankFixtureE8TestInfoEEES9_ET0_T_SC_SB_
FN:126,_ZSt18uninitialized_copyISt13move_iteratorIPN7testing8internal26ParameterizedTestSuiteInfoI21RXRotateInsertFixtureE17InstantiationInfoEES7_ET0_T_SA_S9_
FNDA:0,_ZSt18uninitialized_copyISt13move_iteratorIPN7testing8internal26ParameterizedTestSuiteInfoI21RXRotateInsertFixtureE17InstantiationInfoEES7_ET0_T_SA_S9_
FN:126,_ZSt18uninitialized_copyISt13move_iteratorIPSt10shared_ptrIN7testing8internal26ParameterizedTestSuiteInfoI14MaximumFixtureE8TestInfoEEES9_ET0_T_SC_SB_
FNDA:0,_ZSt18uninitialized_copyISt13move_iteratorIPSt10shared_ptrIN7testing8internal26ParameterizedTestSuiteInfoI14MaximumFixtureE8TestInfoEEES9_ET0_T_SC_SB_
FN:126,_ZSt18uninitialized_copyISt13move_iteratorIPSt10shared_ptrIN7testing8internal26ParameterizedTestSuiteInfoI21RXRotateInsertFixtureE8TestInfoEEES9_ET0_T_SC_SB_
FNDA:0,_ZSt18uninitialized_copyISt13move_iteratorIPSt10shared_ptrIN7testing8internal26ParameterizedTestSuiteInfoI21RXRotateInsertFixtureE8TestInfoEEES9_ET0_T_SC_SB_
FN:126,_ZSt18uninitialized_copyIPKSt5tupleIJiiiEEPS1_ET0_T_S6_S5_
FNDA:9,_ZSt18uninitialized_copyIPKSt5tupleIJiiiEEPS1_ET0_T_S6_S5_
FN:126,_ZSt18uninitialized_copyIPKSt5tupleIJiiEEPS1_ET0_T_S6_S5_
FNDA:9,_ZSt18uninitialized_copyIPKSt5tupleIJiiEEPS1_ET0_T_S6_S5_
FN:331,_ZSt22__uninitialized_copy_aIN9__gnu_cxx17__normal_iteratorIPKSt5tupleIJiiiEESt6vectorIS3_SaIS3_EEEEPS3_S3_ET0_T_SC_SB_RSaIT1_E
FNDA:9,_ZSt22__uninitialized_copy_aIN9__gnu_cxx17__normal_iteratorIPKSt5tupleIJiiiEESt6vectorIS3_SaIS3_EEEEPS3_S3_ET0_T_SC_SB_RSaIT1_E
FN:331,_ZSt22__uninitialized_copy_aIPKSt5tupleIJiiiEEPS1_S1_ET0_T_S6_S5_RSaIT1_E
FNDA:9,_ZSt22__uninitialized_copy_aIPKSt5tupleIJiiiEEPS1_S1_ET0_T_S6_S5_RSaIT1_E
FN:331,_ZSt22__uninitialized_copy_aISt13move_iteratorIPSt10shared_ptrIN7testing8internal26ParameterizedTestSuiteInfoI11RankFixtureE8TestInfoEEES9_S8_ET0_T_SC_SB_RSaIT1_E
FNDA:0,_ZSt22__uninitialized_copy_aISt13move_iteratorIPSt10shared_ptrIN7testing8internal26ParameterizedTestSuiteInfoI11RankFixtureE8TestInfoEEES9_S8_ET0_T_SC_SB_RSaIT1_E
FN:331,_ZSt22__uninitialized_copy_aISt13move_iteratorIPSt10shared_ptrIN7testing8internal26ParameterizedTestSuiteInfoI11FindFixtureE8TestInfoEEES9_S8_ET0_T_SC_SB_RSaIT1_E
FNDA:0,_ZSt22__uninitialized_copy_aISt13move_iteratorIPSt10shared_ptrIN7testing8internal26ParameterizedTestSuiteInfoI11FindFixtureE8TestInfoEEES9_S8_ET0_T_SC_SB_RSaIT1_E
FN:331,_ZSt22__uninitialized_copy_aISt13move_iteratorIPSt10shared_ptrIN7testing8internal26ParameterizedTestSuiteInfoI14MaximumFixtureE8TestInfoEEES9_S8_ET0_T_SC_SB_RSaIT1_E
FNDA:0,_ZSt22__uninitialized_copy_aISt13move_iteratorIPSt10shared_ptrIN7testing8internal26ParameterizedTestSuiteInfoI14MaximumFixtureE8TestInfoEEES9_S8_ET0_T_SC_SB_RSaIT1_E
FN:331,_ZSt22__uninitialized_copy_aISt13move_iteratorIPSt10shared_ptrIN7testing8internal26ParameterizedTestSuiteInfoI14MinimumFixtureE8TestInfoEEES9_S8_ET0_T_SC_SB_RSaIT1_E
FNDA:0,_ZSt22__uninitialized_copy_aISt13move_iteratorIPSt10shared_ptrIN7testing8internal26ParameterizedTestSuiteInfoI14MinimumFixtureE8TestInfoEEES9_S8_ET0_T_SC_SB_RSaIT1_E
FN:331,_ZSt22__uninitialized_copy_aIN9__gnu_cxx17__normal_iteratorIPKSt5tupleIJiiEESt6vectorIS3_SaIS3_EEEEPS3_S3_ET0_T_SC_SB_RSaIT1_E
FNDA:9,_ZSt22__uninitialized_copy_aIN9__gnu_cxx17__normal_iteratorIPKSt5tupleIJiiEESt6vectorIS3_SaIS3_EEEEPS3_S3_ET0_T_SC_SB_RSaIT1_E
FN:331,_ZSt22__uninitialized_copy_aISt13move_iteratorIPSt10shared_ptrIN7testing8internal26ParameterizedTestSuiteInfoI21RXRotateInsertFixtureE8TestInfoEEES9_S8_ET0_T_SC_SB_RSaIT1_E
FNDA:0,_ZSt22__uninitialized_copy_aISt13move_iteratorIPSt10shared_ptrIN7testing8internal26ParameterizedTestSuiteInfoI21RXRotateInsertFixtureE8TestInfoEEES9_S8_ET0_T_SC_SB_RSaIT1_E
FN:331,_ZSt22__uninitialized_copy_aISt13move_iteratorIPSt10shared_ptrIN7testing8internal26ParameterizedTestSuiteInfoI21LXRotateInsertFixtureE8TestInfoEEES9_S8_ET0_T_SC_SB_RSaIT1_E
FNDA:0,_ZSt22__uninitialized_copy_aISt13move_iteratorIPSt10shared_ptrIN7testing8internal26ParameterizedTestSuiteInfoI21LXRotateInsertFixtureE8TestInfoEEES9_S8_ET0_T_SC_SB_RSaIT1_E
FN:331,_ZSt22__uninitialized_copy_aIPKSt5tupleIJiiEEPS1_S1_ET0_T_S6_S5_RSaIT1_E
FNDA:9,_ZSt22__uninitialized_copy_aIPKSt5tupleIJiiEEPS1_S1_ET0_T_S6_S5_RSaIT1_E
FN:331,_ZSt22__uninitialized_copy_aISt13move_iteratorIPN7testing8internal26ParameterizedTestSuiteInfoI11FindFixtureE17InstantiationInfoEES7_S6_ET0_T_SA_S9_RSaIT1_E
FNDA:0,_ZSt22__uninitialized_copy_aISt13move_iteratorIPN7testing8internal26ParameterizedTestSuiteInfoI11FindFixtureE17InstantiationInfoEES7_S6_ET0_T_SA_S9_RSaIT1_E
FN:331,_ZSt22__uninitialized_copy_aISt13move_iteratorIPN7testing8internal26ParameterizedTestSuiteInfoI11RankFixtureE17InstantiationInfoEES7_S6_ET0_T_SA_S9_RSaIT1_E
FNDA:0,_ZSt22__uninitialized_copy_aISt13move_iteratorIPN7testing8internal26ParameterizedTestSuiteInfoI11RankFixtureE17InstantiationInfoEES7_S6_ET0_T_SA_S9_RSaIT1_E
FN:331,_ZSt22__uninitialized_copy_aISt13move_iteratorIPPN7testing8internal30ParameterizedTestSuiteInfoBaseEES5_S4_ET0_T_S8_S7_RSaIT1_E
FNDA:0,_ZSt22__uninitialized_copy_aISt13move_iteratorIPPN7testing8internal30ParameterizedTestSuiteInfoBaseEES5_S4_ET0_T_S8_S7_RSaIT1_E
FN:331,_ZSt22__uninitialized_copy_aISt13move_iteratorIPN7testing8internal26ParameterizedTestSuiteInfoI14MaximumFixtureE17InstantiationInfoEES7_S6_ET0_T_SA_S9_RSaIT1_E
FNDA:0,_ZSt22__uninitialized_copy_aISt13move_iteratorIPN7testing8internal26ParameterizedTestSuiteInfoI14MaximumFixtureE17InstantiationInfoEES7_S6_ET0_T_SA_S9_RSaIT1_E
FN:331,_ZSt22__uninitialized_copy_aISt13move_iteratorIPN7testing8internal26ParameterizedTestSuiteInfoI21LXRotateInsertFixtureE17InstantiationInfoEES7_S6_ET0_T_SA_S9_RSaIT1_E
FNDA:0,_ZSt22__uninitialized_copy_aISt13move_iteratorIPN7testing8internal26ParameterizedTestSuiteInfoI21LXRotateInsertFixtureE17InstantiationInfoEES7_S6_ET0_T_SA_S9_RSaIT1_E
FN:331,_ZSt22__uninitialized_copy_aISt13move_iteratorIPN7testing8internal26ParameterizedTestSuiteInfoI21RXRotateInsertFixtureE17InstantiationInfoEES7_S6_ET0_T_SA_S9_RSaIT1_E
FNDA:0,_ZSt22__uninitialized_copy_aISt13move_iteratorIPN7testing8internal26ParameterizedTestSuiteInfoI21RXRotateInsertFixtureE17InstantiationInfoEES7_S6_ET0_T_SA_S9_RSaIT1_E
FN:331,_ZSt22__uninitialized_copy_aISt13move_iteratorIPN7testing8internal26ParameterizedTestSuiteInfoI14MinimumFixtureE17InstantiationInfoEES7_S6_ET0_T_SA_S9_RSaIT1_E
FNDA:0,_ZSt22__uninitialized_copy_aISt13move_iteratorIPN7testing8internal26ParameterizedTestSuiteInfoI14MinimumFixtureE17InstantiationInfoEES7_S6_ET0_T_SA_S9_RSaIT1_E
FN:349,_ZSt34__uninitialized_move_if_noexcept_aIPN7testing8internal26ParameterizedTestSuiteInfoI14MinimumFixtureE17InstantiationInfoES6_SaIS5_EET0_T_S9_S8_RT1_
FNDA:0,_ZSt34__uninitialized_move_if_noexcept_aIPN7testing8internal26ParameterizedTestSuiteInfoI14MinimumFixtureE17InstantiationInfoES6_SaIS5_EET0_T_S9_S8_RT1_
FN:349,_ZSt34__uninitialized_move_if_noexcept_aIPSt10shared_ptrIN7testing8internal26ParameterizedTestSuiteInfoI21RXRotateInsertFixtureE8TestInfoEES8_SaIS7_EET0_T_SB_SA_RT1_
FNDA:0,_ZSt34__uninitialized_move_if_noexcept_aIPSt10shared_ptrIN7testing8internal26ParameterizedTestSuiteInfoI21RXRotateInsertFixtureE8TestInfoEES8_SaIS7_EET0_T_SB_SA_RT1_
FN:349,_ZSt34__uninitialized_move_if_noexcept_aIPN7testing8internal26ParameterizedTestSuiteInfoI21RXRotateInsertFixtureE17InstantiationInfoES6_SaIS5_EET0_T_S9_S8_RT1_
FNDA:0,_ZSt34__uninitialized_move_if_noexcept_aIPN7testing8internal26ParameterizedTestSuiteInfoI21RXRotateInsertFixtureE17InstantiationInfoES6_SaIS5_EET0_T_S9_S8_RT1_
FN:349,_ZSt34__uninitialized_move_if_noexcept_aIPN7testing8internal26ParameterizedTestSuiteInfoI21LXRotateInsertFixtureE17InstantiationInfoES6_SaIS5_EET0_T_S9_S8_RT1_
FNDA:0,_ZSt34__uninitialized_move_if_noexcept_aIPN7testing8internal26ParameterizedTestSuiteInfoI21LXRotateInsertFixtureE17InstantiationInfoES6_SaIS5_EET0_T_S9_S8_RT1_
FN:349,_ZSt34__uninitialized_move_if_noexcept_aIPPN7testing8internal30ParameterizedTestSuiteInfoBaseES4_SaIS3_EET0_T_S7_S6_RT1_
FNDA:0,_ZSt34__uninitialized_move_if_noexcept_aIPPN7testing8internal30ParameterizedTestSuiteInfoBaseES4_SaIS3_EET0_T_S7_S6_RT1_
FN:349,_ZSt34__uninitialized_move_if_noexcept_aIPN7testing8internal26ParameterizedTestSuiteInfoI14MaximumFixtureE17InstantiationInfoES6_SaIS5_EET0_T_S9_S8_RT1_
FNDA:0,_ZSt34__uninitialized_move_if_noexcept_aIPN7testing8internal26ParameterizedTestSuiteInfoI14MaximumFixtureE17InstantiationInfoES6_SaIS5_EET0_T_S9_S8_RT1_
FN:349,_ZSt34__uninitialized_move_if_noexcept_aIPN7testing8internal26ParameterizedTestSuiteInfoI11RankFixtureE17InstantiationInfoES6_SaIS5_EET0_T_S9_S8_RT1_
FNDA:0,_ZSt34__uninitialized_move_if_noexcept_aIPN7testing8internal26ParameterizedTestSuiteInfoI11RankFixtureE17InstantiationInfoES6_SaIS5_EET0_T_S9_S8_RT1_
FN:349,_ZSt34__uninitialized_move_if_noexcept_aIPN7testing8internal26ParameterizedTestSuiteInfoI11FindFixtureE17InstantiationInfoES6_SaIS5_EET0_T_S9_S8_RT1_
FNDA:0,_ZSt34__uninitialized_move_if_noexcept_aIPN7testing8internal26ParameterizedTestSuiteInfoI11FindFixtureE17InstantiationInfoES6_SaIS5_EET0_T_S9_S8_RT1_
FN:349,_ZSt34__uninitialized_move_if_noexcept_aIPSt10shared_ptrIN7testing8internal26ParameterizedTestSuiteInfoI21LXRotateInsertFixtureE8TestInfoEES8_SaIS7_EET0_T_SB_SA_RT1_
FNDA:0,_ZSt34__uninitialized_move_if_noexcept_aIPSt10shared_ptrIN7testing8internal26ParameterizedTestSuiteInfoI21LXRotateInsertFixtureE8TestInfoEES8_SaIS7_EET0_T_SB_SA_RT1_
FN:349,_ZSt34__uninitialized_move_if_noexcept_aIPSt10shared_ptrIN7testing8internal26ParameterizedTestSuiteInfoI14MinimumFixtureE8TestInfoEES8_SaIS7_EET0_T_SB_SA_RT1_
FNDA:0,_ZSt34__uninitialized_move_if_noexcept_aIPSt10shared_ptrIN7testing8internal26ParameterizedTestSuiteInfoI14MinimumFixtureE8TestInfoEES8_SaIS7_EET0_T_SB_SA_RT1_
FN:349,_ZSt34__uninitialized_move_if_noexcept_aIPSt10shared_ptrIN7testing8internal26ParameterizedTestSuiteInfoI14MaximumFixtureE8TestInfoEES8_SaIS7_EET0_T_SB_SA_RT1_
FNDA:0,_ZSt34__uninitialized_move_if_noexcept_aIPSt10shared_ptrIN7testing8internal26ParameterizedTestSuiteInfoI14MaximumFixtureE8TestInfoEES8_SaIS7_EET0_T_SB_SA_RT1_
FN:349,_ZSt34__uninitialized_move_if_noexcept_aIPSt10shared_ptrIN7testing8internal26ParameterizedTestSuiteInfoI11RankFixtureE8TestInfoEES8_SaIS7_EET0_T_SB_SA_RT1_
FNDA:0,_ZSt34__uninitialized_move_if_noexcept_aIPSt10shared_ptrIN7testing8internal26ParameterizedTestSuiteInfoI11RankFixtureE8TestInfoEES8_SaIS7_EET0_T_SB_SA_RT1_
FN:349,_ZSt34__uninitialized_move_if_noexcept_aIPSt10shared_ptrIN7testing8internal26ParameterizedTestSuiteInfoI11FindFixtureE8TestInfoEES8_SaIS7_EET0_T_SB_SA_RT1_
FNDA:0,_ZSt34__uninitialized_move_if_noexcept_aIPSt10shared_ptrIN7testing8internal26ParameterizedTestSuiteInfoI11FindFixtureE8TestInfoEES8_SaIS7_EET0_T_SB_SA_RT1_
FN:986,_ZSt19__relocate_object_aISt10shared_ptrIN7testing8internal26ParameterizedTestSuiteInfoI11RankFixtureE8TestInfoEES7_SaIS7_EEvPT_PT0_RT1_
FNDA:0,_ZSt19__relocate_object_aISt10shared_ptrIN7testing8internal26ParameterizedTestSuiteInfoI11RankFixtureE8TestInfoEES7_SaIS7_EEvPT_PT0_RT1_
FN:986,_ZSt19__relocate_object_aISt10shared_ptrIN7testing8internal26ParameterizedTestSuiteInfoI11FindFixtureE8TestInfoEES7_SaIS7_EEvPT_PT0_RT1_
FNDA:0,_ZSt19__relocate_object_aISt10shared_ptrIN7testing8internal26ParameterizedTestSuiteInfoI11FindFixtureE8TestInfoEES7_SaIS7_EEvPT_PT0_RT1_
FN:986,_ZSt19__relocate_object_aIN7testing8internal26ParameterizedTestSuiteInfoI21LXRotateInsertFixtureE17InstantiationInfoES5_SaIS5_EEvPT_PT0_RT1_
FNDA:0,_ZSt19__relocate_object_aIN7testing8internal26ParameterizedTestSuiteInfoI21LXRotateInsertFixtureE17InstantiationInfoES5_SaIS5_EEvPT_PT0_RT1_
FN:986,_ZSt19__relocate_object_aIN7testing8internal26ParameterizedTestSuiteInfoI21RXRotateInsertFixtureE17InstantiationInfoES5_SaIS5_EEvPT_PT0_RT1_
FNDA:0,_ZSt19__relocate_object_aIN7testing8internal26ParameterizedTestSuiteInfoI21RXRotateInsertFixtureE17InstantiationInfoES5_SaIS5_EEvPT_PT0_RT1_
FN:986,_ZSt19__relocate_object_aIN7testing8internal26ParameterizedTestSuiteInfoI14MinimumFixtureE17InstantiationInfoES5_SaIS5_EEvPT_PT0_RT1_
FNDA:0,_ZSt19__relocate_object_aIN7testing8internal26ParameterizedTestSuiteInfoI14MinimumFixtureE17InstantiationInfoES5_SaIS5_EEvPT_PT0_RT1_
FN:986,_ZSt19__relocate_object_aIN7testing8internal26ParameterizedTestSuiteInfoI14MaximumFixtureE17InstantiationInfoES5_SaIS5_EEvPT_PT0_RT1_
FNDA:0,_ZSt19__relocate_object_aIN7testing8internal26ParameterizedTestSuiteInfoI14MaximumFixtureE17InstantiationInfoES5_SaIS5_EEvPT_PT0_RT1_
FN:986,_ZSt19__relocate_object_aIN7testing8internal26ParameterizedTestSuiteInfoI11RankFixtureE17InstantiationInfoES5_SaIS5_EEvPT_PT0_RT1_
FNDA:0,_ZSt19__relocate_object_aIN7testing8internal26ParameterizedTestSuiteInfoI11RankFixtureE17InstantiationInfoES5_SaIS5_EEvPT_PT0_RT1_
FN:986,_ZSt19__relocate_object_aIN7testing8internal26ParameterizedTestSuiteInfoI11FindFixtureE17InstantiationInfoES5_SaIS5_EEvPT_PT0_RT1_
FNDA:0,_ZSt19__relocate_object_aIN7testing8internal26ParameterizedTestSuiteInfoI11FindFixtureE17InstantiationInfoES5_SaIS5_EEvPT_PT0_RT1_
FN:986,_ZSt19__relocate_object_aISt10shared_ptrIN7testing8internal26ParameterizedTestSuiteInfoI21LXRotateInsertFixtureE8TestInfoEES7_SaIS7_EEvPT_PT0_RT1_
FNDA:0,_ZSt19__relocate_object_aISt10shared_ptrIN7testing8internal26ParameterizedTestSuiteInfoI21LXRotateInsertFixtureE8TestInfoEES7_SaIS7_EEvPT_PT0_RT1_
FN:986,_ZSt19__relocate_object_aISt10shared_ptrIN7testing8internal26ParameterizedTestSuiteInfoI21RXRotateInsertFixtureE8TestInfoEES7_SaIS7_EEvPT_PT0_RT1_
FNDA:0,_ZSt19__relocate_object_aISt10shared_ptrIN7testing8internal26ParameterizedTestSuiteInfoI21RXRotateInsertFixtureE8TestInfoEES7_SaIS7_EEvPT_PT0_RT1_
FN:986,_ZSt19__relocate_object_aISt10shared_ptrIN7testing8internal26ParameterizedTestSuiteInfoI14MinimumFixtureE8TestInfoEES7_SaIS7_EEvPT_PT0_RT1_
FNDA:0,_ZSt19__relocate_object_aISt10shared_ptrIN7testing8internal26ParameterizedTestSuiteInfoI14MinimumFixtureE8TestInfoEES7_SaIS7_EEvPT_PT0_RT1_
FN:986,_ZSt19__relocate_object_aISt10shared_ptrIN7testing8internal26ParameterizedTestSuiteInfoI14MaximumFixtureE8TestInfoEES7_SaIS7_EEvPT_PT0_RT1_
FNDA:0,_ZSt19__relocate_object_aISt10shared_ptrIN7testing8internal26ParameterizedTestSuiteInfoI14MaximumFixtureE8TestInfoEES7_SaIS7_EEvPT_PT0_RT1_
FN:1006,_ZSt14__relocate_a_1IPN7testing8internal30ParameterizedTestSuiteInfoBaseES3_ENSt9enable_ifIXsrSt24__is_bitwise_relocatableIT_vE5valueEPS6_E4typeES8_S8_S8_RSaIT0_E
FNDA:24,_ZSt14__relocate_a_1IPN7testing8internal30ParameterizedTestSuiteInfoBaseES3_ENSt9enable_ifIXsrSt24__is_bitwise_relocatableIT_vE5valueEPS6_E4typeES8_S8_S8_RSaIT0_E
FN:1018,_ZSt14__relocate_a_1IPN7testing8internal26ParameterizedTestSuiteInfoI11RankFixtureE17InstantiationInfoES6_SaIS5_EET0_T_S9_S8_RT1_
FNDA:6,_ZSt14__relocate_a_1IPN7testing8internal26ParameterizedTestSuiteInfoI11RankFixtureE17InstantiationInfoES6_SaIS5_EET0_T_S9_S8_RT1_
FN:1018,_ZSt14__relocate_a_1IPSt10shared_ptrIN7testing8internal26ParameterizedTestSuiteInfoI11FindFixtureE8TestInfoEES8_SaIS7_EET0_T_SB_SA_RT1_
FNDA:6,_ZSt14__relocate_a_1IPSt10shared_ptrIN7testing8internal26ParameterizedTestSuiteInfoI11FindFixtureE8TestInfoEES8_SaIS7_EET0_T_SB_SA_RT1_
FN:1018,_ZSt14__relocate_a_1IPSt10shared_ptrIN7testing8internal26ParameterizedTestSuiteInfoI11RankFixtureE8TestInfoEES8_SaIS7_EET0_T_SB_SA_RT1_
FNDA:6,_ZSt14__relocate_a_1IPSt10shared_ptrIN7testing8internal26ParameterizedTestSuiteInfoI11RankFixtureE8TestInfoEES8_SaIS7_EET0_T_SB_SA_RT1_
FN:1018,_ZSt14__relocate_a_1IPSt10shared_ptrIN7testing8internal26ParameterizedTestSuiteInfoI14MaximumFixtureE8TestInfoEES8_SaIS7_EET0_T_SB_SA_RT1_
FNDA:6,_ZSt14__relocate_a_1IPSt10shared_ptrIN7testing8internal26ParameterizedTestSuiteInfoI14MaximumFixtureE8TestInfoEES8_SaIS7_EET0_T_SB_SA_RT1_
FN:1018,_ZSt14__relocate_a_1IPSt10shared_ptrIN7testing8internal26ParameterizedTestSuiteInfoI14MinimumFixtureE8TestInfoEES8_SaIS7_EET0_T_SB_SA_RT1_
FNDA:6,_ZSt14__relocate_a_1IPSt10shared_ptrIN7testing8internal26ParameterizedTestSuiteInfoI14MinimumFixtureE8TestInfoEES8_SaIS7_EET0_T_SB_SA_RT1_
FN:1018,_ZSt14__relocate_a_1IPSt10shared_ptrIN7testing8internal26ParameterizedTestSuiteInfoI21RXRotateInsertFixtureE8TestInfoEES8_SaIS7_EET0_T_SB_SA_RT1_
FNDA:6,_ZSt14__relocate_a_1IPSt10shared_ptrIN7testing8internal26ParameterizedTestSuiteInfoI21RXRotateInsertFixtureE8TestInfoEES8_SaIS7_EET0_T_SB_SA_RT1_
FN:1018,_ZSt14__relocate_a_1IPSt10shared_ptrIN7testing8internal26ParameterizedTestSuiteInfoI21LXRotateInsertFixtureE8TestInfoEES8_SaIS7_EET0_T_SB_SA_RT1_
FNDA:6,_ZSt14__relocate_a_1IPSt10shared_ptrIN7testing8internal26ParameterizedTestSuiteInfoI21LXRotateInsertFixtureE8TestInfoEES8_SaIS7_EET0_T_SB_SA_RT1_
FN:1018,_ZSt14__relocate_a_1IPN7testing8internal26ParameterizedTestSuiteInfoI14MaximumFixtureE17InstantiationInfoES6_SaIS5_EET0_T_S9_S8_RT1_
FNDA:6,_ZSt14__relocate_a_1IPN7testing8internal26ParameterizedTestSuiteInfoI14MaximumFixtureE17InstantiationInfoES6_SaIS5_EET0_T_S9_S8_RT1_
FN:1018,_ZSt14__relocate_a_1IPN7testing8internal26ParameterizedTestSuiteInfoI14MinimumFixtureE17InstantiationInfoES6_SaIS5_EET0_T_S9_S8_RT1_
FNDA:6,_ZSt14__relocate_a_1IPN7testing8internal26ParameterizedTestSuiteInfoI14MinimumFixtureE17InstantiationInfoES6_SaIS5_EET0_T_S9_S8_RT1_
FN:1018,_ZSt14__relocate_a_1IPN7testing8internal26ParameterizedTestSuiteInfoI21RXRotateInsertFixtureE17InstantiationInfoES6_SaIS5_EET0_T_S9_S8_RT1_
FNDA:6,_ZSt14__relocate_a_1IPN7testing8internal26ParameterizedTestSuiteInfoI21RXRotateInsertFixtureE17InstantiationInfoES6_SaIS5_EET0_T_S9_S8_RT1_
FN:1018,_ZSt14__relocate_a_1IPN7testing8internal26ParameterizedTestSuiteInfoI21LXRotateInsertFixtureE17InstantiationInfoES6_SaIS5_EET0_T_S9_S8_RT1_
FNDA:6,_ZSt14__relocate_a_1IPN7testing8internal26ParameterizedTestSuiteInfoI21LXRotateInsertFixtureE17InstantiationInfoES6_SaIS5_EET0_T_S9_S8_RT1_
FN:1018,_ZSt14__relocate_a_1IPN7testing8internal26ParameterizedTestSuiteInfoI11FindFixtureE17InstantiationInfoES6_SaIS5_EET0_T_S9_S8_RT1_
FNDA:6,_ZSt14__relocate_a_1IPN7testing8internal26ParameterizedTestSuiteInfoI11FindFixtureE17InstantiationInfoES6_SaIS5_EET0_T_S9_S8_RT1_
FN:1040,_ZSt12__relocate_aIPSt10shared_ptrIN7testing8internal26ParameterizedTestSuiteInfoI14MinimumFixtureE8TestInfoEES8_SaIS7_EET0_T_SB_SA_RT1_
FNDA:6,_ZSt12__relocate_aIPSt10shared_ptrIN7testing8internal26ParameterizedTestSuiteInfoI14MinimumFixtureE8TestInfoEES8_SaIS7_EET0_T_SB_SA_RT1_
FN:1040,_ZSt12__relocate_aIPN7testing8internal26ParameterizedTestSuiteInfoI14MinimumFixtureE17InstantiationInfoES6_SaIS5_EET0_T_S9_S8_RT1_
FNDA:6,_ZSt12__relocate_aIPN7testing8internal26ParameterizedTestSuiteInfoI14MinimumFixtureE17InstantiationInfoES6_SaIS5_EET0_T_S9_S8_RT1_
FN:1040,_ZSt12__relocate_aIPN7testing8internal26ParameterizedTestSuiteInfoI21LXRotateInsertFixtureE17InstantiationInfoES6_SaIS5_EET0_T_S9_S8_RT1_
FNDA:6,_ZSt12__relocate_aIPN7testing8internal26ParameterizedTestSuiteInfoI21LXRotateInsertFixtureE17InstantiationInfoES6_SaIS5_EET0_T_S9_S8_RT1_
FN:1040,_ZSt12__relocate_aIPN7testing8internal26ParameterizedTestSuiteInfoI14MaximumFixtureE17InstantiationInfoES6_SaIS5_EET0_T_S9_S8_RT1_
FNDA:6,_ZSt12__relocate_aIPN7testing8internal26ParameterizedTestSuiteInfoI14MaximumFixtureE17InstantiationInfoES6_SaIS5_EET0_T_S9_S8_RT1_
FN:1040,_ZSt12__relocate_aIPPN7testing8internal30ParameterizedTestSuiteInfoBaseES4_SaIS3_EET0_T_S7_S6_RT1_
FNDA:24,_ZSt12__relocate_aIPPN7testing8internal30ParameterizedTestSuiteInfoBaseES4_SaIS3_EET0_T_S7_S6_RT1_
FN:1040,_ZSt12__relocate_aIPN7testing8internal26ParameterizedTestSuiteInfoI11RankFixtureE17InstantiationInfoES6_SaIS5_EET0_T_S9_S8_RT1_
FNDA:6,_ZSt12__relocate_aIPN7testing8internal26ParameterizedTestSuiteInfoI11RankFixtureE17InstantiationInfoES6_SaIS5_EET0_T_S9_S8_RT1_
FN:1040,_ZSt12__relocate_aIPN7testing8internal26ParameterizedTestSuiteInfoI11FindFixtureE17InstantiationInfoES6_SaIS5_EET0_T_S9_S8_RT1_
FNDA:6,_ZSt12__relocate_aIPN7testing8internal26ParameterizedTestSuiteInfoI11FindFixtureE17InstantiationInfoES6_SaIS5_EET0_T_S9_S8_RT1_
FN:1040,_ZSt12__relocate_aIPSt10shared_ptrIN7testing8internal26ParameterizedTestSuiteInfoI21LXRotateInsertFixtureE8TestInfoEES8_SaIS7_EET0_T_SB_SA_RT1_
FNDA:6,_ZSt12__relocate_aIPSt10shared_ptrIN7testing8internal26ParameterizedTestSuiteInfoI21LXRotateInsertFixtureE8TestInfoEES8_SaIS7_EET0_T_SB_SA_RT1_
FN:1040,_ZSt12__relocate_aIPSt10shared_ptrIN7testing8internal26ParameterizedTestSuiteInfoI21RXRotateInsertFixtureE8TestInfoEES8_SaIS7_EET0_T_SB_SA_RT1_
FNDA:6,_ZSt12__relocate_aIPSt10shared_ptrIN7testing8internal26ParameterizedTestSuiteInfoI21RXRotateInsertFixtureE8TestInfoEES8_SaIS7_EET0_T_SB_SA_RT1_
FN:1040,_ZSt12__relocate_aIPSt10shared_ptrIN7testing8internal26ParameterizedTestSuiteInfoI14MaximumFixtureE8TestInfoEES8_SaIS7_EET0_T_SB_SA_RT1_
FNDA:6,_ZSt12__relocate_aIPSt10shared_ptrIN7testing8internal26ParameterizedTestSuiteInfoI14MaximumFixtureE8TestInfoEES8_SaIS7_EET0_T_SB_SA_RT1_
FN:1040,_ZSt12__relocate_aIPSt10shared_ptrIN7testing8internal26ParameterizedTestSuiteInfoI11RankFixtureE8TestInfoEES8_SaIS7_EET0_T_SB_SA_RT1_
FNDA:6,_ZSt12__relocate_aIPSt10shared_ptrIN7testing8internal26ParameterizedTestSuiteInfoI11RankFixtureE8TestInfoEES8_SaIS7_EET0_T_SB_SA_RT1_
FN:1040,_ZSt12__relocate_aIPSt10shared_ptrIN7testing8internal26ParameterizedTestSuiteInfoI11FindFixtureE8TestInfoEES8_SaIS7_EET0_T_SB_SA_RT1_
FNDA:6,_ZSt12__relocate_aIPSt10shared_ptrIN7testing8internal26ParameterizedTestSuiteInfoI11FindFixtureE8TestInfoEES8_SaIS7_EET0_T_SB_SA_RT1_
FN:1040,_ZSt12__relocate_aIPN7testing8internal26ParameterizedTestSuiteInfoI21RXRotateInsertFixtureE17InstantiationInfoES6_SaIS5_EET0_T_S9_S8_RT1_
FNDA:6,_ZSt12__relocate_aIPN7testing8internal26ParameterizedTestSuiteInfoI21RXRotateInsertFixtureE17InstantiationInfoES6_SaIS5_EET0_T_S9_S8_RT1_
DA:85,9
DA:88,9
DA:91,351
DA:92,342
DA:93,9
DA:85,9
DA:88,9
DA:91,135
DA:92,126
DA:93,9
DA:85,0
DA:88,0
DA:91,0
DA:92,0
DA:93,0
DA:95,0
DA:97,0
DA:98,0
DA:85,0
DA:88,0
DA:91,0
DA:92,0
DA:93,0
DA:95,0
DA:97,0
DA:98,0
DA:85,0
DA:88,0
DA:91,0
DA:92,0
DA:93,0
DA:95,0
DA:97,0
DA:98,0
DA:85,0
DA:88,0
DA:91,0
DA:92,0
DA:93,0
DA:95,0
DA:97,0
DA:98,0
DA:85,0
DA:88,0
DA:91,0
DA:92,0
DA:93,0
DA:95,0
DA:97,0
DA:98,0
DA:85,0
DA:88,0
DA:91,0
DA:92,0
DA:93,0
DA:95,0
DA:97,0
DA:98,0
DA:85,0
DA:88,0
DA:91,0
DA:92,0
DA:93,0
DA:95,0
DA:97,0
DA:98,0
DA:85,0
DA:88,0
DA:91,0
DA:92,0
DA:93,0
DA:95,0
DA:97,0
DA:98,0
DA:85,0
DA:88,0
DA:91,0
DA:92,0
DA:93,0
DA:95,0
DA:97,0
DA:98,0
DA:85,0
DA:88,0
DA:91,0
DA:92,0
DA:93,0
DA:95,0
DA:97,0
DA:98,0
DA:85,0
DA:88,0
DA:91,0
DA:92,0
DA:93,0
DA:95,0
DA:97,0
DA:98,0
DA:85,0
DA:88,0
DA:91,0
DA:92,0
DA:93,0
DA:95,0
DA:97,0
DA:98,0
DA:85,9
DA:88,9
DA:91,351
DA:92,342
DA:93,9
DA:85,9
DA:88,9
DA:91,135
DA:92,126
DA:93,9
DA:108,0
DA:110,0
DA:126,0
DA:145,0
DA:151,0
DA:126,9
DA:145,9
DA:151,9
DA:126,9
DA:145,9
DA:151,9
DA:126,0
DA:145,0
DA:151,0
DA:126,0
DA:145,0
DA:151,0
DA:126,0
DA:145,0
DA:151,0
DA:126,0
DA:145,0
DA:151,0
DA:126,0
DA:145,0
DA:151,0
DA:126,0
DA:145,0
DA:151,0
DA:126,9
DA:145,9
DA:151,9
DA:126,0
DA:145,0
DA:151,0
DA:126,0
DA:145,0
DA:151,0
DA:126,0
DA:145,0
DA:151,0
DA:126,0
DA:145,0
DA:151,0
DA:126,0
DA:145,0
DA:151,0
DA:126,0
DA:145,0
DA:151,0
DA:126,9
DA:145,9
DA:151,9
DA:331,0
DA:333,0
DA:331,9
DA:333,9
DA:331,9
DA:333,9
DA:331,0
DA:333,0
DA:331,0
DA:333,0
DA:331,0
DA:333,0
DA:331,0
DA:333,0
DA:331,0
DA:333,0
DA:331,0
DA:333,0
DA:331,9
DA:333,9
DA:331,0
DA:333,0
DA:331,0
DA:333,0
DA:331,0
DA:333,0
DA:331,0
DA:333,0
DA:331,0
DA:333,0
DA:331,0
DA:333,0
DA:331,9
DA:333,9
DA:349,0
DA:355,0
DA:356,0
DA:349,0
DA:355,0
DA:356,0
DA:349,0
DA:355,0
DA:356,0
DA:349,0
DA:355,0
DA:356,0
DA:349,0
DA:355,0
DA:356,0
DA:349,0
DA:355,0
DA:356,0
DA:349,0
DA:355,0
DA:356,0
DA:349,0
DA:355,0
DA:356,0
DA:349,0
DA:355,0
DA:356,0
DA:349,0
DA:355,0
DA:356,0
DA:349,0
DA:355,0
DA:356,0
DA:349,0
DA:355,0
DA:356,0
DA:349,0
DA:355,0
DA:356,0
DA:986,0
DA:994,0
DA:995,0
DA:996,0
DA:986,0
DA:994,0
DA:995,0
DA:996,0
DA:986,0
DA:994,0
DA:995,0
DA:996,0
DA:986,0
DA:994,0
DA:995,0
DA:996,0
DA:986,0
DA:994,0
DA:995,0
DA:996,0
DA:986,0
DA:994,0
DA:995,0
DA:996,0
DA:986,0
DA:994,0
DA:995,0
DA:996,0
DA:986,0
DA:994,0
DA:995,0
DA:996,0
DA:986,0
DA:994,0
DA:995,0
DA:996,0
DA:986,0
DA:994,0
DA:995,0
DA:996,0
DA:986,0
DA:994,0
DA:995,0
DA:996,0
DA:986,0
DA:994,0
DA:995,0
DA:996,0
DA:1006,24
DA:1009,24
DA:1010,24
DA:1011,9
DA:1012,24
DA:1018,6
DA:1030,6
DA:1031,6
DA:1032,0
DA:1034,6
DA:1018,6
DA:1030,6
DA:1031,6
DA:1032,0
DA:1034,6
DA:1018,6
DA:1030,6
DA:1031,6
DA:1032,0
DA:1034,6
DA:1018,6
DA:1030,6
DA:1031,6
DA:1032,0
DA:1034,6
DA:1018,6
DA:1030,6
DA:1031,6
DA:1032,0
DA:1034,6
DA:1018,6
DA:1030,6
DA:1031,6
DA:1032,0
DA:1034,6
DA:1018,6
DA:1030,6
DA:1031,6
DA:1032,0
DA:1034,6
DA:1018,6
DA:1030,6
DA:1031,6
DA:1032,0
DA:1034,6
DA:1018,6
DA:1030,6
DA:1031,6
DA:1032,0
DA:1034,6
DA:1018,6
DA:1030,6
DA:1031,6
DA:1032,0
DA:1034,6
DA:1018,6
DA:1030,6
DA:1031,6
DA:1032,0
DA:1034,6
DA:1018,6
DA:1030,6
DA:1031,6
DA:1032,0
DA:1034,6
DA:1040,6
DA:1046,6
DA:1048,6
DA:1040,6
DA:1046,6
DA:1048,6
DA:1040,6
DA:1046,6
DA:1048,6
DA:1040,6
DA:1046,6
DA:1048,6
DA:1040,6
DA:1046,6
DA:1048,6
DA:1040,6
DA:1046,6
DA:1048,6
DA:1040,6
DA:1046,6
DA:1048,6
DA:1040,6
DA:1046,6
DA:1048,6
DA:1040,6
DA:1046,6
DA:1048,6
DA:1040,6
DA:1046,6
DA:1048,6
DA:1040,6
DA:1046,6
DA:1048,6
DA:1040,6
DA:1046,6
DA:1048,6
DA:1040,24
DA:1046,24
DA:1048,24
end_of_record
SF:/usr/include/gtest/gtest.h
FN:324,_ZNK7testing15AssertionResultcvbEv
FNDA:1140,_ZNK7testing15AssertionResultcvbEv
FN:333,_ZNK7testing15AssertionResult7messageEv
FNDA:0,_ZNK7testing15AssertionResult7messageEv
FN:337,_ZNK7testing15AssertionResult15failure_messageEv
FNDA:0,_ZNK7testing15AssertionResult15failure_messageEv
FN:427,_ZN7testing4Test14SetUpTestSuiteEv
FNDA:0,_ZN7testing4Test14SetUpTestSuiteEv
FN:435,_ZN7testing4Test17TearDownTestSuiteEv
FNDA:0,_ZN7testing4Test17TearDownTestSuiteEv
FN:440,_ZN7testing4Test16TearDownTestCaseEv
FNDA:0,_ZN7testing4Test16TearDownTestCaseEv
FN:441,_ZN7testing4Test13SetUpTestCaseEv
FNDA:0,_ZN7testing4Test13SetUpTestCaseEv
FN:522,_ZN7testing4Test5SetupEv
FNDA:0,_ZN7testing4Test5SetupEv
FN:1522,_ZN7testing8internal18CmpHelperEQFailureIibEENS_15AssertionResultEPKcS4_RKT_RKT0_
FNDA:0,_ZN7testing8internal18CmpHelperEQFailureIibEENS_15AssertionResultEPKcS4_RKT_RKT0_
FN:1522,_ZN7testing8internal18CmpHelperEQFailureIiiEENS_15AssertionResultEPKcS4_RKT_RKT0_
FNDA:0,_ZN7testing8internal18CmpHelperEQFailureIiiEENS_15AssertionResultEPKcS4_RKT_RKT0_
FN:1541,_ZN7testing8internal11CmpHelperEQIibEENS_15AssertionResultEPKcS4_RKT_RKT0_
FNDA:6,_ZN7testing8internal11CmpHelperEQIibEENS_15AssertionResultEPKcS4_RKT_RKT0_
FN:1541,_ZN7testing8internal11CmpHelperEQIiiEENS_15AssertionResultEPKcS4_RKT_RKT0_
FNDA:1134,_ZN7testing8internal11CmpHelperEQIiiEENS_15AssertionResultEPKcS4_RKT_RKT0_
FN:1561,_ZN7testing8internal8EqHelper7CompareIibLPv0EEENS_15AssertionResultEPKcS6_RKT_RKT0_
FNDA:6,_ZN7testing8internal8EqHelper7CompareIibLPv0EEENS_15AssertionResultEPKcS6_RKT_RKT0_
FN:1561,_ZN7testing8internal8EqHelper7CompareIiiLPv0EEENS_15AssertionResultEPKcS6_RKT_RKT0_
FNDA:1134,_ZN7testing8internal8EqHelper7CompareIiiLPv0EEENS_15AssertionResultEPKcS6_RKT_RKT0_
FN:1849,_ZN7testing18WithParamInterfaceISt5tupleIJiiEEED2Ev
FNDA:126,_ZN7testing18WithParamInterfaceISt5tupleIJiiEEED2Ev
FN:1849,_ZN7testing18WithParamInterfaceISt5tupleIJiiEEED0Ev
FNDA:0,_ZN7testing18WithParamInterfaceISt5tupleIJiiEEED0Ev
FN:1849,_ZN7testing18WithParamInterfaceISt5tupleIJiiiEEED2Ev
FNDA:342,_ZN7testing18WithParamInterfaceISt5tupleIJiiiEEED2Ev
FN:1849,_ZN7testing18WithParamInterfaceISt5tupleIJiiiEEED0Ev
FNDA:0,_ZN7testing18WithParamInterfaceISt5tupleIJiiiEEED0Ev
FN:1853,_ZN7testing18WithParamInterfaceISt5tupleIJiiEEE8GetParamEv
FNDA:126,_ZN7testing18WithParamInterfaceISt5tupleIJiiEEE8GetParamEv
FN:1853,_ZN7testing18WithParamInterfaceISt5tupleIJiiiEEE8GetParamEv
FNDA:342,_ZN7testing18WithParamInterfaceISt5tupleIJiiiEEE8GetParamEv
FN:1863,_ZN7testing18WithParamInterfaceISt5tupleIJiiiEEE8SetParamEPKS2_
FNDA:342,_ZN7testing18WithParamInterfaceISt5tupleIJiiiEEE8SetParamEPKS2_
FN:1863,_ZN7testing18WithParamInterfaceISt5tupleIJiiEEE8SetParamEPKS2_
FNDA:126,_ZN7testing18WithParamInterfaceISt5tupleIJiiEEE8SetParamEPKS2_
FN:2489,_Z13RUN_ALL_TESTSv
FNDA:3,_Z13RUN_ALL_TESTSv
DA:324,1140
DA:333,0
DA:334,0
DA:337,0
DA:427,0
DA:435,0
DA:440,0
DA:441,0
DA:522,0
DA:1522,0
DA:1529,0
DA:1522,0
DA:1529,0
DA:1541,6
DA:1545,6
DA:1546,6
DA:1549,0
DA:1541,1134
DA:1545,1134
DA:1546,1134
DA:1549,0
DA:1561,6
DA:1564,6
DA:1561,1134
DA:1564,1134
DA:1849,0
DA:1849,342
DA:1849,0
DA:1849,126
DA:1853,342
DA:1854,342
DA:1856,0
DA:1857,342
DA:1853,126
DA:1854,126
DA:1856,0
DA:1857,126
DA:1863,342
DA:1864,342
DA:1865,342
DA:1863,126
DA:1864,126
DA:1865,126
DA:2489,3
DA:2490,3
end_of_record
SF:/usr/include/c++/11/bits/vector.tcc
FN:109,_ZNSt6vectorISt10shared_ptrIN7testing8internal26ParameterizedTestSuiteInfoI11FindFixtureE8TestInfoEESaIS7_EE12emplace_backIJS7_EEEvDpOT_
FNDA:3,_ZNSt6vectorISt10shared_ptrIN7testing8internal26ParameterizedTestSuiteInfoI11FindFixtureE8TestInfoEESaIS7_EE12emplace_backIJS7_EEEvDpOT_
FN:109,_ZNSt6vectorIPN7testing8internal30ParameterizedTestSuiteInfoBaseESaIS3_EE12emplace_backIJS3_EEEvDpOT_
FNDA:18,_ZNSt6vectorIPN7testing8internal30ParameterizedTestSuiteInfoBaseESaIS3_EE12emplace_backIJS3_EEEvDpOT_
FN:109,_ZNSt6vectorIN7testing8internal26ParameterizedTestSuiteInfoI21LXRotateInsertFixtureE17InstantiationInfoESaIS5_EE12emplace_backIJS5_EEEvDpOT_
FNDA:3,_ZNSt6vectorIN7testing8internal26ParameterizedTestSuiteInfoI21LXRotateInsertFixtureE17InstantiationInfoESaIS5_EE12emplace_backIJS5_EEEvDpOT_
FN:109,_ZNSt6vectorIN7testing8internal26ParameterizedTestSuiteInfoI21RXRotateInsertFixtureE17InstantiationInfoESaIS5_EE12emplace_backIJS5_EEEvDpOT_
FNDA:3,_ZNSt6vectorIN7testing8internal26ParameterizedTestSuiteInfoI21RXRotateInsertFixtureE17InstantiationInfoESaIS5_EE12emplace_backIJS5_EEEvDpOT_
FN:109,_ZNSt6vectorIN7testing8internal26ParameterizedTestSuiteInfoI14MinimumFixtureE17InstantiationInfoESaIS5_EE12emplace_backIJS5_EEEvDpOT_
FNDA:3,_ZNSt6vectorIN7testing8internal26ParameterizedTestSuiteInfoI14MinimumFixtureE17InstantiationInfoESaIS5_EE12emplace_backIJS5_EEEvDpOT_
FN:109,_ZNSt6vectorIN7testing8internal26ParameterizedTestSuiteInfoI14MaximumFixtureE17InstantiationInfoESaIS5_EE12emplace_backIJS5_EEEvDpOT_
FNDA:3,_ZNSt6vectorIN7testing8internal26ParameterizedTestSuiteInfoI14MaximumFixtureE17InstantiationInfoESaIS5_EE12emplace_backIJS5_EEEvDpOT_
FN:109,_ZNSt6vectorIN7testing8internal26ParameterizedTestSuiteInfoI11RankFixtureE17InstantiationInfoESaIS5_EE12emplace_backIJS5_EEEvDpOT_
FNDA:3,_ZNSt6vectorIN7testing8internal26ParameterizedTestSuiteInfoI11RankFixtureE17InstantiationInfoESaIS5_EE12emplace_backIJS5_EEEvDpOT_
FN:109,_ZNSt6vectorIN7testing8internal26ParameterizedTestSuiteInfoI11FindFixtureE17InstantiationInfoESaIS5_EE12emplace_backIJS5_EEEvDpOT_
FNDA:3,_ZNSt6vectorIN7testing8internal26ParameterizedTestSuiteInfoI11FindFixtureE17InstantiationInfoESaIS5_EE12emplace_backIJS5_EEEvDpOT_
FN:109,_ZNSt6vectorISt10shared_ptrIN7testing8internal26ParameterizedTestSuiteInfoI21LXRotateInsertFixtureE8TestInfoEESaIS7_EE12emplace_backIJS7_EEEvDpOT_
